
MCAPI_SystemTest_node2_cpu_s1.elf:     file format elf32-littlenios2
MCAPI_SystemTest_node2_cpu_s1.elf
architecture: nios2, flags 0x00000112:
EXEC_P, HAS_SYMS, D_PAGED
start address 0x00000154

Program Header:
    LOAD off    0x00001000 vaddr 0x00000000 paddr 0x00000000 align 2**12
         filesz 0x00000020 memsz 0x00000020 flags r-x
    LOAD off    0x00001020 vaddr 0x00000020 paddr 0x00000020 align 2**12
         filesz 0x0001bb64 memsz 0x0001bb64 flags r-x
    LOAD off    0x0001cb84 vaddr 0x0001bb84 paddr 0x0001c630 align 2**12
         filesz 0x00000aac memsz 0x00000aac flags rw-
    LOAD off    0x0001e0dc vaddr 0x0001d0dc paddr 0x0001d0dc align 2**12
         filesz 0x00000000 memsz 0x00025edc flags rw-

Sections:
Idx Name          Size      VMA       LMA       File off  Algn
  0 .entry        00000020  00000000  00000000  00001000  2**5
                  CONTENTS, ALLOC, LOAD, READONLY, CODE
  1 .exceptions   00000134  00000020  00000020  00001020  2**2
                  CONTENTS, ALLOC, LOAD, READONLY, CODE
  2 .text         00019c20  00000154  00000154  00001154  2**2
                  CONTENTS, ALLOC, LOAD, READONLY, CODE
  3 .rodata       00001e10  00019d74  00019d74  0001ad74  2**2
                  CONTENTS, ALLOC, LOAD, READONLY, DATA
  4 .rwdata       00000aac  0001bb84  0001c630  0001cb84  2**2
                  CONTENTS, ALLOC, LOAD, DATA, SMALL_DATA
  5 .bss          00025edc  0001d0dc  0001d0dc  0001e0dc  2**2
                  ALLOC, SMALL_DATA
  6 .comment      00000023  00000000  00000000  0001d630  2**0
                  CONTENTS, READONLY
  7 .debug_aranges 00000e80  00000000  00000000  0001d658  2**3
                  CONTENTS, READONLY, DEBUGGING
  8 .debug_info   0002e6fa  00000000  00000000  0001e4d8  2**0
                  CONTENTS, READONLY, DEBUGGING
  9 .debug_abbrev 0000b2c3  00000000  00000000  0004cbd2  2**0
                  CONTENTS, READONLY, DEBUGGING
 10 .debug_line   0000c9d8  00000000  00000000  00057e95  2**0
                  CONTENTS, READONLY, DEBUGGING
 11 .debug_frame  00001e88  00000000  00000000  00064870  2**2
                  CONTENTS, READONLY, DEBUGGING
 12 .debug_str    00003c08  00000000  00000000  000666f8  2**0
                  CONTENTS, READONLY, DEBUGGING
 13 .debug_loc    00016b28  00000000  00000000  0006a300  2**0
                  CONTENTS, READONLY, DEBUGGING
 14 .debug_alt_sim_info 00000050  00000000  00000000  00080e28  2**2
                  CONTENTS, READONLY, DEBUGGING
 15 .debug_ranges 00000d68  00000000  00000000  00080e78  2**3
                  CONTENTS, READONLY, DEBUGGING
 16 .thread_model 00000006  00000000  00000000  000887d5  2**0
                  CONTENTS, READONLY
 17 .cpu          00000006  00000000  00000000  000887db  2**0
                  CONTENTS, READONLY
 18 .qsys         00000001  00000000  00000000  000887e1  2**0
                  CONTENTS, READONLY
 19 .simulation_enabled 00000001  00000000  00000000  000887e2  2**0
                  CONTENTS, READONLY
 20 .stderr_dev   00000010  00000000  00000000  000887e3  2**0
                  CONTENTS, READONLY
 21 .stdin_dev    00000010  00000000  00000000  000887f3  2**0
                  CONTENTS, READONLY
 22 .stdout_dev   00000010  00000000  00000000  00088803  2**0
                  CONTENTS, READONLY
 23 .sopc_system_name 0000000a  00000000  00000000  00088813  2**0
                  CONTENTS, READONLY
 24 .jdi          00011508  00000000  00000000  0008881d  2**0
                  CONTENTS, READONLY
 25 .sopcinfo     002e2898  00000000  00000000  00099d25  2**0
                  CONTENTS, READONLY
SYMBOL TABLE:
00000000 l    d  .entry	00000000 .entry
00000020 l    d  .exceptions	00000000 .exceptions
00000154 l    d  .text	00000000 .text
00019d74 l    d  .rodata	00000000 .rodata
0001bb84 l    d  .rwdata	00000000 .rwdata
0001d0dc l    d  .bss	00000000 .bss
00000000 l    d  .comment	00000000 .comment
00000000 l    d  .debug_aranges	00000000 .debug_aranges
00000000 l    d  .debug_info	00000000 .debug_info
00000000 l    d  .debug_abbrev	00000000 .debug_abbrev
00000000 l    d  .debug_line	00000000 .debug_line
00000000 l    d  .debug_frame	00000000 .debug_frame
00000000 l    d  .debug_str	00000000 .debug_str
00000000 l    d  .debug_loc	00000000 .debug_loc
00000000 l    d  .debug_alt_sim_info	00000000 .debug_alt_sim_info
00000000 l    d  .debug_ranges	00000000 .debug_ranges
00000000 l    df *ABS*	00000000 ../UcosiiBSP_for_cpu_s1//obj/HAL/src/crt0.o
0000018c l       .text	00000000 alt_after_alt_main
00000000 l    df *ABS*	00000000 alt_exception_entry.o
00000094 l       .exceptions	00000000 alt_exception_unknown
00000000 l    df *ABS*	00000000 alt_irq_handler.c
00000000 l    df *ABS*	00000000 mcapi.c
00000000 l    df *ABS*	00000000 mcapi_trans_nios.c
00008770 l     F .text	00000030 MCAPI_ASSERT.part.0
00000000 l    df *ABS*	00000000 NS_layer.c
0001ad64 l     O .rodata	0000006c nios_node_mapping_db
00000000 l    df *ABS*	00000000 PH_layer.c
0001b04c l     O .rodata	0000006c nios_node_mapping_db
00000000 l    df *ABS*	00000000 SysTestNode2.c
00000000 l    df *ABS*	00000000 util_packet_handling.c
00000000 l    df *ABS*	00000000 lib2-divmod.c
0000a888 l     F .text	00000074 udivmodsi4
00000000 l    df *ABS*	00000000 exit.c
00000000 l    df *ABS*	00000000 fflush.c
00000000 l    df *ABS*	00000000 findfp.c
0000ac08 l     F .text	00000008 __fp_lock
0000ac10 l     F .text	00000008 __fp_unlock
00000000 l    df *ABS*	00000000 fprintf.c
00000000 l    df *ABS*	00000000 fputs.c
00000000 l    df *ABS*	00000000 fvwrite.c
00000000 l    df *ABS*	00000000 fwalk.c
00000000 l    df *ABS*	00000000 impure.c
0001bb84 l     O .rwdata	00000400 impure_data
00000000 l    df *ABS*	00000000 mallocr.c
00000000 l    df *ABS*	00000000 memchr.c
00000000 l    df *ABS*	00000000 memcpy.c
00000000 l    df *ABS*	00000000 memmove.c
00000000 l    df *ABS*	00000000 memset.c
00000000 l    df *ABS*	00000000 printf.c
00000000 l    df *ABS*	00000000 puts.c
00000000 l    df *ABS*	00000000 rand.c
00000000 l    df *ABS*	00000000 mallocr.c
00000000 l    df *ABS*	00000000 sbrkr.c
00000000 l    df *ABS*	00000000 stdio.c
00000000 l    df *ABS*	00000000 strcpy.c
00000000 l    df *ABS*	00000000 strlen.c
00000000 l    df *ABS*	00000000 vfprintf.c
0000cbb4 l     F .text	00000034 __sprint_r
0001b796 l     O .rodata	00000010 blanks.3515
0001b7a6 l     O .rodata	00000010 zeroes.3516
00000000 l    df *ABS*	00000000 writer.c
00000000 l    df *ABS*	00000000 wsetup.c
00000000 l    df *ABS*	00000000 __call_atexit.c
00000000 l    df *ABS*	00000000 closer.c
00000000 l    df *ABS*	00000000 dtoa.c
0000ede8 l     F .text	00000208 quorem
00000000 l    df *ABS*	00000000 fclose.c
00000000 l    df *ABS*	00000000 mallocr.c
00000000 l    df *ABS*	00000000 int_errno.c
00000000 l    df *ABS*	00000000 locale.c
0001b7d8 l     O .rodata	00000030 lconv
00000000 l    df *ABS*	00000000 lseekr.c
00000000 l    df *ABS*	00000000 makebuf.c
00000000 l    df *ABS*	00000000 mprec.c
0001b920 l     O .rodata	0000000c p05.2435
00000000 l    df *ABS*	00000000 readr.c
00000000 l    df *ABS*	00000000 s_isinfd.c
00000000 l    df *ABS*	00000000 s_isnand.c
00000000 l    df *ABS*	00000000 strcmp.c
00000000 l    df *ABS*	00000000 mallocr.c
00000000 l    df *ABS*	00000000 fstatr.c
00000000 l    df *ABS*	00000000 isattyr.c
00000000 l    df *ABS*	00000000 libgcc2.c
00000000 l    df *ABS*	00000000 libgcc2.c
00000000 l    df *ABS*	00000000 libgcc2.c
00000000 l    df *ABS*	00000000 fp-bit.c
00012cb0 l     F .text	00000354 _fpadd_parts
00000000 l    df *ABS*	00000000 fp-bit.c
00000000 l    df *ABS*	00000000 fp-bit.c
00000000 l    df *ABS*	00000000 fp-bit.c
00000000 l    df *ABS*	00000000 fp-bit.c
00000000 l    df *ABS*	00000000 fp-bit.c
00000000 l    df *ABS*	00000000 fp-bit.c
00000000 l    df *ABS*	00000000 fp-bit.c
00000000 l    df *ABS*	00000000 fp-bit.c
00000000 l    df *ABS*	00000000 fp-bit.c
00000000 l    df *ABS*	00000000 fp-bit.c
00000000 l    df *ABS*	00000000 fp-bit.c
00000000 l    df *ABS*	00000000 libgcc2.c
00000000 l    df *ABS*	00000000 libgcc2.c
00000000 l    df *ABS*	00000000 fp-bit.c
00000000 l    df *ABS*	00000000 fp-bit.c
00000000 l    df *ABS*	00000000 fp-bit.c
00000000 l    df *ABS*	00000000 libgcc2.c
00000000 l    df *ABS*	00000000 libgcc2.c
00000000 l    df *ABS*	00000000 alt_close.c
00000000 l    df *ABS*	00000000 alt_dev.c
00013fe0 l     F .text	00000008 alt_dev_null_write
00000000 l    df *ABS*	00000000 alt_errno.c
00000000 l    df *ABS*	00000000 alt_exit.c
00000000 l    df *ABS*	00000000 alt_fstat.c
00000000 l    df *ABS*	00000000 alt_irq_register.c
00000000 l    df *ABS*	00000000 alt_irq_vars.c
00000000 l    df *ABS*	00000000 alt_isatty.c
00000000 l    df *ABS*	00000000 alt_load.c
00000000 l    df *ABS*	00000000 alt_lseek.c
00000000 l    df *ABS*	00000000 alt_main.c
00000000 l    df *ABS*	00000000 alt_read.c
000143b8 l     F .text	00000020 alt_get_errno
00000000 l    df *ABS*	00000000 alt_release_fd.c
00000000 l    df *ABS*	00000000 alt_sbrk.c
0001c5a8 l     O .rwdata	00000004 heap_end
00000000 l    df *ABS*	00000000 alt_usleep.c
00000000 l    df *ABS*	00000000 alt_write.c
000145c0 l     F .text	00000020 alt_get_errno
00000000 l    df *ABS*	00000000 alt_env_lock.c
0001c5ac l     O .rwdata	00000004 lockid
0001d190 l     O .bss	00000004 locks
00000000 l    df *ABS*	00000000 alt_malloc_lock.c
0001c5b0 l     O .rwdata	00000004 lockid
0001d198 l     O .bss	00000004 locks
00000000 l    df *ABS*	00000000 os_core.c
00014810 l     F .text	0000003c OS_SchedNew
00000000 l    df *ABS*	00000000 os_dbg.c
00000000 l    df *ABS*	00000000 os_flag.c
00015894 l     F .text	0000009c OS_FlagBlock
00015d98 l     F .text	00000090 OS_FlagTaskRdy
00000000 l    df *ABS*	00000000 os_mem.c
00000000 l    df *ABS*	00000000 os_mutex.c
000167ac l     F .text	000000b8 OSMutex_RdyAtPrio
00000000 l    df *ABS*	00000000 os_q.c
00000000 l    df *ABS*	00000000 os_sem.c
00000000 l    df *ABS*	00000000 os_task.c
00000000 l    df *ABS*	00000000 os_time.c
00000000 l    df *ABS*	00000000 alt_sys_init.c
0001c540 l     O .rwdata	0000002c jtag_uart_cpu_s1
00000000 l    df *ABS*	00000000 altera_avalon_jtag_uart_fd.c
00000000 l    df *ABS*	00000000 altera_avalon_jtag_uart_read.c
00000000 l    df *ABS*	00000000 altera_avalon_jtag_uart_write.c
00000000 l    df *ABS*	00000000 altera_avalon_timer_sc.c
00019328 l     F .text	0000003c alt_avalon_timer_sc_irq
00000000 l    df *ABS*	00000000 alt_busy_sleep.c
00000000 l    df *ABS*	00000000 alt_dcache_flush_all.c
00000000 l    df *ABS*	00000000 alt_dev_llist_insert.c
00000000 l    df *ABS*	00000000 alt_icache_flush_all.c
00000000 l    df *ABS*	00000000 alt_io_redirect.c
00019488 l     F .text	00000070 alt_open_fd.constprop.0
00000000 l    df *ABS*	00000000 alt_open.c
00000000 l    df *ABS*	00000000 alt_tick.c
00000000 l    df *ABS*	00000000 altera_nios2_qsys_irq.c
00000000 l    df *ABS*	00000000 os_cpu_a.o
00000040 l       *ABS*	00000000 OSCtxSw_SWITCH_PC
00000000 l    df *ABS*	00000000 os_cpu_c.c
00000014 l       *ABS*	00000000 OSTCBNext_OFFSET
00000032 l       *ABS*	00000000 OSTCBPrio_OFFSET
00000000 l       *ABS*	00000000 OSTCBStkPtr_OFFSET
00000000 l    df *ABS*	00000000 alt_find_dev.c
00000000 l    df *ABS*	00000000 alt_find_file.c
00000000 l    df *ABS*	00000000 alt_get_fd.c
00000000 l    df *ABS*	00000000 alt_icache_flush.c
00000000 l    df *ABS*	00000000 memcmp.c
00000000 l    df *ABS*	00000000 libgcc2.c
00000000 l    df *ABS*	00000000 
00008a88 g     F .text	00000114 NS_init
00001fe4 g     F .text	00000014 mca_dprintf
00011c8c g     F .text	00000074 _mprec_log10
00004b5c g     F .text	000000ac mcapi_trans_channel_type
0001c5da g     O .rwdata	00000002 OSTaskNameSize
0000a774 g     F .text	00000058 pack_get_64
00001554 g     F .text	000000e0 mcapi_sclchan_connect_i
00011d7c g     F .text	00000084 __any_on
00012098 g     F .text	00000064 _isatty_r
0001b808 g     O .rodata	00000028 __mprec_tinytens
00014320 g     F .text	00000098 alt_main
0000ca94 g     F .text	00000094 strcpy
0001d224 g     O .bss	00013ea0 mcapi_db_impl
000312e4 g     O .bss	00002000 PH_FIFO2_RcvTask_stk
00013ed8 g     F .text	00000044 __ashldi3
0000c1e0 g     F .text	00000084 _puts_r
000077b8 g     F .text	000000f0 mcapi_trans_msg_send
00042eb8 g     O .bss	00000100 alt_irq
00010c44 g     F .text	0000006c _lseek_r
0001672c g     F .text	00000080 OS_MemInit
0001c630 g       *ABS*	00000000 __flash_rwdata_start
000191f4 g     F .text	00000024 OSTimeSet
0001d0fc g     O .bss	00000004 semAlmostFull_fifo_1
00000a28 g     F .text	00000094 mcapi_endpoint_delete
00013550 g     F .text	0000005c __eqdf2
0001511c g     F .text	00000328 OSEventPendMulti
00042fb8 g       *ABS*	00000000 __alt_heap_start
00019a60 g     F .text	00000004 OSTaskCreateHook
000332e4 g     O .bss	00002000 PH_FIFO1_RcvTask_stk
0000c1a4 g     F .text	0000003c printf
0001c602 g     O .rwdata	00000002 OSMboxEn
00001e04 g     F .text	000000c4 mcapi_wait
00014880 g     F .text	0000003c OSIntEnter
00006c20 g     F .text	000000d8 mcapi_trans_wait_any
00006184 g     F .text	00000024 mcapi_trans_get_node_num
0000ca30 g     F .text	0000005c __sseek
0000ac98 g     F .text	0000010c __sinit
0001c5f2 g     O .rwdata	00000002 OSQEn
00010b68 g     F .text	0000009c _setlocale_r
000049f4 g     F .text	000000b4 mcapi_trans_recv_endpoint
0000ac24 g     F .text	00000064 __sfmoreglue
00001634 g     F .text	000000d8 mcapi_sclchan_recv_open_i
000147b8 g     F .text	00000058 __malloc_unlock
000080d4 g     F .text	00000098 mcapi_trans_msg_recv
00019a6c g     F .text	00000004 OSTaskStatHook
00000190 g     F .text	0000041c mcapi_display_status
00006dfc g     F .text	000001c0 mcapi_trans_send_have_lock
00002860 g     F .text	00000080 mcapi_trans_encode_handle
0001d1a0 g     O .bss	00000001 OSLockNesting
0000272c g     F .text	00000134 mcapi_trans_add_domain_and_node
00000740 g     F .text	0000003c mcapi_finalize
00008b9c g     F .text	00000230 NS_getRemoteEndpoint_request
00001ff8 g     F .text	000000c0 mcapi_trans_remove_request_have_lock
00000e9c g     F .text	000000b4 mcapi_pktchan_connect_i
000026c0 g     F .text	0000006c mcapi_trans_finalize
00001f64 g     F .text	0000005c mcapi_cancel
0001c5b4 g     O .rwdata	00000002 OSDataSize
0001d1a1 g     O .bss	00000001 OSRunning
000352e4 g     O .bss	00002000 node2_recvMSG_from_node1_task_stk
000014b4 g     F .text	000000a0 mcapi_pktchan_send_close_i
0000a34c g     F .text	00000158 node2_sendMSG_to_node0_task
0001d100 g     O .bss	00000004 bridge_base_fifo_2
0000bf74 g     F .text	00000128 memmove
00002ea4 g     F .text	00000160 mcapi_trans_connect_channel_have_lock
00019a74 g     F .text	00000004 OSInitHookBegin
000310c4 g     O .bss	00000020 callIDs
0001d0e0 g     O .bss	00000004 my_mcapi_nindex
0001c5bc g     O .rwdata	00000002 OSTmrSize
0000ac88 g     F .text	00000010 _cleanup
00008454 g     F .text	000002e0 mcapi_trans_pktchan_recv_close_i
00010e58 g     F .text	000000a8 _Balloc
00002528 g     F .text	00000030 mcapi_trans_close_channel_have_lock
000024f4 g     F .text	00000034 mcapi_trans_open_channel_have_lock
0001d1a4 g     O .bss	00000004 OSIdleCtr
0001d12c g     O .bss	00000004 prio
00009518 g     F .text	000000fc NS_layer_receive
00013608 g     F .text	00000064 __gtdf2
00019888 g       .text	00000000 OSStartTsk
00000000  w      *UND*	00000000 __errno
00015718 g     F .text	00000178 OS_TCBInit
000022c4 g     F .text	00000008 mcapi_trans_valid_node
00000000 g     F .entry	0000001c __reset
00005b60 g     F .text	00000170 mcapi_trans_endpoint_create
0000463c g     F .text	00000004 mcapi_trans_sclchan_recv_isopen
0001c5b6 g     O .rwdata	00000002 OSTmrWheelTblSize
00000654 g     F .text	00000048 mcapi_node_init_attributes
00000020 g       *ABS*	00000000 __flash_exceptions_start
0001c616 g     O .rwdata	00000002 OSEventSize
000099ec g     F .text	00000028 cpu_fifo_bridge_init
0001d1a8 g     O .bss	00000001 OSPrioHighRdy
00012030 g     F .text	00000068 _fstat_r
00009854 g     F .text	00000198 PH_send_request
00019a64 g     F .text	00000004 OSTaskDelHook
0001d16c g     O .bss	00000004 errno
00008dcc g     F .text	0000013c NS_getRemoteEndpoint_response
00005de8 g     F .text	000000a8 mcapi_trans_endpoint_exists_
00019868 g       .text	00000000 OSStartHighRdy
00018d5c g     F .text	00000164 OSTaskCreateExt
000372e4 g     O .bss	00002000 init_task_stk
00015c74 g     F .text	00000028 OSFlagPendGetFlagsRdy
0001c5d6 g     O .rwdata	00000002 OSTaskStatStkSize
00009108 g     F .text	000000ec NS_endpointChannelIsopen_response
00015930 g     F .text	00000148 OSFlagAccept
00017414 g     F .text	00000050 OSQFlush
00006280 g     F .text	00000314 print_queue
00017104 g     F .text	00000094 OSQAccept
0001d188 g     O .bss	00000004 alt_argv
0002456c g       *ABS*	00000000 _gp
000144d0 g     F .text	000000f0 usleep
0001833c g     F .text	000000fc OSTaskCreate
000180ac g     F .text	00000290 OSTaskChangePrio
0001d19c g     O .bss	00000004 alt_heapsem
00004058 g     F .text	00000100 mcapi_trans_endpoint_get_attribute
00003e34 g     F .text	000000ac mcapi_trans_pktchan_available
00003004 g     F .text	000001d8 cancel_receive_request_have_lock
00015890 g     F .text	00000004 OSDebugInit
00018438 g     F .text	00000258 OSTaskDel
00016864 g     F .text	000000c4 OSMutexAccept
000059b8 g     F .text	00000058 mcapi_trans_get_database_indices
000006ec g     F .text	00000054 mcapi_node_get_attribute
0001c398 g     O .rwdata	00000180 alt_fd_list
0003f2e4 g     O .bss	00000370 OSFlagTbl
000091f4 g     F .text	00000178 NS_sendDataToRemote_request
00014c70 g     F .text	0000003c OS_EventTaskRemove
00019a84 g     F .text	00000070 alt_find_dev
0000be7c g     F .text	000000f8 memcpy
00002640 g     F .text	00000080 mcapi_trans_pktchan_free
0001c5ec g     O .rwdata	00000002 OSRdyTblSize
0000ac18 g     F .text	0000000c _cleanup_r
0001372c g     F .text	000000d4 __floatsidf
000194f8 g     F .text	00000078 alt_io_redirect
000136d0 g     F .text	0000005c __ltdf2
00007158 g     F .text	000002e0 mcapi_trans_pktchan_send_i
000022f4 g     F .text	00000008 mcapi_trans_valid_buffer_param
00004640 g     F .text	00000004 mcapi_trans_pktchan_send_isopen
000096c0 g     F .text	000000ac PH_FIFO1_RcvTask
00009a14 g     F .text	00000280 PH_init
00002320 g     F .text	00000004 mcapi_trans_signal_handler
0000c264 g     F .text	00000014 puts
0001d130 g     O .bss	00000004 node2_recvEP_from_node0
00015470 g     F .text	000000a0 OSEventNameGet
0001c608 g     O .rwdata	00000002 OSFlagMax
000087cc g     F .text	000000c4 NS_get_serviceRequestID
000022ec g     F .text	00000008 mcapi_trans_valid_version_param
00009614 g     F .text	000000ac PH_FIFO2_RcvTask
00016bf4 g     F .text	000002f4 OSMutexPend
00011be8 g     F .text	000000a4 __ratio
000148bc g     F .text	000000a8 OSIntExit
000078a8 g     F .text	000001dc mcapi_trans_send
0001d0dc g     O .bss	00000004 my_mcapi_dindex
0001c5ce g     O .rwdata	00000002 OSTCBSize
0001d1a9 g     O .bss	00000001 OSPrioCur
00019298 g     F .text	0000005c altera_avalon_jtag_uart_read
0000c178 g     F .text	0000002c _printf_r
0000a9a8 g     F .text	00000008 __udivsi3
00014110 g     F .text	00000080 isatty
0001d134 g     O .bss	00000004 node0_sendEP_to_node1
0001c5e8 g     O .rwdata	00000002 OSStkWidth
0001d138 g     O .bss	00000004 node0_recvEP_from_node2
00004158 g     F .text	000000a8 mcapi_trans_connected
0001d13c g     O .bss	00000004 node1_sendEP_to_node0
0001b858 g     O .rodata	000000c8 __mprec_tens
0001c5f4 g     O .rwdata	00000002 OSPtrSize
0000120c g     F .text	000000b8 mcapi_pktchan_recv_i
00010c04 g     F .text	0000000c __locale_charset
00002558 g     F .text	00000058 mcapi_trans_access_database_pre
0001d120 g     O .bss	00000004 node2_recvMSG_from_node0_thread_flag
0001c614 g     O .rwdata	00000002 OSEventTblSize
00002154 g     F .text	000000ac mcapi_trans_init_indexed_array_have_lock
00007ea4 g     F .text	00000084 mcapi_trans_pktchan_recv
00019cf0 g     F .text	00000084 __fixunsdfsi
000197dc g       .text	00000000 OSCtxSw
00019c3c g     F .text	00000038 alt_icache_flush
0001d140 g     O .bss	00000004 node2_sendEP_to_node1
0000170c g     F .text	000000d8 mcapi_sclchan_send_open_i
0001d168 g     O .bss	00000004 __malloc_top_pad
0001d1ac g     O .bss	00000004 OSTCBList
00003ee0 g     F .text	000000ac mcapi_trans_msg_available
0001d17c g     O .bss	00000004 alt_fd_list_lock
0000077c g     F .text	0000004c mcapi_domain_id_get
0001c588 g     O .rwdata	00000004 __mb_cur_max
00000e38 g     F .text	00000064 mcapi_msg_available
00010c10 g     F .text	0000000c _localeconv_r
00011258 g     F .text	0000003c __i2b
0000afbc g     F .text	000004e4 __sfvwrite_r
0003f654 g     O .bss	00000c30 OSMemTbl
0001d1b0 g     O .bss	00000001 OSTickStepState
00009c98 g     F .text	0000004c check_status
00006624 g     F .text	000000c4 mcapi_trans_compact_queue
0000c8f0 g     F .text	00000064 _sbrk_r
000028e0 g     F .text	00000168 mcapi_trans_endpoint_get_
0001c5f0 g     O .rwdata	00000002 OSQMax
00016a30 g     F .text	000001c4 OSMutexDel
00040284 g     O .bss	00000800 OSTaskStatStk
00016524 g     F .text	00000090 OSMemNameGet
0001c610 g     O .rwdata	00000002 OSFlagEn
00011e00 g     F .text	0000006c _read_r
00007a84 g     F .text	00000090 mcapi_trans_empty_queue
0001c5ca g     O .rwdata	00000002 OSTimeTickHookEn
0001d118 g     O .bss	00000004 init_thread_flag
000176dc g     F .text	000000c0 OSQPost
00015d60 g     F .text	00000038 OS_FlagUnlink
00003c14 g     F .text	00000174 mcapi_trans_endpoint_get_i
0001c38c g     O .rwdata	0000000c __lc_ctype
0001c58c g     O .rwdata	00000004 alt_max_fd
0000118c g     F .text	00000080 mcapi_pktchan_send
0001501c g     F .text	00000024 OS_MemCopy
00015040 g     F .text	00000088 OS_Sched
00013cc0 g     F .text	00000104 __unpack_d
00004570 g     F .text	000000c8 mcapi_trans_endpoint_channel_isopen
0001060c g     F .text	0000013c _fclose_r
000164c8 g     F .text	0000005c OSMemGet
00001fc0 g     F .text	00000024 MCAPI_ASSERT
000022bc g     F .text	00000008 mcapi_trans_valid_port
00018834 g     F .text	00000114 OSTaskNameSet
000392e4 g     O .bss	00002000 node2_recvMSG_from_node0_task_stk
0001d104 g     O .bss	00000004 mutexSend
0000abd8 g     F .text	00000030 fflush
0001d164 g     O .bss	00000004 __malloc_max_sbrked_mem
0001d1b4 g     O .bss	00000004 OSCtxSwCtr
00019a70 g     F .text	00000004 OSTimeTickHook
00014088 g     F .text	00000088 alt_irq_register
0001c606 g     O .rwdata	00000002 OSFlagNameSize
00004aa8 g     F .text	000000b4 mcapi_trans_send_endpoint
00008734 g     F .text	0000003c mcapi_trans_full_queue
00014cac g     F .text	00000050 OS_EventTaskRemoveMulti
00013004 g     F .text	00000054 __adddf3
00001a60 g     F .text	00000074 mcapi_sclchan_recv_uint32
000310e4 g     O .bss	00000020 sem_serviceRequest
00014bf4 g     F .text	0000007c OS_EventTaskWaitMulti
0001195c g     F .text	00000148 __b2d
00000bfc g     F .text	000000c0 mcapi_msg_send
0001c5ee g     O .rwdata	00000002 OSQSize
00012724 g     F .text	0000058c __umoddi3
00014294 g     F .text	0000008c lseek
00017ce4 g     F .text	00000154 OSSemPend
00003d88 g     F .text	000000ac mcapi_trans_sclchan_available_i
0001c578 g     O .rwdata	00000004 _global_impure_ptr
0000c2f4 g     F .text	000005fc _realloc_r
0001c604 g     O .rwdata	00000002 OSLowestPrio
00042fb8 g       *ABS*	00000000 __bss_end
00019a80 g     F .text	00000004 OSTCBInitHook
0001c5be g     O .rwdata	00000002 OSTmrCfgTicksPerSec
0001971c g     F .text	000000b8 alt_tick
0000a654 g     F .text	00000034 pack_add_flt
00005b28 g     F .text	00000038 mcapi_trans_whoami
0001215c g     F .text	000005c8 __udivdi3
0001c61c g     O .rwdata	00000002 OSEventEn
0001b830 g     O .rodata	00000028 __mprec_bigtens
0001103c g     F .text	00000104 __s2b
0001c5c2 g     O .rwdata	00000002 OSTmrCfgNameSize
000138d4 g     F .text	0000011c __floatunsidf
000116fc g     F .text	00000058 __mcmp
00006fbc g     F .text	0000019c mcapi_trans_sclchan_send
0000a6c4 g     F .text	00000024 pack_get_16
0000aeb0 g     F .text	00000018 __fp_lock_all
00001d68 g     F .text	0000009c mcapi_test
00015cec g     F .text	00000074 OS_FlagInit
00000000 g       *ABS*	00000000 __alt_mem_onchip_sram
000196e8 g     F .text	00000034 alt_alarm_stop
000005b0 g     F .text	00000004 mcapi_display_state
00001968 g     F .text	00000080 mcapi_sclchan_send_uint8
0001c5e0 g     O .rwdata	00000002 OSTaskIdleStkSize
0001d180 g     O .bss	00000004 alt_irq_active
00017abc g     F .text	00000044 OSSemAccept
00016668 g     F .text	00000060 OSMemPut
0001d11c g     O .bss	00000004 node2_recvMSG_from_node1_thread_flag
000043f8 g     F .text	000000a8 mcapi_trans_valid_pktchan_send_handle
000017e4 g     F .text	00000074 mcapi_sclchan_send_uint64
000163fc g     F .text	000000cc OSMemCreate
0001d1b8 g     O .bss	00000004 OSIdleCtrMax
0000816c g     F .text	000002e8 mcapi_trans_sclchan_recv_close_i
000022dc g     F .text	00000008 mcapi_trans_valid_priority
000000ec g     F .exceptions	00000068 alt_irq_handler
0001c518 g     O .rwdata	00000028 alt_dev_null
0001c5cc g     O .rwdata	00000002 OSTicksPerSec
00002e58 g     F .text	0000004c mcapi_trans_decode_handle
00002248 g     F .text	00000024 mcapi_trans_node_init_attributes
000197dc g       .text	00000000 OSIntCtxSw
0001940c g     F .text	00000004 alt_dcache_flush_all
00011140 g     F .text	00000068 __hi0bits
00013800 g     F .text	000000d4 __fixdfsi
00004e58 g     F .text	000001dc mcapi_trans_sclchan_send_close_i
00009ce4 g     F .text	00000278 init_task
0000a6ac g     F .text	0000000c pack_get_8
00005cd0 g     F .text	000000ac mcapi_trans_num_endpoints
0001d1bc g     O .bss	00000004 OSTCBFreeList
0001c630 g       *ABS*	00000000 __ram_rwdata_end
00017e38 g     F .text	000000ec OSSemPendAbort
00005a10 g     F .text	00000118 mcapi_trans_initialize
0001c590 g     O .rwdata	00000008 alt_dev_list
00002364 g     F .text	00000190 mcapi_trans_recv_have_lock_
000145e0 g     F .text	00000084 write
0001d144 g     O .bss	00000004 node1_recvEP_from_node2
0001d128 g     O .bss	00000004 node2_sendMSG_to_node0_thread_flag
0001c5c8 g     O .rwdata	00000002 OSVersionNbr
0000a688 g     F .text	00000024 pack_add_adr
0001bb84 g       *ABS*	00000000 __ram_rodata_end
00014008 g     F .text	00000080 fstat
0000af08 g     F .text	00000024 fprintf
00002a48 g     F .text	000000ac mcapi_trans_endpoint_get_have_lock
00013e94 g     F .text	00000044 __lshrdi3
0001c620 g     O .rwdata	00000004 OSEndiannessTest
00011474 g     F .text	0000012c __pow5mult
0001d178 g     O .bss	00000004 __nlocale_changed
0000a9b0 g     F .text	00000008 __umodsi3
00004d30 g     F .text	00000128 mcapi_trans_pktchan_connect_i
00005f6c g     F .text	000001f0 mcapi_trans_node_get_attribute
0000a5d4 g     F .text	00000040 pack_add_64
0001c60e g     O .rwdata	00000002 OSFlagGrpSize
0000936c g     F .text	00000104 NS_sendDataToRemote_indication
00042fb8 g       *ABS*	00000000 end
000089a8 g     F .text	000000d8 NS_releaseCallID
0001d148 g     O .bss	00000004 node1_recvEP_from_node0
00001020 g     F .text	000000d0 mcapi_pktchan_send_open_i
0001568c g     F .text	0000008c OS_TaskStat
00004644 g     F .text	00000004 mcapi_trans_pktchan_recv_isopen
00002200 g     F .text	00000048 mcapi_trans_initialize_database
0001d0f8 g     O .bss	00000004 reentMutex
00058000 g       *ABS*	00000000 __alt_stack_pointer
00019364 g     F .text	00000030 alt_avalon_timer_sc_init
000139f0 g     F .text	000000ac __clzsi2
000018f0 g     F .text	00000078 mcapi_sclchan_send_uint16
000192f4 g     F .text	00000034 altera_avalon_jtag_uart_write
0001c574 g     O .rwdata	00000004 mcapi_debug
0000aea0 g     F .text	00000004 __sfp_lock_acquire
0000bd84 g     F .text	000000f8 memchr
00014e10 g     F .text	0000001c OS_MemClr
00007438 g     F .text	00000084 mcapi_trans_pktchan_send
0000cbe8 g     F .text	00001df8 ___vfprintf_internal_r
000198ac g     F .text	000001b4 OSTaskStkInit
0000a70c g     F .text	00000034 pack_get_32
00010898 g     F .text	000002d0 _free_r
00014cfc g     F .text	000000f8 OS_EventTaskRdy
00008a80 g     F .text	00000008 NS_layer_exit
0000ebe4 g     F .text	000001a0 __call_exitprocs
000048ac g     F .text	000000a0 mcapi_trans_valid_endpoints
0001d1c0 g     O .bss	00000001 OSCPUUsage
0000a54c g     F .text	0000000c pack_add_8
0001d174 g     O .bss	00000004 __mlocale_changed
0000a6e8 g     F .text	00000024 pack_get_u16
0001c580 g     O .rwdata	00000004 __malloc_sbrk_base
00000154 g     F .text	0000003c _start
0001d1f8 g     O .bss	00000004 _alt_tick_rate
00017464 g     F .text	00000190 OSQPend
00007f28 g     F .text	000001ac mcapi_trans_msg_recv_i
00018ec0 g     F .text	0000008c OSTimeDly
0000c290 g     F .text	00000064 rand
000115a0 g     F .text	0000015c __lshift
00005220 g     F .text	000001ec mcapi_trans_sclchan_recv_open_i
0001d1f4 g     O .bss	00000004 _alt_nticks
000143d8 g     F .text	00000088 read
00019238 g     F .text	00000038 alt_sys_init
000010f0 g     F .text	0000009c mcapi_pktchan_send_i
0001d1c1 g     O .bss	00000001 OSTaskCtr
0000226c g     F .text	00000050 mcapi_trans_node_set_attribute
0001d0e8 g     O .bss	00000004 global_rwl
000031dc g     F .text	00000114 mcapi_trans_cancel
00001cc8 g     F .text	000000a0 mcapi_sclchan_send_close_i
00000cbc g     F .text	000000cc mcapi_msg_recv_i
00018f4c g     F .text	00000184 OSTimeDlyHMSM
000019e8 g     F .text	00000078 mcapi_sclchan_recv_uint64
00011294 g     F .text	000001e0 __multiply
0000399c g     F .text	00000278 setup_request_have_lock
0001bb84 g       *ABS*	00000000 __ram_rwdata_start
0001c570 g     O .rwdata	00000004 my_node_id
00019d74 g       *ABS*	00000000 __ram_rodata_start
0001d1fc g     O .bss	00000028 __malloc_current_mallinfo
0001c61a g     O .rwdata	00000002 OSEventMax
000012c4 g     F .text	000000b0 mcapi_pktchan_recv
0000a824 g     F .text	00000034 pack_get_flt
00011aa4 g     F .text	00000144 __d2b
00017f24 g     F .text	000000a0 OSSemPost
0001d0e4 g     O .bss	00000001 locked
00004350 g     F .text	000000a8 mcapi_trans_valid_pktchan_recv_handle
000097e0 g     F .text	00000074 PH_FIFO1_ISR
00003f8c g     F .text	000000cc mcapi_trans_endpoint_delete
000150c8 g     F .text	00000054 OSSchedUnlock
0001d0ec g     O .bss	00000004 DatabaseMutex
000008e4 g     F .text	000000ac mcapi_endpoint_get_i
00019270 g     F .text	00000014 altera_avalon_jtag_uart_read_fd
00019b9c g     F .text	000000a0 alt_get_fd
0001d1c4 g     O .bss	00000004 OSMemFreeList
000149fc g     F .text	00000064 OSStatInit
00019394 g     F .text	00000078 alt_busy_sleep
00015c9c g     F .text	00000050 OSFlagQuery
00013dc4 g     F .text	000000d0 __fpcmp_parts_d
00002304 g     F .text	0000001c mcapi_trans_endpoint_set_attribute
00001b48 g     F .text	0000007c mcapi_sclchan_recv_uint8
0001c5e4 g     O .rwdata	00000002 OSTaskCreateExtEn
0000ed84 g     F .text	00000064 _close_r
000055e8 g     F .text	000001e8 mcapi_trans_pktchan_send_open_i
0001d14c g     O .bss	00000004 node1_sendEP_to_node2
00019c74 g     F .text	0000007c memcmp
00014b80 g     F .text	00000004 OS_Dummy
00042fb8 g       *ABS*	00000000 __alt_stack_base
00001414 g     F .text	000000a0 mcapi_pktchan_recv_close_i
0003b2e4 g     O .bss	00002000 node2_sendMSG_to_node0_task_stk
0000ea70 g     F .text	00000174 __swsetup_r
00040a84 g     O .bss	000001e0 OSQTbl
0001339c g     F .text	000001b4 __divdf3
0000ada4 g     F .text	000000fc __sfp
00011d00 g     F .text	0000007c __copybits
000022cc g     F .text	00000008 mcapi_trans_valid_domain
0001bf84 g     O .rwdata	00000408 __malloc_av_
0000aeac g     F .text	00000004 __sinit_lock_release
0000a58c g     F .text	00000024 pack_add_32
0000a5b0 g     F .text	00000024 pack_add_u32
0001d1c8 g     O .bss	00000004 OSTCBHighRdy
000130b8 g     F .text	000002e4 __muldf3
0000c954 g     F .text	00000054 __sread
00000814 g     F .text	000000d0 mcapi_endpoint_create
0001d1cc g     O .bss	00000004 OSQFreeList
000066e8 g     F .text	00000128 mcapi_trans_pop_queue
00019af4 g     F .text	000000a8 alt_find_file
00009c94 g     F .text	00000004 sys_stop
00019410 g     F .text	0000006c alt_dev_llist_insert
0001470c g     F .text	000000ac __malloc_lock
0000aee0 g     F .text	00000028 _fprintf_r
00014484 g     F .text	0000004c sbrk
00000f50 g     F .text	000000d0 mcapi_pktchan_recv_open_i
0001552c g     F .text	000000c4 OSEventNameSet
0000a9f0 g     F .text	000001e8 _fflush_r
00002348 g     F .text	0000001c mcapi_trans_valid_request_handle
00006a48 g     F .text	000001d8 mcapi_trans_test_i
00011f74 g     F .text	000000bc _calloc_r
0001d1d0 g     O .bss	00000001 OSRdyGrp
0003d2e4 g     O .bss	00002000 node2_sendMSG_to_node1_task_stk
0001d0dc g       *ABS*	00000000 __bss_start
0000c09c g     F .text	000000dc memset
0000a4a4 g     F .text	000000a8 main
0000a0a4 g     F .text	00000154 node2_recvMSG_from_node1_task
0001d184 g     O .bss	00000004 alt_envp
0001d160 g     O .bss	00000004 __malloc_max_total_mem
00006810 g     F .text	00000238 check_receive_request_have_lock
00019284 g     F .text	00000014 altera_avalon_jtag_uart_write_fd
0000c278 g     F .text	00000018 srand
0001ba84 g     O .rodata	00000100 OSUnMapTbl
0001c5ea g     O .rwdata	00000002 OSSemEn
00015e28 g     F .text	000001b4 OSFlagPost
0000ca8c g     F .text	00000008 __sclose
00058000 g       *ABS*	00000000 __alt_heap_limit
00004790 g     F .text	0000011c check_open_channel_request_have_lock
00010748 g     F .text	00000014 fclose
00014b84 g     F .text	00000070 OS_EventTaskWait
000155f0 g     F .text	0000009c OS_TaskStatStkChk
00018690 g     F .text	000000b4 OSTaskDelReq
0000eff0 g     F .text	0000161c _dtoa_r
0000b600 g     F .text	00000784 _malloc_r
00016928 g     F .text	00000108 OSMutexCreate
00005034 g     F .text	000001ec mcapi_trans_sclchan_send_open_i
0001c5a0 g     O .rwdata	00000004 alt_errno
000044a0 g     F .text	000000d0 mcapi_trans_channel_connected
000149a8 g     F .text	00000054 OSStart
000146e4 g     F .text	00000028 __env_unlock
0000b4a0 g     F .text	000000a8 _fwalk
00018948 g     F .text	0000010c OSTaskResume
000166c8 g     F .text	00000064 OSMemQuery
0001c5d8 g     O .rwdata	00000002 OSTaskStatEn
0000a558 g     F .text	0000000c pack_add_u8
000061a8 g     F .text	000000d8 mcapi_trans_endpoint_isowner
0001c5fe g     O .rwdata	00000002 OSMemMax
0001779c g     F .text	000000c4 OSQPostFront
0000976c g     F .text	00000074 PH_FIFO2_ISR
0000a8fc g     F .text	00000050 __divsi3
0001d1d1 g     O .bss	00000006 OSRdyTbl
0001c624 g     O .rwdata	00000002 OSDebugEn
0001b92c g     O .rodata	00000014 __thenan_df
0001075c g     F .text	0000013c _malloc_trim_r
0001c60c g     O .rwdata	00000002 OSFlagNodeSize
00009470 g     F .text	000000a8 NS_unlock_waiting_request
0001c5c4 g     O .rwdata	00000002 OSTmrCfgMax
00011ed0 g     F .text	000000a4 strcmp
00001bc4 g     F .text	00000064 mcapi_sclchan_available
00017198 g     F .text	000000f4 OSQCreate
00018744 g     F .text	000000f0 OSTaskNameGet
00009f5c g     F .text	00000148 node2_sendMSG_to_node1_task
00019d74 g       *ABS*	00000000 __flash_rodata_start
00017860 g     F .text	00000150 OSQPostOpt
00014a60 g     F .text	00000118 OSTimeTick
0001d108 g     O .bss	00000004 semAlmostFull_fifo_2
0000a1f8 g     F .text	00000154 node2_recvMSG_from_node0_task
0001c5dc g     O .rwdata	00000002 OSTaskMax
00017b00 g     F .text	0000008c OSSemCreate
0001c5b8 g     O .rwdata	00000002 OSTmrWheelSize
00017048 g     F .text	000000bc OSMutexQuery
000013d8 g     F .text	0000003c mcapi_pktchan_release
000135ac g     F .text	0000005c __nedf2
00001ad4 g     F .text	00000074 mcapi_sclchan_recv_uint16
0001c5e2 g     O .rwdata	00000002 OSTaskDelEn
000022d4 g     F .text	00000008 mcapi_trans_compatible_endpoint_attributes
00017fc4 g     F .text	00000080 OSSemQuery
0001728c g     F .text	00000188 OSQDel
000175f4 g     F .text	000000e8 OSQPendAbort
00019218 g     F .text	00000020 alt_irq_init
0001d10c g     O .bss	00000004 bridge_base_fifo_1
00014460 g     F .text	00000024 alt_release_fd
0001b940 g     O .rodata	00000100 __clz_tab
00005d7c g     F .text	0000006c mcapi_trans_initialized
0001d170 g     O .bss	00000004 _PathLocale
0001d150 g     O .bss	00000004 node2_recvEP_from_node1
00002604 g     F .text	0000003c mcapi_trans_yield_have_lock
000042a8 g     F .text	000000a8 mcapi_trans_valid_sclchan_send_handle
0000ea04 g     F .text	0000006c _write_r
00014964 g     F .text	00000044 OSSchedLock
00010c1c g     F .text	0000001c setlocale
00015a78 g     F .text	00000088 OSFlagCreate
0001c57c g     O .rwdata	00000004 _impure_ptr
0001d18c g     O .bss	00000004 alt_argc
0000494c g     F .text	000000a8 mcapi_trans_valid_endpoint
00001858 g     F .text	00000098 mcapi_sclchan_send_uint32
0001c612 g     O .rwdata	00000002 OSEventMultiEn
0001d154 g     O .bss	00000004 node2_sendEP_to_node0
00015fdc g     F .text	00000158 OSFlagDel
0001d1d8 g     O .bss	00000004 OSEventFreeList
00000020 g       .exceptions	00000000 alt_irq_entry
000118fc g     F .text	00000060 __ulp
00011e6c g     F .text	00000038 __isinfd
00016134 g     F .text	000002c8 OSFlagPend
0001c5c6 g     O .rwdata	00000002 OSTmrEn
0000aec8 g     F .text	00000018 __fp_unlock_all
00002324 g     F .text	00000024 mcapi_trans_decode_request_handle
0000a578 g     F .text	00000014 pack_add_u16
0001c598 g     O .rwdata	00000008 alt_fs_list
00000990 g     F .text	00000098 mcapi_endpoint_get
00015444 g     F .text	0000002c OS_StrCopy
00006594 g     F .text	00000090 mcapi_trans_push_queue
00007c7c g     F .text	000000d8 mcapi_trans_sclchan_recv
0001c56c g     O .rwdata	00000004 my_domain_id
0001d158 g     O .bss	00000004 node0_recvEP_from_node1
0001c5fc g     O .rwdata	00000002 OSMemNameSize
000057d0 g     F .text	000001e8 mcapi_trans_pktchan_recv_open_i
00019a78 g     F .text	00000004 OSInitHookEnd
00000020 g       *ABS*	00000000 __ram_exceptions_start
0001c5d0 g     O .rwdata	00000002 OSTCBPrioTblMax
00010c38 g     F .text	0000000c localeconv
0001c5d4 g     O .rwdata	00000002 OSTaskStatStkChkEn
00004648 g     F .text	00000148 check_close_channel_request_have_lock
0000393c g     F .text	00000060 mcapi_trans_display_state
0001c600 g     O .rwdata	00000002 OSMemEn
0001d0f6 g     O .bss	00000002 nextCallID
000074bc g     F .text	000002fc mcapi_trans_msg_send_i
0001c5f6 g     O .rwdata	00000002 OSMutexEn
0001d110 g     O .bss	00000004 bridge_irq_fifo_1
00001c28 g     F .text	000000a0 mcapi_sclchan_recv_close_i
0001c630 g       *ABS*	00000000 _edata
00008890 g     F .text	00000118 NS_getCallID
00000d88 g     F .text	000000b0 mcapi_msg_recv
0001d0f4 g     O .bss	00000002 callIDcount
00042fb8 g       *ABS*	00000000 _end
00005e90 g     F .text	000000dc mcapi_trans_endpoint_exists
0001d1dc g     O .bss	00000001 OSIntNesting
00000154 g       *ABS*	00000000 __ram_exceptions_end
0000a858 g     F .text	00000030 pack_get_adr
0000af2c g     F .text	00000074 _fputs_r
000190d0 g     F .text	00000100 OSTimeDlyResume
00015ba8 g     F .text	000000cc OSFlagNameSet
00018a54 g     F .text	000000f4 OSTaskStkChk
0001c5fa g     O .rwdata	00000002 OSMemSize
0000c9a8 g     F .text	00000088 __swrite
000032f0 g     F .text	0000064c mcapi_trans_display_state_have_lock
0001c584 g     O .rwdata	00000004 __malloc_trim_threshold
000197d4 g     F .text	00000008 altera_nios2_qsys_irq_init
0001d1e0 g     O .bss	00000004 OSTCBCur
0000a9b8 g     F .text	00000038 exit
0000a564 g     F .text	00000014 pack_add_16
00016ee8 g     F .text	00000160 OSMutexPost
0001c5f8 g     O .rwdata	00000002 OSMemTblSize
0000b548 g     F .text	000000b8 _fwalk_reent
0000069c g     F .text	00000050 mcapi_node_set_attribute
00011754 g     F .text	000001a8 __mdiff
0000a94c g     F .text	0000005c __modsi3
000025b0 g     F .text	00000054 mcapi_trans_access_database_post
000007c8 g     F .text	0000004c mcapi_node_id_get
000087a0 g     F .text	0000002c getIndex
00058000 g       *ABS*	00000000 __alt_data_end
00000020 g     F .exceptions	00000000 alt_exception
00001ec8 g     F .text	0000009c mcapi_wait_any
00004200 g     F .text	000000a8 mcapi_trans_valid_sclchan_recv_handle
0000aea4 g     F .text	00000004 __sfp_lock_release
0001d15c g     O .bss	00000004 node0_sendEP_to_node2
00014e2c g     F .text	000001f0 OSInit
00004c08 g     F .text	00000128 mcapi_trans_sclchan_connect_i
00018c70 g     F .text	000000c8 OSTaskQuery
00017a58 g     F .text	00000064 OS_QInit
00015510 g     F .text	0000001c OS_StrLen
000165b4 g     F .text	000000b4 OSMemNameSet
00007b14 g     F .text	00000168 mcapi_trans_recv_have_lock
0001c5de g     O .rwdata	00000002 OSTaskProfileEn
0001d1e4 g     O .bss	00000004 OSTime
000005ac g     F .text	00000004 mcapi_set_debug_level
00040c64 g     O .bss	00000800 OSTaskIdleStk
00011ea4 g     F .text	0000002c __isnand
00013fe8 g     F .text	00000020 _exit
00015b00 g     F .text	000000a8 OSFlagNameGet
000191d0 g     F .text	00000024 OSTimeGet
000120fc g     F .text	00000060 __muldi3
00010cb0 g     F .text	000001a8 __smakebuf_r
0000615c g     F .text	00000028 mcapi_trans_get_domain_num
00031104 g     O .bss	000001e0 serviceRequest
000022fc g     F .text	00000008 mcapi_trans_valid_size_param
0000cb28 g     F .text	0000008c strlen
00019a68 g     F .text	00000004 OSTaskSwHook
00019570 g     F .text	00000178 open
00041464 g     O .bss	00000c30 OSEventTbl
0001366c g     F .text	00000064 __gedf2
0000a7cc g     F .text	00000058 pack_get_u64
00042094 g     O .bss	00000d80 OSTCBTbl
00018044 g     F .text	00000068 OSSemSet
0001d124 g     O .bss	00000004 node2_sendMSG_to_node1_thread_flag
00002cf8 g     F .text	00000160 mcapi_trans_endpoint_create_
0001947c g     F .text	0000000c alt_icache_flush_all
00008f08 g     F .text	00000200 NS_endpointChannelIsopen_request
0000afa0 g     F .text	0000001c fputs
0001c5a4 g     O .rwdata	00000004 alt_priority_mask
00017b8c g     F .text	00000158 OSSemDel
00006da8 g     F .text	00000054 mcapi_trans_endpoint_get
0001d1e8 g     O .bss	00000004 OSFlagFreeList
0000540c g     F .text	000001dc mcapi_trans_pktchan_send_close_i
000005b4 g     F .text	000000a0 mcapi_initialize
0001c618 g     O .rwdata	00000002 OSEventNameSize
0000e9e0 g     F .text	00000024 __vfprintf_internal
0001d1ec g     O .bss	00000001 OSStatRdy
00002af4 g     F .text	00000204 check_get_endpt_request_have_lock
00042e14 g     O .bss	000000a4 OSTCBPrioTbl
00014664 g     F .text	00000080 __env_lock
0001c5d2 g     O .rwdata	00000002 OSTaskSwHookEn
00013058 g     F .text	00000060 __subdf3
0001d114 g     O .bss	00000004 bridge_irq_fifo_2
00007d54 g     F .text	00000150 mcapi_trans_pktchan_recv_i
00004638 g     F .text	00000004 mcapi_trans_sclchan_send_isopen
000111a8 g     F .text	000000b0 __lo0bits
0000a6b8 g     F .text	0000000c pack_get_u8
0001c628 g     O .rwdata	00000008 alt_alarm_list
00001374 g     F .text	00000064 mcapi_pktchan_available
0001c60a g     O .rwdata	00000002 OSFlagWidth
00000abc g     F .text	00000080 mcapi_endpoint_get_attribute
0000a740 g     F .text	00000034 pack_get_u32
00013f1c g     F .text	000000c4 close
0001d194 g     O .bss	00000004 alt_envsem
0001d1f0 g     O .bss	00000004 OSIdleCtrRun
00006cf8 g     F .text	000000b0 mcapi_trans_wait
00014b78 g     F .text	00000008 OSVersion
0001c5c0 g     O .rwdata	00000002 OSTmrCfgWheelSize
00014190 g     F .text	00000104 alt_load
00018d38 g     F .text	00000024 OS_TaskStkClr
00013a9c g     F .text	00000224 __pack_d
0001c5e6 g     O .rwdata	00000002 OSTaskCreateEn
00014df4 g     F .text	0000001c OS_EventWaitListInit
0000a614 g     F .text	00000040 pack_add_u64
00019a7c g     F .text	00000004 OSTaskIdleHook
00000000  w      *UND*	00000000 free
0000aea8 g     F .text	00000004 __sinit_lock_acquire
000022e4 g     F .text	00000008 mcapi_trans_valid_status_param
00000b3c g     F .text	000000c0 mcapi_msg_send_i
00010f28 g     F .text	00000114 __multadd
00010f00 g     F .text	00000028 _Bfree
00018b48 g     F .text	00000128 OSTaskSuspend
0001d0f0 g     O .bss	00000004 mcapi_db
000020b8 g     F .text	0000009c mcapi_trans_reserve_request_have_lock
0001484c g     F .text	00000034 OS_TaskIdle
0001c5ba g     O .rwdata	00000002 OSTmrTblSize
000179b0 g     F .text	000000a8 OSQQuery



Disassembly of section .entry:

00000000 <__reset>:
   0:	00840014 	movui	r2,4096
   4:	1001483a 	initi	r2
   8:	10bff804 	addi	r2,r2,-32
   c:	00bffd16 	blt	zero,r2,4 <__reset+0x4>
  10:	00400034 	movhi	at,0
  14:	08405514 	ori	at,at,340
  18:	0800683a 	jmp	at
  1c:	00000000 	call	0 <__reset>

Disassembly of section .exceptions:

00000020 <alt_exception>:
  20:	deffed04 	addi	sp,sp,-76
  24:	dfc00015 	stw	ra,0(sp)
  28:	d8400215 	stw	at,8(sp)
  2c:	d8800315 	stw	r2,12(sp)
  30:	d8c00415 	stw	r3,16(sp)
  34:	d9000515 	stw	r4,20(sp)
  38:	d9400615 	stw	r5,24(sp)
  3c:	d9800715 	stw	r6,28(sp)
  40:	d9c00815 	stw	r7,32(sp)
  44:	000b307a 	rdctl	r5,estatus
  48:	da000915 	stw	r8,36(sp)
  4c:	da400a15 	stw	r9,40(sp)
  50:	da800b15 	stw	r10,44(sp)
  54:	dac00c15 	stw	r11,48(sp)
  58:	db000d15 	stw	r12,52(sp)
  5c:	db400e15 	stw	r13,56(sp)
  60:	db800f15 	stw	r14,60(sp)
  64:	dbc01015 	stw	r15,64(sp)
  68:	d9401115 	stw	r5,68(sp)
  6c:	ebffff04 	addi	r15,ea,-4
  70:	dbc01215 	stw	r15,72(sp)
  74:	0009313a 	rdctl	r4,ipending
  78:	2880004c 	andi	r2,r5,1
  7c:	10000326 	beq	r2,zero,8c <OSCtxSw_SWITCH_PC+0x4c>
  80:	20000226 	beq	r4,zero,8c <OSCtxSw_SWITCH_PC+0x4c>
  84:	00000ec0 	call	ec <alt_irq_handler>
  88:	00000306 	br	98 <alt_exception_unknown+0x4>
  8c:	df401215 	stw	ea,72(sp)
  90:	e8bfff17 	ldw	r2,-4(ea)

00000094 <alt_exception_unknown>:
  94:	003da03a 	break	0
  98:	d9401117 	ldw	r5,68(sp)
  9c:	df401217 	ldw	ea,72(sp)
  a0:	dfc00017 	ldw	ra,0(sp)
  a4:	2801707a 	wrctl	estatus,r5
  a8:	d8400217 	ldw	at,8(sp)
  ac:	d8800317 	ldw	r2,12(sp)
  b0:	d8c00417 	ldw	r3,16(sp)
  b4:	d9000517 	ldw	r4,20(sp)
  b8:	d9400617 	ldw	r5,24(sp)
  bc:	d9800717 	ldw	r6,28(sp)
  c0:	d9c00817 	ldw	r7,32(sp)
  c4:	da000917 	ldw	r8,36(sp)
  c8:	da400a17 	ldw	r9,40(sp)
  cc:	da800b17 	ldw	r10,44(sp)
  d0:	dac00c17 	ldw	r11,48(sp)
  d4:	db000d17 	ldw	r12,52(sp)
  d8:	db400e17 	ldw	r13,56(sp)
  dc:	db800f17 	ldw	r14,60(sp)
  e0:	dbc01017 	ldw	r15,64(sp)
  e4:	dec01304 	addi	sp,sp,76
  e8:	ef80083a 	eret

000000ec <alt_irq_handler>:
  ec:	defffe04 	addi	sp,sp,-8
  f0:	dfc00115 	stw	ra,4(sp)
  f4:	dc000015 	stw	r16,0(sp)
  f8:	00148800 	call	14880 <OSIntEnter>
  fc:	0007313a 	rdctl	r3,ipending
 100:	04000134 	movhi	r16,4
 104:	840bae04 	addi	r16,r16,11960
 108:	000b883a 	mov	r5,zero
 10c:	00800044 	movi	r2,1
 110:	10c8703a 	and	r4,r2,r3
 114:	20000826 	beq	r4,zero,138 <alt_irq_handler+0x4c>
 118:	280490fa 	slli	r2,r5,3
 11c:	8085883a 	add	r2,r16,r2
 120:	10c00017 	ldw	r3,0(r2)
 124:	11000117 	ldw	r4,4(r2)
 128:	183ee83a 	callr	r3
 12c:	0007313a 	rdctl	r3,ipending
 130:	183ff51e 	bne	r3,zero,108 <alt_irq_handler+0x1c>
 134:	00000306 	br	144 <alt_irq_handler+0x58>
 138:	1085883a 	add	r2,r2,r2
 13c:	29400044 	addi	r5,r5,1
 140:	003ff306 	br	110 <alt_irq_handler+0x24>
 144:	dfc00117 	ldw	ra,4(sp)
 148:	dc000017 	ldw	r16,0(sp)
 14c:	dec00204 	addi	sp,sp,8
 150:	00148bc1 	jmpi	148bc <OSIntExit>

Disassembly of section .text:

00000154 <_start>:
     154:	06c00174 	movhi	sp,5
     158:	dee00014 	ori	sp,sp,32768
     15c:	068000b4 	movhi	gp,2
     160:	d6915b14 	ori	gp,gp,17772
     164:	00800074 	movhi	r2,1
     168:	10b43714 	ori	r2,r2,53468
     16c:	00c00134 	movhi	r3,4
     170:	18cbee14 	ori	r3,r3,12216
     174:	10c00326 	beq	r2,r3,184 <_start+0x30>
     178:	10000015 	stw	zero,0(r2)
     17c:	10800104 	addi	r2,r2,4
     180:	10fffd36 	bltu	r2,r3,178 <_start+0x24>
     184:	00141900 	call	14190 <alt_load>
     188:	00143200 	call	14320 <alt_main>

0000018c <alt_after_alt_main>:
     18c:	003fff06 	br	18c <alt_after_alt_main>

00000190 <mcapi_display_status>:
     190:	defffd04 	addi	sp,sp,-12
     194:	dc400115 	stw	r17,4(sp)
     198:	dc000015 	stw	r16,0(sp)
     19c:	dfc00215 	stw	ra,8(sp)
     1a0:	008007c4 	movi	r2,31
     1a4:	2023883a 	mov	r17,r4
     1a8:	2821883a 	mov	r16,r5
     1ac:	1180f12e 	bgeu	r2,r6,574 <mcapi_display_status+0x3e4>
     1b0:	2800f026 	beq	r5,zero,574 <mcapi_display_status+0x3e4>
     1b4:	2809883a 	mov	r4,r5
     1b8:	000b883a 	mov	r5,zero
     1bc:	000c09c0 	call	c09c <memset>
     1c0:	893fffc4 	addi	r4,r17,-1
     1c4:	00800b84 	movi	r2,46
     1c8:	1100e236 	bltu	r2,r4,554 <mcapi_display_status+0x3c4>
     1cc:	2109883a 	add	r4,r4,r4
     1d0:	00800034 	movhi	r2,0
     1d4:	10807a04 	addi	r2,r2,488
     1d8:	2109883a 	add	r4,r4,r4
     1dc:	2089883a 	add	r4,r4,r2
     1e0:	20800017 	ldw	r2,0(r4)
     1e4:	1000683a 	jmp	r2
     1e8:	000002a4 	muli	zero,zero,10
     1ec:	000002b4 	movhi	zero,10
     1f0:	00000444 	movi	zero,17
     1f4:	000002c4 	movi	zero,11
     1f8:	000002d4 	movui	zero,11
     1fc:	000002e4 	muli	zero,zero,11
     200:	000002f4 	movhi	zero,11
     204:	00000304 	movi	zero,12
     208:	00000314 	movui	zero,12
     20c:	00000324 	muli	zero,zero,12
     210:	00000334 	movhi	zero,12
     214:	00000344 	movi	zero,13
     218:	00000374 	movhi	zero,13
     21c:	00000554 	movui	zero,21
     220:	00000554 	movui	zero,21
     224:	00000384 	movi	zero,14
     228:	00000394 	movui	zero,14
     22c:	00000354 	movui	zero,13
     230:	00000364 	muli	zero,zero,13
     234:	000003a4 	muli	zero,zero,14
     238:	000003b4 	movhi	zero,14
     23c:	000003c4 	movi	zero,15
     240:	000003d4 	movui	zero,15
     244:	000003e4 	muli	zero,zero,15
     248:	000003f4 	movhi	zero,15
     24c:	00000404 	movi	zero,16
     250:	00000414 	movui	zero,16
     254:	00000474 	movhi	zero,17
     258:	00000484 	movi	zero,18
     25c:	000004b4 	movhi	zero,18
     260:	00000494 	movui	zero,18
     264:	000004a4 	muli	zero,zero,18
     268:	000004c4 	movi	zero,19
     26c:	000004d4 	movui	zero,19
     270:	000004f4 	movhi	zero,19
     274:	00000514 	movui	zero,20
     278:	00000424 	muli	zero,zero,16
     27c:	00000464 	muli	zero,zero,17
     280:	00000504 	movi	zero,20
     284:	00000434 	movhi	zero,16
     288:	000004e4 	muli	zero,zero,19
     28c:	00000454 	movui	zero,17
     290:	00000524 	muli	zero,zero,20
     294:	00000554 	movui	zero,21
     298:	00000534 	movhi	zero,20
     29c:	00000554 	movui	zero,21
     2a0:	00000544 	movi	zero,21
     2a4:	8009883a 	mov	r4,r16
     2a8:	014000b4 	movhi	r5,2
     2ac:	29677704 	addi	r5,r5,-25124
     2b0:	0000ab06 	br	560 <mcapi_display_status+0x3d0>
     2b4:	8009883a 	mov	r4,r16
     2b8:	014000b4 	movhi	r5,2
     2bc:	29677b04 	addi	r5,r5,-25108
     2c0:	0000a706 	br	560 <mcapi_display_status+0x3d0>
     2c4:	8009883a 	mov	r4,r16
     2c8:	014000b4 	movhi	r5,2
     2cc:	29677f04 	addi	r5,r5,-25092
     2d0:	0000a306 	br	560 <mcapi_display_status+0x3d0>
     2d4:	8009883a 	mov	r4,r16
     2d8:	014000b4 	movhi	r5,2
     2dc:	29678404 	addi	r5,r5,-25072
     2e0:	00009f06 	br	560 <mcapi_display_status+0x3d0>
     2e4:	8009883a 	mov	r4,r16
     2e8:	014000b4 	movhi	r5,2
     2ec:	29678b04 	addi	r5,r5,-25044
     2f0:	00009b06 	br	560 <mcapi_display_status+0x3d0>
     2f4:	8009883a 	mov	r4,r16
     2f8:	014000b4 	movhi	r5,2
     2fc:	29679104 	addi	r5,r5,-25020
     300:	00009706 	br	560 <mcapi_display_status+0x3d0>
     304:	8009883a 	mov	r4,r16
     308:	014000b4 	movhi	r5,2
     30c:	29679804 	addi	r5,r5,-24992
     310:	00009306 	br	560 <mcapi_display_status+0x3d0>
     314:	8009883a 	mov	r4,r16
     318:	014000b4 	movhi	r5,2
     31c:	29679f04 	addi	r5,r5,-24964
     320:	00008f06 	br	560 <mcapi_display_status+0x3d0>
     324:	8009883a 	mov	r4,r16
     328:	014000b4 	movhi	r5,2
     32c:	2967a504 	addi	r5,r5,-24940
     330:	00008b06 	br	560 <mcapi_display_status+0x3d0>
     334:	8009883a 	mov	r4,r16
     338:	014000b4 	movhi	r5,2
     33c:	2967ac04 	addi	r5,r5,-24912
     340:	00008706 	br	560 <mcapi_display_status+0x3d0>
     344:	8009883a 	mov	r4,r16
     348:	014000b4 	movhi	r5,2
     34c:	2967b104 	addi	r5,r5,-24892
     350:	00008306 	br	560 <mcapi_display_status+0x3d0>
     354:	8009883a 	mov	r4,r16
     358:	014000b4 	movhi	r5,2
     35c:	2967b704 	addi	r5,r5,-24868
     360:	00007f06 	br	560 <mcapi_display_status+0x3d0>
     364:	8009883a 	mov	r4,r16
     368:	014000b4 	movhi	r5,2
     36c:	2967bd04 	addi	r5,r5,-24844
     370:	00007b06 	br	560 <mcapi_display_status+0x3d0>
     374:	8009883a 	mov	r4,r16
     378:	014000b4 	movhi	r5,2
     37c:	2967c304 	addi	r5,r5,-24820
     380:	00007706 	br	560 <mcapi_display_status+0x3d0>
     384:	8009883a 	mov	r4,r16
     388:	014000b4 	movhi	r5,2
     38c:	2967c904 	addi	r5,r5,-24796
     390:	00007306 	br	560 <mcapi_display_status+0x3d0>
     394:	8009883a 	mov	r4,r16
     398:	014000b4 	movhi	r5,2
     39c:	2967cf04 	addi	r5,r5,-24772
     3a0:	00006f06 	br	560 <mcapi_display_status+0x3d0>
     3a4:	8009883a 	mov	r4,r16
     3a8:	014000b4 	movhi	r5,2
     3ac:	2967d504 	addi	r5,r5,-24748
     3b0:	00006b06 	br	560 <mcapi_display_status+0x3d0>
     3b4:	8009883a 	mov	r4,r16
     3b8:	014000b4 	movhi	r5,2
     3bc:	2967dc04 	addi	r5,r5,-24720
     3c0:	00006706 	br	560 <mcapi_display_status+0x3d0>
     3c4:	8009883a 	mov	r4,r16
     3c8:	014000b4 	movhi	r5,2
     3cc:	2967e104 	addi	r5,r5,-24700
     3d0:	00006306 	br	560 <mcapi_display_status+0x3d0>
     3d4:	8009883a 	mov	r4,r16
     3d8:	014000b4 	movhi	r5,2
     3dc:	2967e604 	addi	r5,r5,-24680
     3e0:	00005f06 	br	560 <mcapi_display_status+0x3d0>
     3e4:	8009883a 	mov	r4,r16
     3e8:	014000b4 	movhi	r5,2
     3ec:	2967ec04 	addi	r5,r5,-24656
     3f0:	00005b06 	br	560 <mcapi_display_status+0x3d0>
     3f4:	8009883a 	mov	r4,r16
     3f8:	014000b4 	movhi	r5,2
     3fc:	2967f304 	addi	r5,r5,-24628
     400:	00005706 	br	560 <mcapi_display_status+0x3d0>
     404:	8009883a 	mov	r4,r16
     408:	014000b4 	movhi	r5,2
     40c:	2967f904 	addi	r5,r5,-24604
     410:	00005306 	br	560 <mcapi_display_status+0x3d0>
     414:	8009883a 	mov	r4,r16
     418:	014000b4 	movhi	r5,2
     41c:	2967fe04 	addi	r5,r5,-24584
     420:	00004f06 	br	560 <mcapi_display_status+0x3d0>
     424:	8009883a 	mov	r4,r16
     428:	014000b4 	movhi	r5,2
     42c:	29680404 	addi	r5,r5,-24560
     430:	00004b06 	br	560 <mcapi_display_status+0x3d0>
     434:	8009883a 	mov	r4,r16
     438:	014000b4 	movhi	r5,2
     43c:	29680a04 	addi	r5,r5,-24536
     440:	00004706 	br	560 <mcapi_display_status+0x3d0>
     444:	8009883a 	mov	r4,r16
     448:	014000b4 	movhi	r5,2
     44c:	29680f04 	addi	r5,r5,-24516
     450:	00004306 	br	560 <mcapi_display_status+0x3d0>
     454:	8009883a 	mov	r4,r16
     458:	014000b4 	movhi	r5,2
     45c:	29681304 	addi	r5,r5,-24500
     460:	00003f06 	br	560 <mcapi_display_status+0x3d0>
     464:	8009883a 	mov	r4,r16
     468:	014000b4 	movhi	r5,2
     46c:	29681904 	addi	r5,r5,-24476
     470:	00003b06 	br	560 <mcapi_display_status+0x3d0>
     474:	8009883a 	mov	r4,r16
     478:	014000b4 	movhi	r5,2
     47c:	29681e04 	addi	r5,r5,-24456
     480:	00003706 	br	560 <mcapi_display_status+0x3d0>
     484:	8009883a 	mov	r4,r16
     488:	014000b4 	movhi	r5,2
     48c:	29682304 	addi	r5,r5,-24436
     490:	00003306 	br	560 <mcapi_display_status+0x3d0>
     494:	8009883a 	mov	r4,r16
     498:	014000b4 	movhi	r5,2
     49c:	29682804 	addi	r5,r5,-24416
     4a0:	00002f06 	br	560 <mcapi_display_status+0x3d0>
     4a4:	8009883a 	mov	r4,r16
     4a8:	014000b4 	movhi	r5,2
     4ac:	29682f04 	addi	r5,r5,-24388
     4b0:	00002b06 	br	560 <mcapi_display_status+0x3d0>
     4b4:	8009883a 	mov	r4,r16
     4b8:	014000b4 	movhi	r5,2
     4bc:	29683604 	addi	r5,r5,-24360
     4c0:	00002706 	br	560 <mcapi_display_status+0x3d0>
     4c4:	8009883a 	mov	r4,r16
     4c8:	014000b4 	movhi	r5,2
     4cc:	29683d04 	addi	r5,r5,-24332
     4d0:	00002306 	br	560 <mcapi_display_status+0x3d0>
     4d4:	8009883a 	mov	r4,r16
     4d8:	014000b4 	movhi	r5,2
     4dc:	29684304 	addi	r5,r5,-24308
     4e0:	00001f06 	br	560 <mcapi_display_status+0x3d0>
     4e4:	8009883a 	mov	r4,r16
     4e8:	014000b4 	movhi	r5,2
     4ec:	29684904 	addi	r5,r5,-24284
     4f0:	00001b06 	br	560 <mcapi_display_status+0x3d0>
     4f4:	8009883a 	mov	r4,r16
     4f8:	014000b4 	movhi	r5,2
     4fc:	29685004 	addi	r5,r5,-24256
     500:	00001706 	br	560 <mcapi_display_status+0x3d0>
     504:	8009883a 	mov	r4,r16
     508:	014000b4 	movhi	r5,2
     50c:	29685504 	addi	r5,r5,-24236
     510:	00001306 	br	560 <mcapi_display_status+0x3d0>
     514:	8009883a 	mov	r4,r16
     518:	014000b4 	movhi	r5,2
     51c:	29685b04 	addi	r5,r5,-24212
     520:	00000f06 	br	560 <mcapi_display_status+0x3d0>
     524:	8009883a 	mov	r4,r16
     528:	014000b4 	movhi	r5,2
     52c:	29686004 	addi	r5,r5,-24192
     530:	00000b06 	br	560 <mcapi_display_status+0x3d0>
     534:	8009883a 	mov	r4,r16
     538:	014000b4 	movhi	r5,2
     53c:	29686704 	addi	r5,r5,-24164
     540:	00000706 	br	560 <mcapi_display_status+0x3d0>
     544:	8009883a 	mov	r4,r16
     548:	014000b4 	movhi	r5,2
     54c:	29686c04 	addi	r5,r5,-24144
     550:	00000306 	br	560 <mcapi_display_status+0x3d0>
     554:	8009883a 	mov	r4,r16
     558:	014000b4 	movhi	r5,2
     55c:	29687204 	addi	r5,r5,-24120
     560:	dfc00217 	ldw	ra,8(sp)
     564:	dc400117 	ldw	r17,4(sp)
     568:	dc000017 	ldw	r16,0(sp)
     56c:	dec00304 	addi	sp,sp,12
     570:	000ca941 	jmpi	ca94 <strcpy>
     574:	008000b4 	movhi	r2,2
     578:	10b15f04 	addi	r2,r2,-14980
     57c:	10800017 	ldw	r2,0(r2)
     580:	014000b4 	movhi	r5,2
     584:	29675d04 	addi	r5,r5,-25228
     588:	01800804 	movi	r6,32
     58c:	11000317 	ldw	r4,12(r2)
     590:	000af080 	call	af08 <fprintf>
     594:	8005883a 	mov	r2,r16
     598:	dfc00217 	ldw	ra,8(sp)
     59c:	dc400117 	ldw	r17,4(sp)
     5a0:	dc000017 	ldw	r16,0(sp)
     5a4:	dec00304 	addi	sp,sp,12
     5a8:	f800283a 	ret

000005ac <mcapi_set_debug_level>:
     5ac:	f800283a 	ret

000005b0 <mcapi_display_state>:
     5b0:	000393c1 	jmpi	393c <mcapi_trans_display_state>

000005b4 <mcapi_initialize>:
     5b4:	defffb04 	addi	sp,sp,-20
     5b8:	dc000015 	stw	r16,0(sp)
     5bc:	dc000617 	ldw	r16,24(sp)
     5c0:	dcc00315 	stw	r19,12(sp)
     5c4:	dc800215 	stw	r18,8(sp)
     5c8:	dc400115 	stw	r17,4(sp)
     5cc:	dfc00415 	stw	ra,16(sp)
     5d0:	008001c4 	movi	r2,7
     5d4:	2025883a 	mov	r18,r4
     5d8:	80800015 	stw	r2,0(r16)
     5dc:	2809883a 	mov	r4,r5
     5e0:	2823883a 	mov	r17,r5
     5e4:	3027883a 	mov	r19,r6
     5e8:	00022c40 	call	22c4 <mcapi_trans_valid_node>
     5ec:	10803fcc 	andi	r2,r2,255
     5f0:	1000021e 	bne	r2,zero,5fc <mcapi_initialize+0x48>
     5f4:	00800184 	movi	r2,6
     5f8:	00000e06 	br	634 <mcapi_initialize+0x80>
     5fc:	9009883a 	mov	r4,r18
     600:	880b883a 	mov	r5,r17
     604:	0005d7c0 	call	5d7c <mcapi_trans_initialized>
     608:	10803fcc 	andi	r2,r2,255
     60c:	10000226 	beq	r2,zero,618 <mcapi_initialize+0x64>
     610:	00800204 	movi	r2,8
     614:	00000706 	br	634 <mcapi_initialize+0x80>
     618:	9009883a 	mov	r4,r18
     61c:	880b883a 	mov	r5,r17
     620:	980d883a 	mov	r6,r19
     624:	0005a100 	call	5a10 <mcapi_trans_initialize>
     628:	10803fcc 	andi	r2,r2,255
     62c:	10000226 	beq	r2,zero,638 <mcapi_initialize+0x84>
     630:	00800044 	movi	r2,1
     634:	80800015 	stw	r2,0(r16)
     638:	dfc00417 	ldw	ra,16(sp)
     63c:	dcc00317 	ldw	r19,12(sp)
     640:	dc800217 	ldw	r18,8(sp)
     644:	dc400117 	ldw	r17,4(sp)
     648:	dc000017 	ldw	r16,0(sp)
     64c:	dec00504 	addi	sp,sp,20
     650:	f800283a 	ret

00000654 <mcapi_node_init_attributes>:
     654:	defffe04 	addi	sp,sp,-8
     658:	00800b44 	movi	r2,45
     65c:	dc000015 	stw	r16,0(sp)
     660:	dfc00115 	stw	ra,4(sp)
     664:	28800015 	stw	r2,0(r5)
     668:	2821883a 	mov	r16,r5
     66c:	2000021e 	bne	r4,zero,678 <mcapi_node_init_attributes+0x24>
     670:	00800104 	movi	r2,4
     674:	00000406 	br	688 <mcapi_node_init_attributes+0x34>
     678:	00022480 	call	2248 <mcapi_trans_node_init_attributes>
     67c:	10803fcc 	andi	r2,r2,255
     680:	10000226 	beq	r2,zero,68c <mcapi_node_init_attributes+0x38>
     684:	00800044 	movi	r2,1
     688:	80800015 	stw	r2,0(r16)
     68c:	dfc00117 	ldw	ra,4(sp)
     690:	dc000017 	ldw	r16,0(sp)
     694:	dec00204 	addi	sp,sp,8
     698:	f800283a 	ret

0000069c <mcapi_node_set_attribute>:
     69c:	defffd04 	addi	sp,sp,-12
     6a0:	dc000115 	stw	r16,4(sp)
     6a4:	dc000317 	ldw	r16,12(sp)
     6a8:	dfc00215 	stw	ra,8(sp)
     6ac:	00c00b44 	movi	r3,45
     6b0:	80c00015 	stw	r3,0(r16)
     6b4:	20000126 	beq	r4,zero,6bc <mcapi_node_set_attribute+0x20>
     6b8:	3000021e 	bne	r6,zero,6c4 <mcapi_node_set_attribute+0x28>
     6bc:	00800104 	movi	r2,4
     6c0:	00000506 	br	6d8 <mcapi_node_set_attribute+0x3c>
     6c4:	dc000015 	stw	r16,0(sp)
     6c8:	000226c0 	call	226c <mcapi_trans_node_set_attribute>
     6cc:	10803fcc 	andi	r2,r2,255
     6d0:	10000226 	beq	r2,zero,6dc <mcapi_node_set_attribute+0x40>
     6d4:	00800044 	movi	r2,1
     6d8:	80800015 	stw	r2,0(r16)
     6dc:	dfc00217 	ldw	ra,8(sp)
     6e0:	dc000117 	ldw	r16,4(sp)
     6e4:	dec00304 	addi	sp,sp,12
     6e8:	f800283a 	ret

000006ec <mcapi_node_get_attribute>:
     6ec:	defffc04 	addi	sp,sp,-16
     6f0:	dc000215 	stw	r16,8(sp)
     6f4:	dc000517 	ldw	r16,20(sp)
     6f8:	dfc00315 	stw	ra,12(sp)
     6fc:	00800b44 	movi	r2,45
     700:	80800015 	stw	r2,0(r16)
     704:	3800021e 	bne	r7,zero,710 <mcapi_node_get_attribute+0x24>
     708:	00800104 	movi	r2,4
     70c:	00000706 	br	72c <mcapi_node_get_attribute+0x40>
     710:	d8800417 	ldw	r2,16(sp)
     714:	dc000115 	stw	r16,4(sp)
     718:	d8800015 	stw	r2,0(sp)
     71c:	0005f6c0 	call	5f6c <mcapi_trans_node_get_attribute>
     720:	10803fcc 	andi	r2,r2,255
     724:	10000226 	beq	r2,zero,730 <mcapi_node_get_attribute+0x44>
     728:	00800044 	movi	r2,1
     72c:	80800015 	stw	r2,0(r16)
     730:	dfc00317 	ldw	ra,12(sp)
     734:	dc000217 	ldw	r16,8(sp)
     738:	dec00404 	addi	sp,sp,16
     73c:	f800283a 	ret

00000740 <mcapi_finalize>:
     740:	00800044 	movi	r2,1
     744:	defffe04 	addi	sp,sp,-8
     748:	20800015 	stw	r2,0(r4)
     74c:	dc000015 	stw	r16,0(sp)
     750:	dfc00115 	stw	ra,4(sp)
     754:	2021883a 	mov	r16,r4
     758:	00026c00 	call	26c0 <mcapi_trans_finalize>
     75c:	10803fcc 	andi	r2,r2,255
     760:	1000021e 	bne	r2,zero,76c <mcapi_finalize+0x2c>
     764:	00800284 	movi	r2,10
     768:	80800015 	stw	r2,0(r16)
     76c:	dfc00117 	ldw	ra,4(sp)
     770:	dc000017 	ldw	r16,0(sp)
     774:	dec00204 	addi	sp,sp,8
     778:	f800283a 	ret

0000077c <mcapi_domain_id_get>:
     77c:	defffd04 	addi	sp,sp,-12
     780:	00bfffc4 	movi	r2,-1
     784:	dc000115 	stw	r16,4(sp)
     788:	dfc00215 	stw	ra,8(sp)
     78c:	d8800015 	stw	r2,0(sp)
     790:	00800244 	movi	r2,9
     794:	20800015 	stw	r2,0(r4)
     798:	2021883a 	mov	r16,r4
     79c:	d809883a 	mov	r4,sp
     7a0:	000615c0 	call	615c <mcapi_trans_get_domain_num>
     7a4:	10803fcc 	andi	r2,r2,255
     7a8:	10000226 	beq	r2,zero,7b4 <mcapi_domain_id_get+0x38>
     7ac:	00800044 	movi	r2,1
     7b0:	80800015 	stw	r2,0(r16)
     7b4:	d8800017 	ldw	r2,0(sp)
     7b8:	dfc00217 	ldw	ra,8(sp)
     7bc:	dc000117 	ldw	r16,4(sp)
     7c0:	dec00304 	addi	sp,sp,12
     7c4:	f800283a 	ret

000007c8 <mcapi_node_id_get>:
     7c8:	defffd04 	addi	sp,sp,-12
     7cc:	00bfffc4 	movi	r2,-1
     7d0:	dc000115 	stw	r16,4(sp)
     7d4:	dfc00215 	stw	ra,8(sp)
     7d8:	d8800015 	stw	r2,0(sp)
     7dc:	00800244 	movi	r2,9
     7e0:	20800015 	stw	r2,0(r4)
     7e4:	2021883a 	mov	r16,r4
     7e8:	d809883a 	mov	r4,sp
     7ec:	00061840 	call	6184 <mcapi_trans_get_node_num>
     7f0:	10803fcc 	andi	r2,r2,255
     7f4:	10000226 	beq	r2,zero,800 <mcapi_node_id_get+0x38>
     7f8:	00800044 	movi	r2,1
     7fc:	80800015 	stw	r2,0(r16)
     800:	d8800017 	ldw	r2,0(sp)
     804:	dfc00217 	ldw	ra,8(sp)
     808:	dc000117 	ldw	r16,4(sp)
     80c:	dec00304 	addi	sp,sp,12
     810:	f800283a 	ret

00000814 <mcapi_endpoint_create>:
     814:	defff904 	addi	sp,sp,-28
     818:	dcc00515 	stw	r19,20(sp)
     81c:	dc800415 	stw	r18,16(sp)
     820:	dc400315 	stw	r17,12(sp)
     824:	dc000215 	stw	r16,8(sp)
     828:	dfc00615 	stw	ra,24(sp)
     82c:	04c00044 	movi	r19,1
     830:	2023883a 	mov	r17,r4
     834:	2cc00015 	stw	r19,0(r5)
     838:	d809883a 	mov	r4,sp
     83c:	2821883a 	mov	r16,r5
     840:	000077c0 	call	77c <mcapi_domain_id_get>
     844:	1025883a 	mov	r18,r2
     848:	d8800017 	ldw	r2,0(sp)
     84c:	14c00226 	beq	r2,r19,858 <mcapi_endpoint_create+0x44>
     850:	00800244 	movi	r2,9
     854:	00001a06 	br	8c0 <mcapi_endpoint_create+0xac>
     858:	9009883a 	mov	r4,r18
     85c:	880b883a 	mov	r5,r17
     860:	0005e900 	call	5e90 <mcapi_trans_endpoint_exists>
     864:	10803fcc 	andi	r2,r2,255
     868:	10000226 	beq	r2,zero,874 <mcapi_endpoint_create+0x60>
     86c:	00800344 	movi	r2,13
     870:	00001306 	br	8c0 <mcapi_endpoint_create+0xac>
     874:	9009883a 	mov	r4,r18
     878:	0005cd00 	call	5cd0 <mcapi_trans_num_endpoints>
     87c:	00c00204 	movi	r3,8
     880:	10c0021e 	bne	r2,r3,88c <mcapi_endpoint_create+0x78>
     884:	008004c4 	movi	r2,19
     888:	00000d06 	br	8c0 <mcapi_endpoint_create+0xac>
     88c:	8809883a 	mov	r4,r17
     890:	00022bc0 	call	22bc <mcapi_trans_valid_port>
     894:	10803fcc 	andi	r2,r2,255
     898:	1000021e 	bne	r2,zero,8a4 <mcapi_endpoint_create+0x90>
     89c:	008002c4 	movi	r2,11
     8a0:	00000706 	br	8c0 <mcapi_endpoint_create+0xac>
     8a4:	d9000104 	addi	r4,sp,4
     8a8:	880b883a 	mov	r5,r17
     8ac:	000d883a 	mov	r6,zero
     8b0:	0005b600 	call	5b60 <mcapi_trans_endpoint_create>
     8b4:	10803fcc 	andi	r2,r2,255
     8b8:	1000021e 	bne	r2,zero,8c4 <mcapi_endpoint_create+0xb0>
     8bc:	00800484 	movi	r2,18
     8c0:	80800015 	stw	r2,0(r16)
     8c4:	d8800117 	ldw	r2,4(sp)
     8c8:	dfc00617 	ldw	ra,24(sp)
     8cc:	dcc00517 	ldw	r19,20(sp)
     8d0:	dc800417 	ldw	r18,16(sp)
     8d4:	dc400317 	ldw	r17,12(sp)
     8d8:	dc000217 	ldw	r16,8(sp)
     8dc:	dec00704 	addi	sp,sp,28
     8e0:	f800283a 	ret

000008e4 <mcapi_endpoint_get_i>:
     8e4:	defff904 	addi	sp,sp,-28
     8e8:	dc000015 	stw	r16,0(sp)
     8ec:	dc000817 	ldw	r16,32(sp)
     8f0:	dd400515 	stw	r21,20(sp)
     8f4:	dd000415 	stw	r20,16(sp)
     8f8:	dcc00315 	stw	r19,12(sp)
     8fc:	dc800215 	stw	r18,8(sp)
     900:	dc400115 	stw	r17,4(sp)
     904:	dfc00615 	stw	ra,24(sp)
     908:	00800044 	movi	r2,1
     90c:	2027883a 	mov	r19,r4
     910:	80800015 	stw	r2,0(r16)
     914:	2809883a 	mov	r4,r5
     918:	2825883a 	mov	r18,r5
     91c:	3023883a 	mov	r17,r6
     920:	3829883a 	mov	r20,r7
     924:	dd400717 	ldw	r21,28(sp)
     928:	00022c40 	call	22c4 <mcapi_trans_valid_node>
     92c:	10803fcc 	andi	r2,r2,255
     930:	1000021e 	bne	r2,zero,93c <mcapi_endpoint_get_i+0x58>
     934:	00800184 	movi	r2,6
     938:	00000506 	br	950 <mcapi_endpoint_get_i+0x6c>
     93c:	8809883a 	mov	r4,r17
     940:	00022bc0 	call	22bc <mcapi_trans_valid_port>
     944:	10803fcc 	andi	r2,r2,255
     948:	1000021e 	bne	r2,zero,954 <mcapi_endpoint_get_i+0x70>
     94c:	008002c4 	movi	r2,11
     950:	80800015 	stw	r2,0(r16)
     954:	a009883a 	mov	r4,r20
     958:	980b883a 	mov	r5,r19
     95c:	900d883a 	mov	r6,r18
     960:	880f883a 	mov	r7,r17
     964:	dd400715 	stw	r21,28(sp)
     968:	dc000815 	stw	r16,32(sp)
     96c:	dfc00617 	ldw	ra,24(sp)
     970:	dd400517 	ldw	r21,20(sp)
     974:	dd000417 	ldw	r20,16(sp)
     978:	dcc00317 	ldw	r19,12(sp)
     97c:	dc800217 	ldw	r18,8(sp)
     980:	dc400117 	ldw	r17,4(sp)
     984:	dc000017 	ldw	r16,0(sp)
     988:	dec00704 	addi	sp,sp,28
     98c:	0003c141 	jmpi	3c14 <mcapi_trans_endpoint_get_i>

00000990 <mcapi_endpoint_get>:
     990:	defffa04 	addi	sp,sp,-24
     994:	dc000115 	stw	r16,4(sp)
     998:	dc000617 	ldw	r16,24(sp)
     99c:	dcc00415 	stw	r19,16(sp)
     9a0:	dc800315 	stw	r18,12(sp)
     9a4:	dc400215 	stw	r17,8(sp)
     9a8:	dfc00515 	stw	ra,20(sp)
     9ac:	00800044 	movi	r2,1
     9b0:	2027883a 	mov	r19,r4
     9b4:	80800015 	stw	r2,0(r16)
     9b8:	2809883a 	mov	r4,r5
     9bc:	2823883a 	mov	r17,r5
     9c0:	3025883a 	mov	r18,r6
     9c4:	00022c40 	call	22c4 <mcapi_trans_valid_node>
     9c8:	10803fcc 	andi	r2,r2,255
     9cc:	1000021e 	bne	r2,zero,9d8 <mcapi_endpoint_get+0x48>
     9d0:	00800184 	movi	r2,6
     9d4:	00000506 	br	9ec <mcapi_endpoint_get+0x5c>
     9d8:	9009883a 	mov	r4,r18
     9dc:	00022bc0 	call	22bc <mcapi_trans_valid_port>
     9e0:	10803fcc 	andi	r2,r2,255
     9e4:	1000031e 	bne	r2,zero,9f4 <mcapi_endpoint_get+0x64>
     9e8:	008002c4 	movi	r2,11
     9ec:	80800015 	stw	r2,0(r16)
     9f0:	00000506 	br	a08 <mcapi_endpoint_get+0x78>
     9f4:	d809883a 	mov	r4,sp
     9f8:	980b883a 	mov	r5,r19
     9fc:	880d883a 	mov	r6,r17
     a00:	900f883a 	mov	r7,r18
     a04:	0006da80 	call	6da8 <mcapi_trans_endpoint_get>
     a08:	d8800017 	ldw	r2,0(sp)
     a0c:	dfc00517 	ldw	ra,20(sp)
     a10:	dcc00417 	ldw	r19,16(sp)
     a14:	dc800317 	ldw	r18,12(sp)
     a18:	dc400217 	ldw	r17,8(sp)
     a1c:	dc000117 	ldw	r16,4(sp)
     a20:	dec00604 	addi	sp,sp,24
     a24:	f800283a 	ret

00000a28 <mcapi_endpoint_delete>:
     a28:	00800044 	movi	r2,1
     a2c:	defffd04 	addi	sp,sp,-12
     a30:	28800015 	stw	r2,0(r5)
     a34:	dc400115 	stw	r17,4(sp)
     a38:	dc000015 	stw	r16,0(sp)
     a3c:	dfc00215 	stw	ra,8(sp)
     a40:	2023883a 	mov	r17,r4
     a44:	2821883a 	mov	r16,r5
     a48:	000494c0 	call	494c <mcapi_trans_valid_endpoint>
     a4c:	10803fcc 	andi	r2,r2,255
     a50:	1000021e 	bne	r2,zero,a5c <mcapi_endpoint_delete+0x34>
     a54:	00800304 	movi	r2,12
     a58:	00000b06 	br	a88 <mcapi_endpoint_delete+0x60>
     a5c:	8809883a 	mov	r4,r17
     a60:	00061a80 	call	61a8 <mcapi_trans_endpoint_isowner>
     a64:	10803fcc 	andi	r2,r2,255
     a68:	1000021e 	bne	r2,zero,a74 <mcapi_endpoint_delete+0x4c>
     a6c:	00800404 	movi	r2,16
     a70:	00000506 	br	a88 <mcapi_endpoint_delete+0x60>
     a74:	8809883a 	mov	r4,r17
     a78:	00045700 	call	4570 <mcapi_trans_endpoint_channel_isopen>
     a7c:	10803fcc 	andi	r2,r2,255
     a80:	10000326 	beq	r2,zero,a90 <mcapi_endpoint_delete+0x68>
     a84:	00800704 	movi	r2,28
     a88:	80800015 	stw	r2,0(r16)
     a8c:	00000606 	br	aa8 <mcapi_endpoint_delete+0x80>
     a90:	8809883a 	mov	r4,r17
     a94:	dfc00217 	ldw	ra,8(sp)
     a98:	dc400117 	ldw	r17,4(sp)
     a9c:	dc000017 	ldw	r16,0(sp)
     aa0:	dec00304 	addi	sp,sp,12
     aa4:	0003f8c1 	jmpi	3f8c <mcapi_trans_endpoint_delete>
     aa8:	dfc00217 	ldw	ra,8(sp)
     aac:	dc400117 	ldw	r17,4(sp)
     ab0:	dc000017 	ldw	r16,0(sp)
     ab4:	dec00304 	addi	sp,sp,12
     ab8:	f800283a 	ret

00000abc <mcapi_endpoint_get_attribute>:
     abc:	defffa04 	addi	sp,sp,-24
     ac0:	dc000315 	stw	r16,12(sp)
     ac4:	dc000617 	ldw	r16,24(sp)
     ac8:	dc400415 	stw	r17,16(sp)
     acc:	dfc00515 	stw	ra,20(sp)
     ad0:	00800044 	movi	r2,1
     ad4:	80800015 	stw	r2,0(r16)
     ad8:	d9400015 	stw	r5,0(sp)
     adc:	d9800115 	stw	r6,4(sp)
     ae0:	d9c00215 	stw	r7,8(sp)
     ae4:	2023883a 	mov	r17,r4
     ae8:	000494c0 	call	494c <mcapi_trans_valid_endpoint>
     aec:	10803fcc 	andi	r2,r2,255
     af0:	d9400017 	ldw	r5,0(sp)
     af4:	d9800117 	ldw	r6,4(sp)
     af8:	d9c00217 	ldw	r7,8(sp)
     afc:	1000031e 	bne	r2,zero,b0c <mcapi_endpoint_get_attribute+0x50>
     b00:	00800304 	movi	r2,12
     b04:	80800015 	stw	r2,0(r16)
     b08:	00000706 	br	b28 <mcapi_endpoint_get_attribute+0x6c>
     b0c:	8809883a 	mov	r4,r17
     b10:	dc000615 	stw	r16,24(sp)
     b14:	dfc00517 	ldw	ra,20(sp)
     b18:	dc400417 	ldw	r17,16(sp)
     b1c:	dc000317 	ldw	r16,12(sp)
     b20:	dec00604 	addi	sp,sp,24
     b24:	00040581 	jmpi	4058 <mcapi_trans_endpoint_get_attribute>
     b28:	dfc00517 	ldw	ra,20(sp)
     b2c:	dc400417 	ldw	r17,16(sp)
     b30:	dc000317 	ldw	r16,12(sp)
     b34:	dec00604 	addi	sp,sp,24
     b38:	f800283a 	ret

00000b3c <mcapi_msg_send_i>:
     b3c:	defff904 	addi	sp,sp,-28
     b40:	dc000015 	stw	r16,0(sp)
     b44:	dc000917 	ldw	r16,36(sp)
     b48:	dc800215 	stw	r18,8(sp)
     b4c:	2025883a 	mov	r18,r4
     b50:	d9000717 	ldw	r4,28(sp)
     b54:	dd400515 	stw	r21,20(sp)
     b58:	dd000415 	stw	r20,16(sp)
     b5c:	dcc00315 	stw	r19,12(sp)
     b60:	dc400115 	stw	r17,4(sp)
     b64:	dfc00615 	stw	ra,24(sp)
     b68:	00800044 	movi	r2,1
     b6c:	80800015 	stw	r2,0(r16)
     b70:	2823883a 	mov	r17,r5
     b74:	302b883a 	mov	r21,r6
     b78:	3827883a 	mov	r19,r7
     b7c:	dd000817 	ldw	r20,32(sp)
     b80:	00022dc0 	call	22dc <mcapi_trans_valid_priority>
     b84:	10803fcc 	andi	r2,r2,255
     b88:	1000021e 	bne	r2,zero,b94 <mcapi_msg_send_i+0x58>
     b8c:	00800984 	movi	r2,38
     b90:	00000a06 	br	bbc <mcapi_msg_send_i+0x80>
     b94:	9009883a 	mov	r4,r18
     b98:	880b883a 	mov	r5,r17
     b9c:	00048ac0 	call	48ac <mcapi_trans_valid_endpoints>
     ba0:	10803fcc 	andi	r2,r2,255
     ba4:	1000021e 	bne	r2,zero,bb0 <mcapi_msg_send_i+0x74>
     ba8:	00800304 	movi	r2,12
     bac:	00000306 	br	bbc <mcapi_msg_send_i+0x80>
     bb0:	00810004 	movi	r2,1024
     bb4:	14c0022e 	bgeu	r2,r19,bc0 <mcapi_msg_send_i+0x84>
     bb8:	00800684 	movi	r2,26
     bbc:	80800015 	stw	r2,0(r16)
     bc0:	9009883a 	mov	r4,r18
     bc4:	880b883a 	mov	r5,r17
     bc8:	a80d883a 	mov	r6,r21
     bcc:	980f883a 	mov	r7,r19
     bd0:	dd000715 	stw	r20,28(sp)
     bd4:	dc000815 	stw	r16,32(sp)
     bd8:	dfc00617 	ldw	ra,24(sp)
     bdc:	dd400517 	ldw	r21,20(sp)
     be0:	dd000417 	ldw	r20,16(sp)
     be4:	dcc00317 	ldw	r19,12(sp)
     be8:	dc800217 	ldw	r18,8(sp)
     bec:	dc400117 	ldw	r17,4(sp)
     bf0:	dc000017 	ldw	r16,0(sp)
     bf4:	dec00704 	addi	sp,sp,28
     bf8:	00074bc1 	jmpi	74bc <mcapi_trans_msg_send_i>

00000bfc <mcapi_msg_send>:
     bfc:	defffa04 	addi	sp,sp,-24
     c00:	dc000015 	stw	r16,0(sp)
     c04:	dc000717 	ldw	r16,28(sp)
     c08:	dc800215 	stw	r18,8(sp)
     c0c:	2025883a 	mov	r18,r4
     c10:	d9000617 	ldw	r4,24(sp)
     c14:	dd000415 	stw	r20,16(sp)
     c18:	dcc00315 	stw	r19,12(sp)
     c1c:	dc400115 	stw	r17,4(sp)
     c20:	dfc00515 	stw	ra,20(sp)
     c24:	00800044 	movi	r2,1
     c28:	80800015 	stw	r2,0(r16)
     c2c:	2823883a 	mov	r17,r5
     c30:	3029883a 	mov	r20,r6
     c34:	3827883a 	mov	r19,r7
     c38:	00022dc0 	call	22dc <mcapi_trans_valid_priority>
     c3c:	10803fcc 	andi	r2,r2,255
     c40:	1000021e 	bne	r2,zero,c4c <mcapi_msg_send+0x50>
     c44:	00800984 	movi	r2,38
     c48:	00001306 	br	c98 <mcapi_msg_send+0x9c>
     c4c:	9009883a 	mov	r4,r18
     c50:	880b883a 	mov	r5,r17
     c54:	00048ac0 	call	48ac <mcapi_trans_valid_endpoints>
     c58:	10803fcc 	andi	r2,r2,255
     c5c:	1000021e 	bne	r2,zero,c68 <mcapi_msg_send+0x6c>
     c60:	00800304 	movi	r2,12
     c64:	00000c06 	br	c98 <mcapi_msg_send+0x9c>
     c68:	00810004 	movi	r2,1024
     c6c:	14c0022e 	bgeu	r2,r19,c78 <mcapi_msg_send+0x7c>
     c70:	00800684 	movi	r2,26
     c74:	00000806 	br	c98 <mcapi_msg_send+0x9c>
     c78:	9009883a 	mov	r4,r18
     c7c:	880b883a 	mov	r5,r17
     c80:	a00d883a 	mov	r6,r20
     c84:	980f883a 	mov	r7,r19
     c88:	00077b80 	call	77b8 <mcapi_trans_msg_send>
     c8c:	10803fcc 	andi	r2,r2,255
     c90:	1000021e 	bne	r2,zero,c9c <mcapi_msg_send+0xa0>
     c94:	00800a04 	movi	r2,40
     c98:	80800015 	stw	r2,0(r16)
     c9c:	dfc00517 	ldw	ra,20(sp)
     ca0:	dd000417 	ldw	r20,16(sp)
     ca4:	dcc00317 	ldw	r19,12(sp)
     ca8:	dc800217 	ldw	r18,8(sp)
     cac:	dc400117 	ldw	r17,4(sp)
     cb0:	dc000017 	ldw	r16,0(sp)
     cb4:	dec00604 	addi	sp,sp,24
     cb8:	f800283a 	ret

00000cbc <mcapi_msg_recv_i>:
     cbc:	defffa04 	addi	sp,sp,-24
     cc0:	dc000015 	stw	r16,0(sp)
     cc4:	dc000617 	ldw	r16,24(sp)
     cc8:	dd000415 	stw	r20,16(sp)
     ccc:	dcc00315 	stw	r19,12(sp)
     cd0:	dc800215 	stw	r18,8(sp)
     cd4:	dc400115 	stw	r17,4(sp)
     cd8:	dfc00515 	stw	ra,20(sp)
     cdc:	00800044 	movi	r2,1
     ce0:	80800015 	stw	r2,0(r16)
     ce4:	2023883a 	mov	r17,r4
     ce8:	2827883a 	mov	r19,r5
     cec:	3029883a 	mov	r20,r6
     cf0:	3825883a 	mov	r18,r7
     cf4:	3800031e 	bne	r7,zero,d04 <mcapi_msg_recv_i+0x48>
     cf8:	00800104 	movi	r2,4
     cfc:	80800015 	stw	r2,0(r16)
     d00:	00001906 	br	d68 <mcapi_msg_recv_i+0xac>
     d04:	2809883a 	mov	r4,r5
     d08:	00022f40 	call	22f4 <mcapi_trans_valid_buffer_param>
     d0c:	10803fcc 	andi	r2,r2,255
     d10:	1000021e 	bne	r2,zero,d1c <mcapi_msg_recv_i+0x60>
     d14:	00800104 	movi	r2,4
     d18:	00000506 	br	d30 <mcapi_msg_recv_i+0x74>
     d1c:	8809883a 	mov	r4,r17
     d20:	000494c0 	call	494c <mcapi_trans_valid_endpoint>
     d24:	10803fcc 	andi	r2,r2,255
     d28:	1000021e 	bne	r2,zero,d34 <mcapi_msg_recv_i+0x78>
     d2c:	00800304 	movi	r2,12
     d30:	80800015 	stw	r2,0(r16)
     d34:	8809883a 	mov	r4,r17
     d38:	980b883a 	mov	r5,r19
     d3c:	a00d883a 	mov	r6,r20
     d40:	900f883a 	mov	r7,r18
     d44:	dc000615 	stw	r16,24(sp)
     d48:	dfc00517 	ldw	ra,20(sp)
     d4c:	dd000417 	ldw	r20,16(sp)
     d50:	dcc00317 	ldw	r19,12(sp)
     d54:	dc800217 	ldw	r18,8(sp)
     d58:	dc400117 	ldw	r17,4(sp)
     d5c:	dc000017 	ldw	r16,0(sp)
     d60:	dec00604 	addi	sp,sp,24
     d64:	0007f281 	jmpi	7f28 <mcapi_trans_msg_recv_i>
     d68:	dfc00517 	ldw	ra,20(sp)
     d6c:	dd000417 	ldw	r20,16(sp)
     d70:	dcc00317 	ldw	r19,12(sp)
     d74:	dc800217 	ldw	r18,8(sp)
     d78:	dc400117 	ldw	r17,4(sp)
     d7c:	dc000017 	ldw	r16,0(sp)
     d80:	dec00604 	addi	sp,sp,24
     d84:	f800283a 	ret

00000d88 <mcapi_msg_recv>:
     d88:	defffa04 	addi	sp,sp,-24
     d8c:	dc000015 	stw	r16,0(sp)
     d90:	dc000617 	ldw	r16,24(sp)
     d94:	dd000415 	stw	r20,16(sp)
     d98:	dcc00315 	stw	r19,12(sp)
     d9c:	dc800215 	stw	r18,8(sp)
     da0:	dc400115 	stw	r17,4(sp)
     da4:	dfc00515 	stw	ra,20(sp)
     da8:	00800044 	movi	r2,1
     dac:	2027883a 	mov	r19,r4
     db0:	80800015 	stw	r2,0(r16)
     db4:	2809883a 	mov	r4,r5
     db8:	2829883a 	mov	r20,r5
     dbc:	3025883a 	mov	r18,r6
     dc0:	3823883a 	mov	r17,r7
     dc4:	00022f40 	call	22f4 <mcapi_trans_valid_buffer_param>
     dc8:	10803fcc 	andi	r2,r2,255
     dcc:	1000021e 	bne	r2,zero,dd8 <mcapi_msg_recv+0x50>
     dd0:	00800104 	movi	r2,4
     dd4:	00000f06 	br	e14 <mcapi_msg_recv+0x8c>
     dd8:	9809883a 	mov	r4,r19
     ddc:	000494c0 	call	494c <mcapi_trans_valid_endpoint>
     de0:	10803fcc 	andi	r2,r2,255
     de4:	1000021e 	bne	r2,zero,df0 <mcapi_msg_recv+0x68>
     de8:	00800304 	movi	r2,12
     dec:	00000906 	br	e14 <mcapi_msg_recv+0x8c>
     df0:	9809883a 	mov	r4,r19
     df4:	a00b883a 	mov	r5,r20
     df8:	900d883a 	mov	r6,r18
     dfc:	880f883a 	mov	r7,r17
     e00:	00080d40 	call	80d4 <mcapi_trans_msg_recv>
     e04:	88800017 	ldw	r2,0(r17)
     e08:	9080032e 	bgeu	r18,r2,e18 <mcapi_msg_recv+0x90>
     e0c:	8c800015 	stw	r18,0(r17)
     e10:	008006c4 	movi	r2,27
     e14:	80800015 	stw	r2,0(r16)
     e18:	dfc00517 	ldw	ra,20(sp)
     e1c:	dd000417 	ldw	r20,16(sp)
     e20:	dcc00317 	ldw	r19,12(sp)
     e24:	dc800217 	ldw	r18,8(sp)
     e28:	dc400117 	ldw	r17,4(sp)
     e2c:	dc000017 	ldw	r16,0(sp)
     e30:	dec00604 	addi	sp,sp,24
     e34:	f800283a 	ret

00000e38 <mcapi_msg_available>:
     e38:	00800044 	movi	r2,1
     e3c:	defffd04 	addi	sp,sp,-12
     e40:	28800015 	stw	r2,0(r5)
     e44:	dc400115 	stw	r17,4(sp)
     e48:	dc000015 	stw	r16,0(sp)
     e4c:	dfc00215 	stw	ra,8(sp)
     e50:	2023883a 	mov	r17,r4
     e54:	2821883a 	mov	r16,r5
     e58:	000494c0 	call	494c <mcapi_trans_valid_endpoint>
     e5c:	10803fcc 	andi	r2,r2,255
     e60:	10000626 	beq	r2,zero,e7c <mcapi_msg_available+0x44>
     e64:	8809883a 	mov	r4,r17
     e68:	dfc00217 	ldw	ra,8(sp)
     e6c:	dc400117 	ldw	r17,4(sp)
     e70:	dc000017 	ldw	r16,0(sp)
     e74:	dec00304 	addi	sp,sp,12
     e78:	0003ee01 	jmpi	3ee0 <mcapi_trans_msg_available>
     e7c:	00800304 	movi	r2,12
     e80:	80800015 	stw	r2,0(r16)
     e84:	0005883a 	mov	r2,zero
     e88:	dfc00217 	ldw	ra,8(sp)
     e8c:	dc400117 	ldw	r17,4(sp)
     e90:	dc000017 	ldw	r16,0(sp)
     e94:	dec00304 	addi	sp,sp,12
     e98:	f800283a 	ret

00000e9c <mcapi_pktchan_connect_i>:
     e9c:	defffb04 	addi	sp,sp,-20
     ea0:	dcc00315 	stw	r19,12(sp)
     ea4:	dc800215 	stw	r18,8(sp)
     ea8:	dc400115 	stw	r17,4(sp)
     eac:	dc000015 	stw	r16,0(sp)
     eb0:	dfc00415 	stw	ra,16(sp)
     eb4:	00800044 	movi	r2,1
     eb8:	38800015 	stw	r2,0(r7)
     ebc:	2025883a 	mov	r18,r4
     ec0:	2823883a 	mov	r17,r5
     ec4:	3027883a 	mov	r19,r6
     ec8:	3821883a 	mov	r16,r7
     ecc:	00048ac0 	call	48ac <mcapi_trans_valid_endpoints>
     ed0:	10803fcc 	andi	r2,r2,255
     ed4:	1000021e 	bne	r2,zero,ee0 <mcapi_pktchan_connect_i+0x44>
     ed8:	00800304 	movi	r2,12
     edc:	00001006 	br	f20 <mcapi_pktchan_connect_i+0x84>
     ee0:	9009883a 	mov	r4,r18
     ee4:	00044a00 	call	44a0 <mcapi_trans_channel_connected>
     ee8:	10803fcc 	andi	r2,r2,255
     eec:	10000226 	beq	r2,zero,ef8 <mcapi_pktchan_connect_i+0x5c>
     ef0:	008007c4 	movi	r2,31
     ef4:	00000a06 	br	f20 <mcapi_pktchan_connect_i+0x84>
     ef8:	8809883a 	mov	r4,r17
     efc:	00044a00 	call	44a0 <mcapi_trans_channel_connected>
     f00:	10803fcc 	andi	r2,r2,255
     f04:	103ffa1e 	bne	r2,zero,ef0 <mcapi_pktchan_connect_i+0x54>
     f08:	9009883a 	mov	r4,r18
     f0c:	880b883a 	mov	r5,r17
     f10:	00022d40 	call	22d4 <mcapi_trans_compatible_endpoint_attributes>
     f14:	10803fcc 	andi	r2,r2,255
     f18:	1000021e 	bne	r2,zero,f24 <mcapi_pktchan_connect_i+0x88>
     f1c:	00800504 	movi	r2,20
     f20:	80800015 	stw	r2,0(r16)
     f24:	9009883a 	mov	r4,r18
     f28:	880b883a 	mov	r5,r17
     f2c:	980d883a 	mov	r6,r19
     f30:	800f883a 	mov	r7,r16
     f34:	dfc00417 	ldw	ra,16(sp)
     f38:	dcc00317 	ldw	r19,12(sp)
     f3c:	dc800217 	ldw	r18,8(sp)
     f40:	dc400117 	ldw	r17,4(sp)
     f44:	dc000017 	ldw	r16,0(sp)
     f48:	dec00504 	addi	sp,sp,20
     f4c:	0004d301 	jmpi	4d30 <mcapi_trans_pktchan_connect_i>

00000f50 <mcapi_pktchan_recv_open_i>:
     f50:	defffb04 	addi	sp,sp,-20
     f54:	dcc00315 	stw	r19,12(sp)
     f58:	dc800215 	stw	r18,8(sp)
     f5c:	dc400115 	stw	r17,4(sp)
     f60:	dc000015 	stw	r16,0(sp)
     f64:	dfc00415 	stw	ra,16(sp)
     f68:	00800044 	movi	r2,1
     f6c:	38800015 	stw	r2,0(r7)
     f70:	2027883a 	mov	r19,r4
     f74:	2823883a 	mov	r17,r5
     f78:	3025883a 	mov	r18,r6
     f7c:	3821883a 	mov	r16,r7
     f80:	3000031e 	bne	r6,zero,f90 <mcapi_pktchan_recv_open_i+0x40>
     f84:	00800104 	movi	r2,4
     f88:	38800015 	stw	r2,0(r7)
     f8c:	00001d06 	br	1004 <mcapi_pktchan_recv_open_i+0xb4>
     f90:	2809883a 	mov	r4,r5
     f94:	000494c0 	call	494c <mcapi_trans_valid_endpoint>
     f98:	10803fcc 	andi	r2,r2,255
     f9c:	1000021e 	bne	r2,zero,fa8 <mcapi_pktchan_recv_open_i+0x58>
     fa0:	00800304 	movi	r2,12
     fa4:	00000b06 	br	fd4 <mcapi_pktchan_recv_open_i+0x84>
     fa8:	8809883a 	mov	r4,r17
     fac:	0004b5c0 	call	4b5c <mcapi_trans_channel_type>
     fb0:	00c00084 	movi	r3,2
     fb4:	10c0021e 	bne	r2,r3,fc0 <mcapi_pktchan_recv_open_i+0x70>
     fb8:	00800744 	movi	r2,29
     fbc:	00000506 	br	fd4 <mcapi_pktchan_recv_open_i+0x84>
     fc0:	8809883a 	mov	r4,r17
     fc4:	00049f40 	call	49f4 <mcapi_trans_recv_endpoint>
     fc8:	10803fcc 	andi	r2,r2,255
     fcc:	1000021e 	bne	r2,zero,fd8 <mcapi_pktchan_recv_open_i+0x88>
     fd0:	00800784 	movi	r2,30
     fd4:	80800015 	stw	r2,0(r16)
     fd8:	9809883a 	mov	r4,r19
     fdc:	880b883a 	mov	r5,r17
     fe0:	900d883a 	mov	r6,r18
     fe4:	800f883a 	mov	r7,r16
     fe8:	dfc00417 	ldw	ra,16(sp)
     fec:	dcc00317 	ldw	r19,12(sp)
     ff0:	dc800217 	ldw	r18,8(sp)
     ff4:	dc400117 	ldw	r17,4(sp)
     ff8:	dc000017 	ldw	r16,0(sp)
     ffc:	dec00504 	addi	sp,sp,20
    1000:	00057d01 	jmpi	57d0 <mcapi_trans_pktchan_recv_open_i>
    1004:	dfc00417 	ldw	ra,16(sp)
    1008:	dcc00317 	ldw	r19,12(sp)
    100c:	dc800217 	ldw	r18,8(sp)
    1010:	dc400117 	ldw	r17,4(sp)
    1014:	dc000017 	ldw	r16,0(sp)
    1018:	dec00504 	addi	sp,sp,20
    101c:	f800283a 	ret

00001020 <mcapi_pktchan_send_open_i>:
    1020:	defffb04 	addi	sp,sp,-20
    1024:	dcc00315 	stw	r19,12(sp)
    1028:	dc800215 	stw	r18,8(sp)
    102c:	dc400115 	stw	r17,4(sp)
    1030:	dc000015 	stw	r16,0(sp)
    1034:	dfc00415 	stw	ra,16(sp)
    1038:	00800044 	movi	r2,1
    103c:	38800015 	stw	r2,0(r7)
    1040:	2027883a 	mov	r19,r4
    1044:	2823883a 	mov	r17,r5
    1048:	3025883a 	mov	r18,r6
    104c:	3821883a 	mov	r16,r7
    1050:	3000031e 	bne	r6,zero,1060 <mcapi_pktchan_send_open_i+0x40>
    1054:	00800104 	movi	r2,4
    1058:	38800015 	stw	r2,0(r7)
    105c:	00001d06 	br	10d4 <mcapi_pktchan_send_open_i+0xb4>
    1060:	2809883a 	mov	r4,r5
    1064:	000494c0 	call	494c <mcapi_trans_valid_endpoint>
    1068:	10803fcc 	andi	r2,r2,255
    106c:	1000021e 	bne	r2,zero,1078 <mcapi_pktchan_send_open_i+0x58>
    1070:	00800304 	movi	r2,12
    1074:	00000b06 	br	10a4 <mcapi_pktchan_send_open_i+0x84>
    1078:	8809883a 	mov	r4,r17
    107c:	0004b5c0 	call	4b5c <mcapi_trans_channel_type>
    1080:	00c00084 	movi	r3,2
    1084:	10c0021e 	bne	r2,r3,1090 <mcapi_pktchan_send_open_i+0x70>
    1088:	00800744 	movi	r2,29
    108c:	00000506 	br	10a4 <mcapi_pktchan_send_open_i+0x84>
    1090:	8809883a 	mov	r4,r17
    1094:	0004aa80 	call	4aa8 <mcapi_trans_send_endpoint>
    1098:	10803fcc 	andi	r2,r2,255
    109c:	1000021e 	bne	r2,zero,10a8 <mcapi_pktchan_send_open_i+0x88>
    10a0:	00800784 	movi	r2,30
    10a4:	80800015 	stw	r2,0(r16)
    10a8:	9809883a 	mov	r4,r19
    10ac:	880b883a 	mov	r5,r17
    10b0:	900d883a 	mov	r6,r18
    10b4:	800f883a 	mov	r7,r16
    10b8:	dfc00417 	ldw	ra,16(sp)
    10bc:	dcc00317 	ldw	r19,12(sp)
    10c0:	dc800217 	ldw	r18,8(sp)
    10c4:	dc400117 	ldw	r17,4(sp)
    10c8:	dc000017 	ldw	r16,0(sp)
    10cc:	dec00504 	addi	sp,sp,20
    10d0:	00055e81 	jmpi	55e8 <mcapi_trans_pktchan_send_open_i>
    10d4:	dfc00417 	ldw	ra,16(sp)
    10d8:	dcc00317 	ldw	r19,12(sp)
    10dc:	dc800217 	ldw	r18,8(sp)
    10e0:	dc400117 	ldw	r17,4(sp)
    10e4:	dc000017 	ldw	r16,0(sp)
    10e8:	dec00504 	addi	sp,sp,20
    10ec:	f800283a 	ret

000010f0 <mcapi_pktchan_send_i>:
    10f0:	defffa04 	addi	sp,sp,-24
    10f4:	dc000315 	stw	r16,12(sp)
    10f8:	dc000617 	ldw	r16,24(sp)
    10fc:	dc400415 	stw	r17,16(sp)
    1100:	dfc00515 	stw	ra,20(sp)
    1104:	00800044 	movi	r2,1
    1108:	80800015 	stw	r2,0(r16)
    110c:	2023883a 	mov	r17,r4
    1110:	3800031e 	bne	r7,zero,1120 <mcapi_pktchan_send_i+0x30>
    1114:	00800104 	movi	r2,4
    1118:	80800015 	stw	r2,0(r16)
    111c:	00001606 	br	1178 <mcapi_pktchan_send_i+0x88>
    1120:	d9400015 	stw	r5,0(sp)
    1124:	d9800115 	stw	r6,4(sp)
    1128:	d9c00215 	stw	r7,8(sp)
    112c:	00043f80 	call	43f8 <mcapi_trans_valid_pktchan_send_handle>
    1130:	10803fcc 	andi	r2,r2,255
    1134:	d9400017 	ldw	r5,0(sp)
    1138:	d9800117 	ldw	r6,4(sp)
    113c:	d9c00217 	ldw	r7,8(sp)
    1140:	1000021e 	bne	r2,zero,114c <mcapi_pktchan_send_i+0x5c>
    1144:	00800884 	movi	r2,34
    1148:	00000306 	br	1158 <mcapi_pktchan_send_i+0x68>
    114c:	00810004 	movi	r2,1024
    1150:	1180022e 	bgeu	r2,r6,115c <mcapi_pktchan_send_i+0x6c>
    1154:	008008c4 	movi	r2,35
    1158:	80800015 	stw	r2,0(r16)
    115c:	8809883a 	mov	r4,r17
    1160:	dc000615 	stw	r16,24(sp)
    1164:	dfc00517 	ldw	ra,20(sp)
    1168:	dc400417 	ldw	r17,16(sp)
    116c:	dc000317 	ldw	r16,12(sp)
    1170:	dec00604 	addi	sp,sp,24
    1174:	00071581 	jmpi	7158 <mcapi_trans_pktchan_send_i>
    1178:	dfc00517 	ldw	ra,20(sp)
    117c:	dc400417 	ldw	r17,16(sp)
    1180:	dc000317 	ldw	r16,12(sp)
    1184:	dec00604 	addi	sp,sp,24
    1188:	f800283a 	ret

0000118c <mcapi_pktchan_send>:
    118c:	00800044 	movi	r2,1
    1190:	defffb04 	addi	sp,sp,-20
    1194:	38800015 	stw	r2,0(r7)
    1198:	dc400315 	stw	r17,12(sp)
    119c:	dc000215 	stw	r16,8(sp)
    11a0:	d9400015 	stw	r5,0(sp)
    11a4:	d9800115 	stw	r6,4(sp)
    11a8:	dfc00415 	stw	ra,16(sp)
    11ac:	2023883a 	mov	r17,r4
    11b0:	3821883a 	mov	r16,r7
    11b4:	00043f80 	call	43f8 <mcapi_trans_valid_pktchan_send_handle>
    11b8:	10803fcc 	andi	r2,r2,255
    11bc:	d9400017 	ldw	r5,0(sp)
    11c0:	d9800117 	ldw	r6,4(sp)
    11c4:	1000021e 	bne	r2,zero,11d0 <mcapi_pktchan_send+0x44>
    11c8:	00800884 	movi	r2,34
    11cc:	00000906 	br	11f4 <mcapi_pktchan_send+0x68>
    11d0:	00810004 	movi	r2,1024
    11d4:	1180022e 	bgeu	r2,r6,11e0 <mcapi_pktchan_send+0x54>
    11d8:	008008c4 	movi	r2,35
    11dc:	00000506 	br	11f4 <mcapi_pktchan_send+0x68>
    11e0:	8809883a 	mov	r4,r17
    11e4:	00074380 	call	7438 <mcapi_trans_pktchan_send>
    11e8:	10803fcc 	andi	r2,r2,255
    11ec:	1000021e 	bne	r2,zero,11f8 <mcapi_pktchan_send+0x6c>
    11f0:	00800a04 	movi	r2,40
    11f4:	80800015 	stw	r2,0(r16)
    11f8:	dfc00417 	ldw	ra,16(sp)
    11fc:	dc400317 	ldw	r17,12(sp)
    1200:	dc000217 	ldw	r16,8(sp)
    1204:	dec00504 	addi	sp,sp,20
    1208:	f800283a 	ret

0000120c <mcapi_pktchan_recv_i>:
    120c:	defffb04 	addi	sp,sp,-20
    1210:	dcc00315 	stw	r19,12(sp)
    1214:	dc800215 	stw	r18,8(sp)
    1218:	dc400115 	stw	r17,4(sp)
    121c:	dc000015 	stw	r16,0(sp)
    1220:	dfc00415 	stw	ra,16(sp)
    1224:	00800044 	movi	r2,1
    1228:	38800015 	stw	r2,0(r7)
    122c:	2023883a 	mov	r17,r4
    1230:	2827883a 	mov	r19,r5
    1234:	3025883a 	mov	r18,r6
    1238:	3821883a 	mov	r16,r7
    123c:	3000031e 	bne	r6,zero,124c <mcapi_pktchan_recv_i+0x40>
    1240:	00800104 	movi	r2,4
    1244:	38800015 	stw	r2,0(r7)
    1248:	00001706 	br	12a8 <mcapi_pktchan_recv_i+0x9c>
    124c:	2809883a 	mov	r4,r5
    1250:	00022f40 	call	22f4 <mcapi_trans_valid_buffer_param>
    1254:	10803fcc 	andi	r2,r2,255
    1258:	1000021e 	bne	r2,zero,1264 <mcapi_pktchan_recv_i+0x58>
    125c:	00800104 	movi	r2,4
    1260:	00000506 	br	1278 <mcapi_pktchan_recv_i+0x6c>
    1264:	8809883a 	mov	r4,r17
    1268:	00043500 	call	4350 <mcapi_trans_valid_pktchan_recv_handle>
    126c:	10803fcc 	andi	r2,r2,255
    1270:	1000021e 	bne	r2,zero,127c <mcapi_pktchan_recv_i+0x70>
    1274:	00800884 	movi	r2,34
    1278:	80800015 	stw	r2,0(r16)
    127c:	8809883a 	mov	r4,r17
    1280:	980b883a 	mov	r5,r19
    1284:	900d883a 	mov	r6,r18
    1288:	800f883a 	mov	r7,r16
    128c:	dfc00417 	ldw	ra,16(sp)
    1290:	dcc00317 	ldw	r19,12(sp)
    1294:	dc800217 	ldw	r18,8(sp)
    1298:	dc400117 	ldw	r17,4(sp)
    129c:	dc000017 	ldw	r16,0(sp)
    12a0:	dec00504 	addi	sp,sp,20
    12a4:	0007d541 	jmpi	7d54 <mcapi_trans_pktchan_recv_i>
    12a8:	dfc00417 	ldw	ra,16(sp)
    12ac:	dcc00317 	ldw	r19,12(sp)
    12b0:	dc800217 	ldw	r18,8(sp)
    12b4:	dc400117 	ldw	r17,4(sp)
    12b8:	dc000017 	ldw	r16,0(sp)
    12bc:	dec00504 	addi	sp,sp,20
    12c0:	f800283a 	ret

000012c4 <mcapi_pktchan_recv>:
    12c4:	defffb04 	addi	sp,sp,-20
    12c8:	00800044 	movi	r2,1
    12cc:	dc800215 	stw	r18,8(sp)
    12d0:	38800015 	stw	r2,0(r7)
    12d4:	2025883a 	mov	r18,r4
    12d8:	2809883a 	mov	r4,r5
    12dc:	dcc00315 	stw	r19,12(sp)
    12e0:	dc400115 	stw	r17,4(sp)
    12e4:	dc000015 	stw	r16,0(sp)
    12e8:	dfc00415 	stw	ra,16(sp)
    12ec:	2827883a 	mov	r19,r5
    12f0:	3023883a 	mov	r17,r6
    12f4:	3821883a 	mov	r16,r7
    12f8:	00022f40 	call	22f4 <mcapi_trans_valid_buffer_param>
    12fc:	10803fcc 	andi	r2,r2,255
    1300:	1000021e 	bne	r2,zero,130c <mcapi_pktchan_recv+0x48>
    1304:	00800104 	movi	r2,4
    1308:	00001206 	br	1354 <mcapi_pktchan_recv+0x90>
    130c:	9009883a 	mov	r4,r18
    1310:	00043500 	call	4350 <mcapi_trans_valid_pktchan_recv_handle>
    1314:	10803fcc 	andi	r2,r2,255
    1318:	1000021e 	bne	r2,zero,1324 <mcapi_pktchan_recv+0x60>
    131c:	00800884 	movi	r2,34
    1320:	00000c06 	br	1354 <mcapi_pktchan_recv+0x90>
    1324:	9009883a 	mov	r4,r18
    1328:	980b883a 	mov	r5,r19
    132c:	880d883a 	mov	r6,r17
    1330:	0007ea40 	call	7ea4 <mcapi_trans_pktchan_recv>
    1334:	10803fcc 	andi	r2,r2,255
    1338:	10000526 	beq	r2,zero,1350 <mcapi_pktchan_recv+0x8c>
    133c:	88800017 	ldw	r2,0(r17)
    1340:	00c10004 	movi	r3,1024
    1344:	1880042e 	bgeu	r3,r2,1358 <mcapi_pktchan_recv+0x94>
    1348:	008008c4 	movi	r2,35
    134c:	00000106 	br	1354 <mcapi_pktchan_recv+0x90>
    1350:	00800a04 	movi	r2,40
    1354:	80800015 	stw	r2,0(r16)
    1358:	dfc00417 	ldw	ra,16(sp)
    135c:	dcc00317 	ldw	r19,12(sp)
    1360:	dc800217 	ldw	r18,8(sp)
    1364:	dc400117 	ldw	r17,4(sp)
    1368:	dc000017 	ldw	r16,0(sp)
    136c:	dec00504 	addi	sp,sp,20
    1370:	f800283a 	ret

00001374 <mcapi_pktchan_available>:
    1374:	00800044 	movi	r2,1
    1378:	defffd04 	addi	sp,sp,-12
    137c:	28800015 	stw	r2,0(r5)
    1380:	dc400115 	stw	r17,4(sp)
    1384:	dc000015 	stw	r16,0(sp)
    1388:	dfc00215 	stw	ra,8(sp)
    138c:	2023883a 	mov	r17,r4
    1390:	2821883a 	mov	r16,r5
    1394:	00043500 	call	4350 <mcapi_trans_valid_pktchan_recv_handle>
    1398:	10803fcc 	andi	r2,r2,255
    139c:	10000626 	beq	r2,zero,13b8 <mcapi_pktchan_available+0x44>
    13a0:	8809883a 	mov	r4,r17
    13a4:	dfc00217 	ldw	ra,8(sp)
    13a8:	dc400117 	ldw	r17,4(sp)
    13ac:	dc000017 	ldw	r16,0(sp)
    13b0:	dec00304 	addi	sp,sp,12
    13b4:	0003e341 	jmpi	3e34 <mcapi_trans_pktchan_available>
    13b8:	00800884 	movi	r2,34
    13bc:	80800015 	stw	r2,0(r16)
    13c0:	0005883a 	mov	r2,zero
    13c4:	dfc00217 	ldw	ra,8(sp)
    13c8:	dc400117 	ldw	r17,4(sp)
    13cc:	dc000017 	ldw	r16,0(sp)
    13d0:	dec00304 	addi	sp,sp,12
    13d4:	f800283a 	ret

000013d8 <mcapi_pktchan_release>:
    13d8:	00800044 	movi	r2,1
    13dc:	defffe04 	addi	sp,sp,-8
    13e0:	28800015 	stw	r2,0(r5)
    13e4:	dc000015 	stw	r16,0(sp)
    13e8:	dfc00115 	stw	ra,4(sp)
    13ec:	2821883a 	mov	r16,r5
    13f0:	00026400 	call	2640 <mcapi_trans_pktchan_free>
    13f4:	10803fcc 	andi	r2,r2,255
    13f8:	1000021e 	bne	r2,zero,1404 <mcapi_pktchan_release+0x2c>
    13fc:	008009c4 	movi	r2,39
    1400:	80800015 	stw	r2,0(r16)
    1404:	dfc00117 	ldw	ra,4(sp)
    1408:	dc000017 	ldw	r16,0(sp)
    140c:	dec00204 	addi	sp,sp,8
    1410:	f800283a 	ret

00001414 <mcapi_pktchan_recv_close_i>:
    1414:	defffc04 	addi	sp,sp,-16
    1418:	dc800215 	stw	r18,8(sp)
    141c:	dc400115 	stw	r17,4(sp)
    1420:	dc000015 	stw	r16,0(sp)
    1424:	dfc00315 	stw	ra,12(sp)
    1428:	00800044 	movi	r2,1
    142c:	30800015 	stw	r2,0(r6)
    1430:	2023883a 	mov	r17,r4
    1434:	2825883a 	mov	r18,r5
    1438:	3021883a 	mov	r16,r6
    143c:	2800031e 	bne	r5,zero,144c <mcapi_pktchan_recv_close_i+0x38>
    1440:	00800104 	movi	r2,4
    1444:	30800015 	stw	r2,0(r6)
    1448:	00001406 	br	149c <mcapi_pktchan_recv_close_i+0x88>
    144c:	00043500 	call	4350 <mcapi_trans_valid_pktchan_recv_handle>
    1450:	10803fcc 	andi	r2,r2,255
    1454:	1000021e 	bne	r2,zero,1460 <mcapi_pktchan_recv_close_i+0x4c>
    1458:	00800884 	movi	r2,34
    145c:	00000506 	br	1474 <mcapi_pktchan_recv_close_i+0x60>
    1460:	8809883a 	mov	r4,r17
    1464:	00046440 	call	4644 <mcapi_trans_pktchan_recv_isopen>
    1468:	10803fcc 	andi	r2,r2,255
    146c:	1000021e 	bne	r2,zero,1478 <mcapi_pktchan_recv_close_i+0x64>
    1470:	00800844 	movi	r2,33
    1474:	80800015 	stw	r2,0(r16)
    1478:	8809883a 	mov	r4,r17
    147c:	900b883a 	mov	r5,r18
    1480:	800d883a 	mov	r6,r16
    1484:	dfc00317 	ldw	ra,12(sp)
    1488:	dc800217 	ldw	r18,8(sp)
    148c:	dc400117 	ldw	r17,4(sp)
    1490:	dc000017 	ldw	r16,0(sp)
    1494:	dec00404 	addi	sp,sp,16
    1498:	00084541 	jmpi	8454 <mcapi_trans_pktchan_recv_close_i>
    149c:	dfc00317 	ldw	ra,12(sp)
    14a0:	dc800217 	ldw	r18,8(sp)
    14a4:	dc400117 	ldw	r17,4(sp)
    14a8:	dc000017 	ldw	r16,0(sp)
    14ac:	dec00404 	addi	sp,sp,16
    14b0:	f800283a 	ret

000014b4 <mcapi_pktchan_send_close_i>:
    14b4:	defffc04 	addi	sp,sp,-16
    14b8:	dc800215 	stw	r18,8(sp)
    14bc:	dc400115 	stw	r17,4(sp)
    14c0:	dc000015 	stw	r16,0(sp)
    14c4:	dfc00315 	stw	ra,12(sp)
    14c8:	00800044 	movi	r2,1
    14cc:	30800015 	stw	r2,0(r6)
    14d0:	2023883a 	mov	r17,r4
    14d4:	2825883a 	mov	r18,r5
    14d8:	3021883a 	mov	r16,r6
    14dc:	2800031e 	bne	r5,zero,14ec <mcapi_pktchan_send_close_i+0x38>
    14e0:	00800104 	movi	r2,4
    14e4:	30800015 	stw	r2,0(r6)
    14e8:	00001406 	br	153c <mcapi_pktchan_send_close_i+0x88>
    14ec:	00043500 	call	4350 <mcapi_trans_valid_pktchan_recv_handle>
    14f0:	10803fcc 	andi	r2,r2,255
    14f4:	1000021e 	bne	r2,zero,1500 <mcapi_pktchan_send_close_i+0x4c>
    14f8:	00800884 	movi	r2,34
    14fc:	00000506 	br	1514 <mcapi_pktchan_send_close_i+0x60>
    1500:	8809883a 	mov	r4,r17
    1504:	00046400 	call	4640 <mcapi_trans_pktchan_send_isopen>
    1508:	10803fcc 	andi	r2,r2,255
    150c:	1000021e 	bne	r2,zero,1518 <mcapi_pktchan_send_close_i+0x64>
    1510:	00800844 	movi	r2,33
    1514:	80800015 	stw	r2,0(r16)
    1518:	8809883a 	mov	r4,r17
    151c:	900b883a 	mov	r5,r18
    1520:	800d883a 	mov	r6,r16
    1524:	dfc00317 	ldw	ra,12(sp)
    1528:	dc800217 	ldw	r18,8(sp)
    152c:	dc400117 	ldw	r17,4(sp)
    1530:	dc000017 	ldw	r16,0(sp)
    1534:	dec00404 	addi	sp,sp,16
    1538:	000540c1 	jmpi	540c <mcapi_trans_pktchan_send_close_i>
    153c:	dfc00317 	ldw	ra,12(sp)
    1540:	dc800217 	ldw	r18,8(sp)
    1544:	dc400117 	ldw	r17,4(sp)
    1548:	dc000017 	ldw	r16,0(sp)
    154c:	dec00404 	addi	sp,sp,16
    1550:	f800283a 	ret

00001554 <mcapi_sclchan_connect_i>:
    1554:	defffb04 	addi	sp,sp,-20
    1558:	dcc00315 	stw	r19,12(sp)
    155c:	dc800215 	stw	r18,8(sp)
    1560:	dc400115 	stw	r17,4(sp)
    1564:	dc000015 	stw	r16,0(sp)
    1568:	dfc00415 	stw	ra,16(sp)
    156c:	00800044 	movi	r2,1
    1570:	38800015 	stw	r2,0(r7)
    1574:	2025883a 	mov	r18,r4
    1578:	2823883a 	mov	r17,r5
    157c:	3027883a 	mov	r19,r6
    1580:	3821883a 	mov	r16,r7
    1584:	3000031e 	bne	r6,zero,1594 <mcapi_sclchan_connect_i+0x40>
    1588:	00800104 	movi	r2,4
    158c:	38800015 	stw	r2,0(r7)
    1590:	00002106 	br	1618 <mcapi_sclchan_connect_i+0xc4>
    1594:	00048ac0 	call	48ac <mcapi_trans_valid_endpoints>
    1598:	10803fcc 	andi	r2,r2,255
    159c:	1000021e 	bne	r2,zero,15a8 <mcapi_sclchan_connect_i+0x54>
    15a0:	00800304 	movi	r2,12
    15a4:	00001006 	br	15e8 <mcapi_sclchan_connect_i+0x94>
    15a8:	9009883a 	mov	r4,r18
    15ac:	00044a00 	call	44a0 <mcapi_trans_channel_connected>
    15b0:	10803fcc 	andi	r2,r2,255
    15b4:	10000226 	beq	r2,zero,15c0 <mcapi_sclchan_connect_i+0x6c>
    15b8:	008007c4 	movi	r2,31
    15bc:	00000a06 	br	15e8 <mcapi_sclchan_connect_i+0x94>
    15c0:	8809883a 	mov	r4,r17
    15c4:	00044a00 	call	44a0 <mcapi_trans_channel_connected>
    15c8:	10803fcc 	andi	r2,r2,255
    15cc:	103ffa1e 	bne	r2,zero,15b8 <mcapi_sclchan_connect_i+0x64>
    15d0:	9009883a 	mov	r4,r18
    15d4:	880b883a 	mov	r5,r17
    15d8:	00022d40 	call	22d4 <mcapi_trans_compatible_endpoint_attributes>
    15dc:	10803fcc 	andi	r2,r2,255
    15e0:	1000021e 	bne	r2,zero,15ec <mcapi_sclchan_connect_i+0x98>
    15e4:	00800504 	movi	r2,20
    15e8:	80800015 	stw	r2,0(r16)
    15ec:	9009883a 	mov	r4,r18
    15f0:	880b883a 	mov	r5,r17
    15f4:	980d883a 	mov	r6,r19
    15f8:	800f883a 	mov	r7,r16
    15fc:	dfc00417 	ldw	ra,16(sp)
    1600:	dcc00317 	ldw	r19,12(sp)
    1604:	dc800217 	ldw	r18,8(sp)
    1608:	dc400117 	ldw	r17,4(sp)
    160c:	dc000017 	ldw	r16,0(sp)
    1610:	dec00504 	addi	sp,sp,20
    1614:	0004c081 	jmpi	4c08 <mcapi_trans_sclchan_connect_i>
    1618:	dfc00417 	ldw	ra,16(sp)
    161c:	dcc00317 	ldw	r19,12(sp)
    1620:	dc800217 	ldw	r18,8(sp)
    1624:	dc400117 	ldw	r17,4(sp)
    1628:	dc000017 	ldw	r16,0(sp)
    162c:	dec00504 	addi	sp,sp,20
    1630:	f800283a 	ret

00001634 <mcapi_sclchan_recv_open_i>:
    1634:	defffa04 	addi	sp,sp,-24
    1638:	dd000415 	stw	r20,16(sp)
    163c:	dcc00315 	stw	r19,12(sp)
    1640:	dc800215 	stw	r18,8(sp)
    1644:	dc400115 	stw	r17,4(sp)
    1648:	dc000015 	stw	r16,0(sp)
    164c:	dfc00515 	stw	ra,20(sp)
    1650:	04c00044 	movi	r19,1
    1654:	3cc00015 	stw	r19,0(r7)
    1658:	2029883a 	mov	r20,r4
    165c:	2823883a 	mov	r17,r5
    1660:	3025883a 	mov	r18,r6
    1664:	3821883a 	mov	r16,r7
    1668:	3000031e 	bne	r6,zero,1678 <mcapi_sclchan_recv_open_i+0x44>
    166c:	00800104 	movi	r2,4
    1670:	38800015 	stw	r2,0(r7)
    1674:	00001d06 	br	16ec <mcapi_sclchan_recv_open_i+0xb8>
    1678:	2809883a 	mov	r4,r5
    167c:	000494c0 	call	494c <mcapi_trans_valid_endpoint>
    1680:	10803fcc 	andi	r2,r2,255
    1684:	1000021e 	bne	r2,zero,1690 <mcapi_sclchan_recv_open_i+0x5c>
    1688:	00800304 	movi	r2,12
    168c:	00000a06 	br	16b8 <mcapi_sclchan_recv_open_i+0x84>
    1690:	8809883a 	mov	r4,r17
    1694:	0004b5c0 	call	4b5c <mcapi_trans_channel_type>
    1698:	14c0021e 	bne	r2,r19,16a4 <mcapi_sclchan_recv_open_i+0x70>
    169c:	00800744 	movi	r2,29
    16a0:	00000506 	br	16b8 <mcapi_sclchan_recv_open_i+0x84>
    16a4:	8809883a 	mov	r4,r17
    16a8:	00049f40 	call	49f4 <mcapi_trans_recv_endpoint>
    16ac:	10803fcc 	andi	r2,r2,255
    16b0:	1000021e 	bne	r2,zero,16bc <mcapi_sclchan_recv_open_i+0x88>
    16b4:	00800784 	movi	r2,30
    16b8:	80800015 	stw	r2,0(r16)
    16bc:	a009883a 	mov	r4,r20
    16c0:	880b883a 	mov	r5,r17
    16c4:	900d883a 	mov	r6,r18
    16c8:	800f883a 	mov	r7,r16
    16cc:	dfc00517 	ldw	ra,20(sp)
    16d0:	dd000417 	ldw	r20,16(sp)
    16d4:	dcc00317 	ldw	r19,12(sp)
    16d8:	dc800217 	ldw	r18,8(sp)
    16dc:	dc400117 	ldw	r17,4(sp)
    16e0:	dc000017 	ldw	r16,0(sp)
    16e4:	dec00604 	addi	sp,sp,24
    16e8:	00052201 	jmpi	5220 <mcapi_trans_sclchan_recv_open_i>
    16ec:	dfc00517 	ldw	ra,20(sp)
    16f0:	dd000417 	ldw	r20,16(sp)
    16f4:	dcc00317 	ldw	r19,12(sp)
    16f8:	dc800217 	ldw	r18,8(sp)
    16fc:	dc400117 	ldw	r17,4(sp)
    1700:	dc000017 	ldw	r16,0(sp)
    1704:	dec00604 	addi	sp,sp,24
    1708:	f800283a 	ret

0000170c <mcapi_sclchan_send_open_i>:
    170c:	defffa04 	addi	sp,sp,-24
    1710:	dd000415 	stw	r20,16(sp)
    1714:	dcc00315 	stw	r19,12(sp)
    1718:	dc800215 	stw	r18,8(sp)
    171c:	dc400115 	stw	r17,4(sp)
    1720:	dc000015 	stw	r16,0(sp)
    1724:	dfc00515 	stw	ra,20(sp)
    1728:	04c00044 	movi	r19,1
    172c:	3cc00015 	stw	r19,0(r7)
    1730:	2029883a 	mov	r20,r4
    1734:	2823883a 	mov	r17,r5
    1738:	3025883a 	mov	r18,r6
    173c:	3821883a 	mov	r16,r7
    1740:	3000031e 	bne	r6,zero,1750 <mcapi_sclchan_send_open_i+0x44>
    1744:	00800104 	movi	r2,4
    1748:	38800015 	stw	r2,0(r7)
    174c:	00001d06 	br	17c4 <mcapi_sclchan_send_open_i+0xb8>
    1750:	2809883a 	mov	r4,r5
    1754:	000494c0 	call	494c <mcapi_trans_valid_endpoint>
    1758:	10803fcc 	andi	r2,r2,255
    175c:	1000021e 	bne	r2,zero,1768 <mcapi_sclchan_send_open_i+0x5c>
    1760:	00800304 	movi	r2,12
    1764:	00000a06 	br	1790 <mcapi_sclchan_send_open_i+0x84>
    1768:	8809883a 	mov	r4,r17
    176c:	0004b5c0 	call	4b5c <mcapi_trans_channel_type>
    1770:	14c0021e 	bne	r2,r19,177c <mcapi_sclchan_send_open_i+0x70>
    1774:	00800744 	movi	r2,29
    1778:	00000506 	br	1790 <mcapi_sclchan_send_open_i+0x84>
    177c:	8809883a 	mov	r4,r17
    1780:	0004aa80 	call	4aa8 <mcapi_trans_send_endpoint>
    1784:	10803fcc 	andi	r2,r2,255
    1788:	1000021e 	bne	r2,zero,1794 <mcapi_sclchan_send_open_i+0x88>
    178c:	00800784 	movi	r2,30
    1790:	80800015 	stw	r2,0(r16)
    1794:	a009883a 	mov	r4,r20
    1798:	880b883a 	mov	r5,r17
    179c:	900d883a 	mov	r6,r18
    17a0:	800f883a 	mov	r7,r16
    17a4:	dfc00517 	ldw	ra,20(sp)
    17a8:	dd000417 	ldw	r20,16(sp)
    17ac:	dcc00317 	ldw	r19,12(sp)
    17b0:	dc800217 	ldw	r18,8(sp)
    17b4:	dc400117 	ldw	r17,4(sp)
    17b8:	dc000017 	ldw	r16,0(sp)
    17bc:	dec00604 	addi	sp,sp,24
    17c0:	00050341 	jmpi	5034 <mcapi_trans_sclchan_send_open_i>
    17c4:	dfc00517 	ldw	ra,20(sp)
    17c8:	dd000417 	ldw	r20,16(sp)
    17cc:	dcc00317 	ldw	r19,12(sp)
    17d0:	dc800217 	ldw	r18,8(sp)
    17d4:	dc400117 	ldw	r17,4(sp)
    17d8:	dc000017 	ldw	r16,0(sp)
    17dc:	dec00604 	addi	sp,sp,24
    17e0:	f800283a 	ret

000017e4 <mcapi_sclchan_send_uint64>:
    17e4:	defffb04 	addi	sp,sp,-20
    17e8:	dc400315 	stw	r17,12(sp)
    17ec:	dc000215 	stw	r16,8(sp)
    17f0:	dfc00415 	stw	ra,16(sp)
    17f4:	00800044 	movi	r2,1
    17f8:	38800015 	stw	r2,0(r7)
    17fc:	d9400015 	stw	r5,0(sp)
    1800:	d9800115 	stw	r6,4(sp)
    1804:	2023883a 	mov	r17,r4
    1808:	3821883a 	mov	r16,r7
    180c:	00042a80 	call	42a8 <mcapi_trans_valid_sclchan_send_handle>
    1810:	10803fcc 	andi	r2,r2,255
    1814:	d9400017 	ldw	r5,0(sp)
    1818:	d9800117 	ldw	r6,4(sp)
    181c:	1000021e 	bne	r2,zero,1828 <mcapi_sclchan_send_uint64+0x44>
    1820:	00800884 	movi	r2,34
    1824:	00000606 	br	1840 <mcapi_sclchan_send_uint64+0x5c>
    1828:	8809883a 	mov	r4,r17
    182c:	01c00204 	movi	r7,8
    1830:	0006fbc0 	call	6fbc <mcapi_trans_sclchan_send>
    1834:	10803fcc 	andi	r2,r2,255
    1838:	1000021e 	bne	r2,zero,1844 <mcapi_sclchan_send_uint64+0x60>
    183c:	00800a04 	movi	r2,40
    1840:	80800015 	stw	r2,0(r16)
    1844:	dfc00417 	ldw	ra,16(sp)
    1848:	dc400317 	ldw	r17,12(sp)
    184c:	dc000217 	ldw	r16,8(sp)
    1850:	dec00504 	addi	sp,sp,20
    1854:	f800283a 	ret

00001858 <mcapi_sclchan_send_uint32>:
    1858:	defffc04 	addi	sp,sp,-16
    185c:	dc400115 	stw	r17,4(sp)
    1860:	2023883a 	mov	r17,r4
    1864:	3009883a 	mov	r4,r6
    1868:	dc800215 	stw	r18,8(sp)
    186c:	dc000015 	stw	r16,0(sp)
    1870:	dfc00315 	stw	ra,12(sp)
    1874:	2825883a 	mov	r18,r5
    1878:	3021883a 	mov	r16,r6
    187c:	00022e40 	call	22e4 <mcapi_trans_valid_status_param>
    1880:	10803fcc 	andi	r2,r2,255
    1884:	1000031e 	bne	r2,zero,1894 <mcapi_sclchan_send_uint32+0x3c>
    1888:	80001326 	beq	r16,zero,18d8 <mcapi_sclchan_send_uint32+0x80>
    188c:	00800104 	movi	r2,4
    1890:	00001006 	br	18d4 <mcapi_sclchan_send_uint32+0x7c>
    1894:	00800044 	movi	r2,1
    1898:	80800015 	stw	r2,0(r16)
    189c:	8809883a 	mov	r4,r17
    18a0:	00042a80 	call	42a8 <mcapi_trans_valid_sclchan_send_handle>
    18a4:	10803fcc 	andi	r2,r2,255
    18a8:	1000021e 	bne	r2,zero,18b4 <mcapi_sclchan_send_uint32+0x5c>
    18ac:	00800884 	movi	r2,34
    18b0:	00000806 	br	18d4 <mcapi_sclchan_send_uint32+0x7c>
    18b4:	8809883a 	mov	r4,r17
    18b8:	900b883a 	mov	r5,r18
    18bc:	000d883a 	mov	r6,zero
    18c0:	01c00104 	movi	r7,4
    18c4:	0006fbc0 	call	6fbc <mcapi_trans_sclchan_send>
    18c8:	10803fcc 	andi	r2,r2,255
    18cc:	1000021e 	bne	r2,zero,18d8 <mcapi_sclchan_send_uint32+0x80>
    18d0:	00800a04 	movi	r2,40
    18d4:	80800015 	stw	r2,0(r16)
    18d8:	dfc00317 	ldw	ra,12(sp)
    18dc:	dc800217 	ldw	r18,8(sp)
    18e0:	dc400117 	ldw	r17,4(sp)
    18e4:	dc000017 	ldw	r16,0(sp)
    18e8:	dec00404 	addi	sp,sp,16
    18ec:	f800283a 	ret

000018f0 <mcapi_sclchan_send_uint16>:
    18f0:	defffc04 	addi	sp,sp,-16
    18f4:	dc800215 	stw	r18,8(sp)
    18f8:	dc400115 	stw	r17,4(sp)
    18fc:	dc000015 	stw	r16,0(sp)
    1900:	dfc00315 	stw	ra,12(sp)
    1904:	00800044 	movi	r2,1
    1908:	30800015 	stw	r2,0(r6)
    190c:	2023883a 	mov	r17,r4
    1910:	3021883a 	mov	r16,r6
    1914:	2825883a 	mov	r18,r5
    1918:	00042a80 	call	42a8 <mcapi_trans_valid_sclchan_send_handle>
    191c:	10803fcc 	andi	r2,r2,255
    1920:	1000021e 	bne	r2,zero,192c <mcapi_sclchan_send_uint16+0x3c>
    1924:	00800884 	movi	r2,34
    1928:	00000806 	br	194c <mcapi_sclchan_send_uint16+0x5c>
    192c:	8809883a 	mov	r4,r17
    1930:	917fffcc 	andi	r5,r18,65535
    1934:	000d883a 	mov	r6,zero
    1938:	01c00084 	movi	r7,2
    193c:	0006fbc0 	call	6fbc <mcapi_trans_sclchan_send>
    1940:	10803fcc 	andi	r2,r2,255
    1944:	1000021e 	bne	r2,zero,1950 <mcapi_sclchan_send_uint16+0x60>
    1948:	00800a04 	movi	r2,40
    194c:	80800015 	stw	r2,0(r16)
    1950:	dfc00317 	ldw	ra,12(sp)
    1954:	dc800217 	ldw	r18,8(sp)
    1958:	dc400117 	ldw	r17,4(sp)
    195c:	dc000017 	ldw	r16,0(sp)
    1960:	dec00404 	addi	sp,sp,16
    1964:	f800283a 	ret

00001968 <mcapi_sclchan_send_uint8>:
    1968:	defffb04 	addi	sp,sp,-20
    196c:	dcc00315 	stw	r19,12(sp)
    1970:	dc800215 	stw	r18,8(sp)
    1974:	dc400115 	stw	r17,4(sp)
    1978:	dc000015 	stw	r16,0(sp)
    197c:	dfc00415 	stw	ra,16(sp)
    1980:	04400044 	movi	r17,1
    1984:	34400015 	stw	r17,0(r6)
    1988:	2025883a 	mov	r18,r4
    198c:	3021883a 	mov	r16,r6
    1990:	2827883a 	mov	r19,r5
    1994:	00042a80 	call	42a8 <mcapi_trans_valid_sclchan_send_handle>
    1998:	10803fcc 	andi	r2,r2,255
    199c:	1000021e 	bne	r2,zero,19a8 <mcapi_sclchan_send_uint8+0x40>
    19a0:	00800884 	movi	r2,34
    19a4:	00000806 	br	19c8 <mcapi_sclchan_send_uint8+0x60>
    19a8:	9009883a 	mov	r4,r18
    19ac:	99403fcc 	andi	r5,r19,255
    19b0:	000d883a 	mov	r6,zero
    19b4:	880f883a 	mov	r7,r17
    19b8:	0006fbc0 	call	6fbc <mcapi_trans_sclchan_send>
    19bc:	10803fcc 	andi	r2,r2,255
    19c0:	1000021e 	bne	r2,zero,19cc <mcapi_sclchan_send_uint8+0x64>
    19c4:	00800a04 	movi	r2,40
    19c8:	80800015 	stw	r2,0(r16)
    19cc:	dfc00417 	ldw	ra,16(sp)
    19d0:	dcc00317 	ldw	r19,12(sp)
    19d4:	dc800217 	ldw	r18,8(sp)
    19d8:	dc400117 	ldw	r17,4(sp)
    19dc:	dc000017 	ldw	r16,0(sp)
    19e0:	dec00504 	addi	sp,sp,20
    19e4:	f800283a 	ret

000019e8 <mcapi_sclchan_recv_uint64>:
    19e8:	defffb04 	addi	sp,sp,-20
    19ec:	dc400315 	stw	r17,12(sp)
    19f0:	dc000215 	stw	r16,8(sp)
    19f4:	dfc00415 	stw	ra,16(sp)
    19f8:	00800044 	movi	r2,1
    19fc:	28800015 	stw	r2,0(r5)
    1a00:	2023883a 	mov	r17,r4
    1a04:	2821883a 	mov	r16,r5
    1a08:	d8000015 	stw	zero,0(sp)
    1a0c:	d8000115 	stw	zero,4(sp)
    1a10:	00042000 	call	4200 <mcapi_trans_valid_sclchan_recv_handle>
    1a14:	10803fcc 	andi	r2,r2,255
    1a18:	1000021e 	bne	r2,zero,1a24 <mcapi_sclchan_recv_uint64+0x3c>
    1a1c:	00800884 	movi	r2,34
    1a20:	00000706 	br	1a40 <mcapi_sclchan_recv_uint64+0x58>
    1a24:	8809883a 	mov	r4,r17
    1a28:	d80b883a 	mov	r5,sp
    1a2c:	01800204 	movi	r6,8
    1a30:	0007c7c0 	call	7c7c <mcapi_trans_sclchan_recv>
    1a34:	10803fcc 	andi	r2,r2,255
    1a38:	1000021e 	bne	r2,zero,1a44 <mcapi_sclchan_recv_uint64+0x5c>
    1a3c:	00800904 	movi	r2,36
    1a40:	80800015 	stw	r2,0(r16)
    1a44:	d8800017 	ldw	r2,0(sp)
    1a48:	d8c00117 	ldw	r3,4(sp)
    1a4c:	dfc00417 	ldw	ra,16(sp)
    1a50:	dc400317 	ldw	r17,12(sp)
    1a54:	dc000217 	ldw	r16,8(sp)
    1a58:	dec00504 	addi	sp,sp,20
    1a5c:	f800283a 	ret

00001a60 <mcapi_sclchan_recv_uint32>:
    1a60:	defffb04 	addi	sp,sp,-20
    1a64:	dc400315 	stw	r17,12(sp)
    1a68:	dc000215 	stw	r16,8(sp)
    1a6c:	dfc00415 	stw	ra,16(sp)
    1a70:	00800044 	movi	r2,1
    1a74:	28800015 	stw	r2,0(r5)
    1a78:	2023883a 	mov	r17,r4
    1a7c:	2821883a 	mov	r16,r5
    1a80:	d8000015 	stw	zero,0(sp)
    1a84:	d8000115 	stw	zero,4(sp)
    1a88:	00042000 	call	4200 <mcapi_trans_valid_sclchan_recv_handle>
    1a8c:	10803fcc 	andi	r2,r2,255
    1a90:	1000021e 	bne	r2,zero,1a9c <mcapi_sclchan_recv_uint32+0x3c>
    1a94:	00800884 	movi	r2,34
    1a98:	00000706 	br	1ab8 <mcapi_sclchan_recv_uint32+0x58>
    1a9c:	8809883a 	mov	r4,r17
    1aa0:	d80b883a 	mov	r5,sp
    1aa4:	01800104 	movi	r6,4
    1aa8:	0007c7c0 	call	7c7c <mcapi_trans_sclchan_recv>
    1aac:	10803fcc 	andi	r2,r2,255
    1ab0:	1000021e 	bne	r2,zero,1abc <mcapi_sclchan_recv_uint32+0x5c>
    1ab4:	00800904 	movi	r2,36
    1ab8:	80800015 	stw	r2,0(r16)
    1abc:	d8800017 	ldw	r2,0(sp)
    1ac0:	dfc00417 	ldw	ra,16(sp)
    1ac4:	dc400317 	ldw	r17,12(sp)
    1ac8:	dc000217 	ldw	r16,8(sp)
    1acc:	dec00504 	addi	sp,sp,20
    1ad0:	f800283a 	ret

00001ad4 <mcapi_sclchan_recv_uint16>:
    1ad4:	defffb04 	addi	sp,sp,-20
    1ad8:	dc400315 	stw	r17,12(sp)
    1adc:	dc000215 	stw	r16,8(sp)
    1ae0:	dfc00415 	stw	ra,16(sp)
    1ae4:	00800044 	movi	r2,1
    1ae8:	28800015 	stw	r2,0(r5)
    1aec:	2023883a 	mov	r17,r4
    1af0:	2821883a 	mov	r16,r5
    1af4:	d8000015 	stw	zero,0(sp)
    1af8:	d8000115 	stw	zero,4(sp)
    1afc:	00042000 	call	4200 <mcapi_trans_valid_sclchan_recv_handle>
    1b00:	10803fcc 	andi	r2,r2,255
    1b04:	1000021e 	bne	r2,zero,1b10 <mcapi_sclchan_recv_uint16+0x3c>
    1b08:	00800884 	movi	r2,34
    1b0c:	00000706 	br	1b2c <mcapi_sclchan_recv_uint16+0x58>
    1b10:	8809883a 	mov	r4,r17
    1b14:	d80b883a 	mov	r5,sp
    1b18:	01800084 	movi	r6,2
    1b1c:	0007c7c0 	call	7c7c <mcapi_trans_sclchan_recv>
    1b20:	10803fcc 	andi	r2,r2,255
    1b24:	1000021e 	bne	r2,zero,1b30 <mcapi_sclchan_recv_uint16+0x5c>
    1b28:	00800904 	movi	r2,36
    1b2c:	80800015 	stw	r2,0(r16)
    1b30:	d880000b 	ldhu	r2,0(sp)
    1b34:	dfc00417 	ldw	ra,16(sp)
    1b38:	dc400317 	ldw	r17,12(sp)
    1b3c:	dc000217 	ldw	r16,8(sp)
    1b40:	dec00504 	addi	sp,sp,20
    1b44:	f800283a 	ret

00001b48 <mcapi_sclchan_recv_uint8>:
    1b48:	defffa04 	addi	sp,sp,-24
    1b4c:	dc800415 	stw	r18,16(sp)
    1b50:	dc400315 	stw	r17,12(sp)
    1b54:	dc000215 	stw	r16,8(sp)
    1b58:	dfc00515 	stw	ra,20(sp)
    1b5c:	04400044 	movi	r17,1
    1b60:	2c400015 	stw	r17,0(r5)
    1b64:	2025883a 	mov	r18,r4
    1b68:	2821883a 	mov	r16,r5
    1b6c:	d8000015 	stw	zero,0(sp)
    1b70:	d8000115 	stw	zero,4(sp)
    1b74:	00042000 	call	4200 <mcapi_trans_valid_sclchan_recv_handle>
    1b78:	10803fcc 	andi	r2,r2,255
    1b7c:	1000021e 	bne	r2,zero,1b88 <mcapi_sclchan_recv_uint8+0x40>
    1b80:	00800884 	movi	r2,34
    1b84:	00000706 	br	1ba4 <mcapi_sclchan_recv_uint8+0x5c>
    1b88:	9009883a 	mov	r4,r18
    1b8c:	d80b883a 	mov	r5,sp
    1b90:	880d883a 	mov	r6,r17
    1b94:	0007c7c0 	call	7c7c <mcapi_trans_sclchan_recv>
    1b98:	10803fcc 	andi	r2,r2,255
    1b9c:	1000021e 	bne	r2,zero,1ba8 <mcapi_sclchan_recv_uint8+0x60>
    1ba0:	00800904 	movi	r2,36
    1ba4:	80800015 	stw	r2,0(r16)
    1ba8:	d8800003 	ldbu	r2,0(sp)
    1bac:	dfc00517 	ldw	ra,20(sp)
    1bb0:	dc800417 	ldw	r18,16(sp)
    1bb4:	dc400317 	ldw	r17,12(sp)
    1bb8:	dc000217 	ldw	r16,8(sp)
    1bbc:	dec00604 	addi	sp,sp,24
    1bc0:	f800283a 	ret

00001bc4 <mcapi_sclchan_available>:
    1bc4:	00800044 	movi	r2,1
    1bc8:	defffd04 	addi	sp,sp,-12
    1bcc:	28800015 	stw	r2,0(r5)
    1bd0:	dc400115 	stw	r17,4(sp)
    1bd4:	dc000015 	stw	r16,0(sp)
    1bd8:	dfc00215 	stw	ra,8(sp)
    1bdc:	2023883a 	mov	r17,r4
    1be0:	2821883a 	mov	r16,r5
    1be4:	00042000 	call	4200 <mcapi_trans_valid_sclchan_recv_handle>
    1be8:	10803fcc 	andi	r2,r2,255
    1bec:	10000626 	beq	r2,zero,1c08 <mcapi_sclchan_available+0x44>
    1bf0:	8809883a 	mov	r4,r17
    1bf4:	dfc00217 	ldw	ra,8(sp)
    1bf8:	dc400117 	ldw	r17,4(sp)
    1bfc:	dc000017 	ldw	r16,0(sp)
    1c00:	dec00304 	addi	sp,sp,12
    1c04:	0003d881 	jmpi	3d88 <mcapi_trans_sclchan_available_i>
    1c08:	00800884 	movi	r2,34
    1c0c:	80800015 	stw	r2,0(r16)
    1c10:	0005883a 	mov	r2,zero
    1c14:	dfc00217 	ldw	ra,8(sp)
    1c18:	dc400117 	ldw	r17,4(sp)
    1c1c:	dc000017 	ldw	r16,0(sp)
    1c20:	dec00304 	addi	sp,sp,12
    1c24:	f800283a 	ret

00001c28 <mcapi_sclchan_recv_close_i>:
    1c28:	defffc04 	addi	sp,sp,-16
    1c2c:	dc800215 	stw	r18,8(sp)
    1c30:	dc400115 	stw	r17,4(sp)
    1c34:	dc000015 	stw	r16,0(sp)
    1c38:	dfc00315 	stw	ra,12(sp)
    1c3c:	00800044 	movi	r2,1
    1c40:	30800015 	stw	r2,0(r6)
    1c44:	2023883a 	mov	r17,r4
    1c48:	2825883a 	mov	r18,r5
    1c4c:	3021883a 	mov	r16,r6
    1c50:	2800031e 	bne	r5,zero,1c60 <mcapi_sclchan_recv_close_i+0x38>
    1c54:	00800104 	movi	r2,4
    1c58:	30800015 	stw	r2,0(r6)
    1c5c:	00001406 	br	1cb0 <mcapi_sclchan_recv_close_i+0x88>
    1c60:	00042000 	call	4200 <mcapi_trans_valid_sclchan_recv_handle>
    1c64:	10803fcc 	andi	r2,r2,255
    1c68:	1000021e 	bne	r2,zero,1c74 <mcapi_sclchan_recv_close_i+0x4c>
    1c6c:	00800884 	movi	r2,34
    1c70:	00000506 	br	1c88 <mcapi_sclchan_recv_close_i+0x60>
    1c74:	8809883a 	mov	r4,r17
    1c78:	000463c0 	call	463c <mcapi_trans_sclchan_recv_isopen>
    1c7c:	10803fcc 	andi	r2,r2,255
    1c80:	1000021e 	bne	r2,zero,1c8c <mcapi_sclchan_recv_close_i+0x64>
    1c84:	00800844 	movi	r2,33
    1c88:	80800015 	stw	r2,0(r16)
    1c8c:	8809883a 	mov	r4,r17
    1c90:	900b883a 	mov	r5,r18
    1c94:	800d883a 	mov	r6,r16
    1c98:	dfc00317 	ldw	ra,12(sp)
    1c9c:	dc800217 	ldw	r18,8(sp)
    1ca0:	dc400117 	ldw	r17,4(sp)
    1ca4:	dc000017 	ldw	r16,0(sp)
    1ca8:	dec00404 	addi	sp,sp,16
    1cac:	000816c1 	jmpi	816c <mcapi_trans_sclchan_recv_close_i>
    1cb0:	dfc00317 	ldw	ra,12(sp)
    1cb4:	dc800217 	ldw	r18,8(sp)
    1cb8:	dc400117 	ldw	r17,4(sp)
    1cbc:	dc000017 	ldw	r16,0(sp)
    1cc0:	dec00404 	addi	sp,sp,16
    1cc4:	f800283a 	ret

00001cc8 <mcapi_sclchan_send_close_i>:
    1cc8:	defffc04 	addi	sp,sp,-16
    1ccc:	dc800215 	stw	r18,8(sp)
    1cd0:	dc400115 	stw	r17,4(sp)
    1cd4:	dc000015 	stw	r16,0(sp)
    1cd8:	dfc00315 	stw	ra,12(sp)
    1cdc:	00800044 	movi	r2,1
    1ce0:	30800015 	stw	r2,0(r6)
    1ce4:	2023883a 	mov	r17,r4
    1ce8:	2825883a 	mov	r18,r5
    1cec:	3021883a 	mov	r16,r6
    1cf0:	2800031e 	bne	r5,zero,1d00 <mcapi_sclchan_send_close_i+0x38>
    1cf4:	00800104 	movi	r2,4
    1cf8:	30800015 	stw	r2,0(r6)
    1cfc:	00001406 	br	1d50 <mcapi_sclchan_send_close_i+0x88>
    1d00:	00042000 	call	4200 <mcapi_trans_valid_sclchan_recv_handle>
    1d04:	10803fcc 	andi	r2,r2,255
    1d08:	1000021e 	bne	r2,zero,1d14 <mcapi_sclchan_send_close_i+0x4c>
    1d0c:	00800884 	movi	r2,34
    1d10:	00000506 	br	1d28 <mcapi_sclchan_send_close_i+0x60>
    1d14:	8809883a 	mov	r4,r17
    1d18:	00046380 	call	4638 <mcapi_trans_sclchan_send_isopen>
    1d1c:	10803fcc 	andi	r2,r2,255
    1d20:	1000021e 	bne	r2,zero,1d2c <mcapi_sclchan_send_close_i+0x64>
    1d24:	00800844 	movi	r2,33
    1d28:	80800015 	stw	r2,0(r16)
    1d2c:	8809883a 	mov	r4,r17
    1d30:	900b883a 	mov	r5,r18
    1d34:	800d883a 	mov	r6,r16
    1d38:	dfc00317 	ldw	ra,12(sp)
    1d3c:	dc800217 	ldw	r18,8(sp)
    1d40:	dc400117 	ldw	r17,4(sp)
    1d44:	dc000017 	ldw	r16,0(sp)
    1d48:	dec00404 	addi	sp,sp,16
    1d4c:	0004e581 	jmpi	4e58 <mcapi_trans_sclchan_send_close_i>
    1d50:	dfc00317 	ldw	ra,12(sp)
    1d54:	dc800217 	ldw	r18,8(sp)
    1d58:	dc400117 	ldw	r17,4(sp)
    1d5c:	dc000017 	ldw	r16,0(sp)
    1d60:	dec00404 	addi	sp,sp,16
    1d64:	f800283a 	ret

00001d68 <mcapi_test>:
    1d68:	defffc04 	addi	sp,sp,-16
    1d6c:	dc800215 	stw	r18,8(sp)
    1d70:	dc400115 	stw	r17,4(sp)
    1d74:	dc000015 	stw	r16,0(sp)
    1d78:	dfc00315 	stw	ra,12(sp)
    1d7c:	00800044 	movi	r2,1
    1d80:	2023883a 	mov	r17,r4
    1d84:	30800015 	stw	r2,0(r6)
    1d88:	2809883a 	mov	r4,r5
    1d8c:	2825883a 	mov	r18,r5
    1d90:	3021883a 	mov	r16,r6
    1d94:	00022fc0 	call	22fc <mcapi_trans_valid_size_param>
    1d98:	10803fcc 	andi	r2,r2,255
    1d9c:	1000021e 	bne	r2,zero,1da8 <mcapi_test+0x40>
    1da0:	00800104 	movi	r2,4
    1da4:	00000506 	br	1dbc <mcapi_test+0x54>
    1da8:	8809883a 	mov	r4,r17
    1dac:	00023480 	call	2348 <mcapi_trans_valid_request_handle>
    1db0:	10803fcc 	andi	r2,r2,255
    1db4:	1000031e 	bne	r2,zero,1dc4 <mcapi_test+0x5c>
    1db8:	00800a44 	movi	r2,41
    1dbc:	80800015 	stw	r2,0(r16)
    1dc0:	00000906 	br	1de8 <mcapi_test+0x80>
    1dc4:	8809883a 	mov	r4,r17
    1dc8:	900b883a 	mov	r5,r18
    1dcc:	800d883a 	mov	r6,r16
    1dd0:	dfc00317 	ldw	ra,12(sp)
    1dd4:	dc800217 	ldw	r18,8(sp)
    1dd8:	dc400117 	ldw	r17,4(sp)
    1ddc:	dc000017 	ldw	r16,0(sp)
    1de0:	dec00404 	addi	sp,sp,16
    1de4:	0006a481 	jmpi	6a48 <mcapi_trans_test_i>
    1de8:	00800044 	movi	r2,1
    1dec:	dfc00317 	ldw	ra,12(sp)
    1df0:	dc800217 	ldw	r18,8(sp)
    1df4:	dc400117 	ldw	r17,4(sp)
    1df8:	dc000017 	ldw	r16,0(sp)
    1dfc:	dec00404 	addi	sp,sp,16
    1e00:	f800283a 	ret

00001e04 <mcapi_wait>:
    1e04:	defffa04 	addi	sp,sp,-24
    1e08:	dd000415 	stw	r20,16(sp)
    1e0c:	dcc00315 	stw	r19,12(sp)
    1e10:	dc800215 	stw	r18,8(sp)
    1e14:	dc400115 	stw	r17,4(sp)
    1e18:	dc000015 	stw	r16,0(sp)
    1e1c:	dfc00515 	stw	ra,20(sp)
    1e20:	04c00044 	movi	r19,1
    1e24:	2023883a 	mov	r17,r4
    1e28:	3cc00015 	stw	r19,0(r7)
    1e2c:	2809883a 	mov	r4,r5
    1e30:	2825883a 	mov	r18,r5
    1e34:	3029883a 	mov	r20,r6
    1e38:	3821883a 	mov	r16,r7
    1e3c:	00022fc0 	call	22fc <mcapi_trans_valid_size_param>
    1e40:	10803fcc 	andi	r2,r2,255
    1e44:	1000041e 	bne	r2,zero,1e58 <mcapi_wait+0x54>
    1e48:	00800104 	movi	r2,4
    1e4c:	80800015 	stw	r2,0(r16)
    1e50:	9805883a 	mov	r2,r19
    1e54:	00001406 	br	1ea8 <mcapi_wait+0xa4>
    1e58:	8809883a 	mov	r4,r17
    1e5c:	00023480 	call	2348 <mcapi_trans_valid_request_handle>
    1e60:	10803fcc 	andi	r2,r2,255
    1e64:	1000041e 	bne	r2,zero,1e78 <mcapi_wait+0x74>
    1e68:	00800a44 	movi	r2,41
    1e6c:	80800015 	stw	r2,0(r16)
    1e70:	0005883a 	mov	r2,zero
    1e74:	00000c06 	br	1ea8 <mcapi_wait+0xa4>
    1e78:	8809883a 	mov	r4,r17
    1e7c:	900b883a 	mov	r5,r18
    1e80:	800d883a 	mov	r6,r16
    1e84:	a00f883a 	mov	r7,r20
    1e88:	dfc00517 	ldw	ra,20(sp)
    1e8c:	dd000417 	ldw	r20,16(sp)
    1e90:	dcc00317 	ldw	r19,12(sp)
    1e94:	dc800217 	ldw	r18,8(sp)
    1e98:	dc400117 	ldw	r17,4(sp)
    1e9c:	dc000017 	ldw	r16,0(sp)
    1ea0:	dec00604 	addi	sp,sp,24
    1ea4:	0006cf81 	jmpi	6cf8 <mcapi_trans_wait>
    1ea8:	dfc00517 	ldw	ra,20(sp)
    1eac:	dd000417 	ldw	r20,16(sp)
    1eb0:	dcc00317 	ldw	r19,12(sp)
    1eb4:	dc800217 	ldw	r18,8(sp)
    1eb8:	dc400117 	ldw	r17,4(sp)
    1ebc:	dc000017 	ldw	r16,0(sp)
    1ec0:	dec00604 	addi	sp,sp,24
    1ec4:	f800283a 	ret

00001ec8 <mcapi_wait_any>:
    1ec8:	defff904 	addi	sp,sp,-28
    1ecc:	dc000215 	stw	r16,8(sp)
    1ed0:	dc000717 	ldw	r16,28(sp)
    1ed4:	dcc00515 	stw	r19,20(sp)
    1ed8:	dc800415 	stw	r18,16(sp)
    1edc:	dc400315 	stw	r17,12(sp)
    1ee0:	dfc00615 	stw	ra,24(sp)
    1ee4:	04400044 	movi	r17,1
    1ee8:	84400015 	stw	r17,0(r16)
    1eec:	2025883a 	mov	r18,r4
    1ef0:	3009883a 	mov	r4,r6
    1ef4:	d9400015 	stw	r5,0(sp)
    1ef8:	d9800115 	stw	r6,4(sp)
    1efc:	3827883a 	mov	r19,r7
    1f00:	00022fc0 	call	22fc <mcapi_trans_valid_size_param>
    1f04:	10803fcc 	andi	r2,r2,255
    1f08:	d9400017 	ldw	r5,0(sp)
    1f0c:	d9800117 	ldw	r6,4(sp)
    1f10:	10000a26 	beq	r2,zero,1f3c <mcapi_wait_any+0x74>
    1f14:	9009883a 	mov	r4,r18
    1f18:	800f883a 	mov	r7,r16
    1f1c:	dcc00715 	stw	r19,28(sp)
    1f20:	dfc00617 	ldw	ra,24(sp)
    1f24:	dcc00517 	ldw	r19,20(sp)
    1f28:	dc800417 	ldw	r18,16(sp)
    1f2c:	dc400317 	ldw	r17,12(sp)
    1f30:	dc000217 	ldw	r16,8(sp)
    1f34:	dec00704 	addi	sp,sp,28
    1f38:	0006c201 	jmpi	6c20 <mcapi_trans_wait_any>
    1f3c:	00800104 	movi	r2,4
    1f40:	80800015 	stw	r2,0(r16)
    1f44:	8805883a 	mov	r2,r17
    1f48:	dfc00617 	ldw	ra,24(sp)
    1f4c:	dcc00517 	ldw	r19,20(sp)
    1f50:	dc800417 	ldw	r18,16(sp)
    1f54:	dc400317 	ldw	r17,12(sp)
    1f58:	dc000217 	ldw	r16,8(sp)
    1f5c:	dec00704 	addi	sp,sp,28
    1f60:	f800283a 	ret

00001f64 <mcapi_cancel>:
    1f64:	defffd04 	addi	sp,sp,-12
    1f68:	dc000115 	stw	r16,4(sp)
    1f6c:	dfc00215 	stw	ra,8(sp)
    1f70:	00800044 	movi	r2,1
    1f74:	28800015 	stw	r2,0(r5)
    1f78:	d9400015 	stw	r5,0(sp)
    1f7c:	2021883a 	mov	r16,r4
    1f80:	00023480 	call	2348 <mcapi_trans_valid_request_handle>
    1f84:	10803fcc 	andi	r2,r2,255
    1f88:	d9400017 	ldw	r5,0(sp)
    1f8c:	1000031e 	bne	r2,zero,1f9c <mcapi_cancel+0x38>
    1f90:	00800a44 	movi	r2,41
    1f94:	28800015 	stw	r2,0(r5)
    1f98:	00000506 	br	1fb0 <mcapi_cancel+0x4c>
    1f9c:	8009883a 	mov	r4,r16
    1fa0:	dfc00217 	ldw	ra,8(sp)
    1fa4:	dc000117 	ldw	r16,4(sp)
    1fa8:	dec00304 	addi	sp,sp,12
    1fac:	00031dc1 	jmpi	31dc <mcapi_trans_cancel>
    1fb0:	dfc00217 	ldw	ra,8(sp)
    1fb4:	dc000117 	ldw	r16,4(sp)
    1fb8:	dec00304 	addi	sp,sp,12
    1fbc:	f800283a 	ret

00001fc0 <MCAPI_ASSERT>:
    1fc0:	deffff04 	addi	sp,sp,-4
    1fc4:	dfc00015 	stw	ra,0(sp)
    1fc8:	21003fcc 	andi	r4,r4,255
    1fcc:	2000021e 	bne	r4,zero,1fd8 <MCAPI_ASSERT+0x18>
    1fd0:	2809883a 	mov	r4,r5
    1fd4:	00087700 	call	8770 <MCAPI_ASSERT.part.0>
    1fd8:	dfc00017 	ldw	ra,0(sp)
    1fdc:	dec00104 	addi	sp,sp,4
    1fe0:	f800283a 	ret

00001fe4 <mca_dprintf>:
    1fe4:	defffe04 	addi	sp,sp,-8
    1fe8:	d9800015 	stw	r6,0(sp)
    1fec:	d9c00115 	stw	r7,4(sp)
    1ff0:	dec00204 	addi	sp,sp,8
    1ff4:	f800283a 	ret

00001ff8 <mcapi_trans_remove_request_have_lock>:
    1ff8:	d0a2e117 	ldw	r2,-29820(gp)
    1ffc:	00c00074 	movhi	r3,1
    2000:	18cda304 	addi	r3,r3,13964
    2004:	01bfffc4 	movi	r6,-1
    2008:	10cb883a 	add	r5,r2,r3
    200c:	29c20317 	ldw	r7,2060(r5)
    2010:	39802726 	beq	r7,r6,20b0 <mcapi_trans_remove_request_have_lock+0xb8>
    2014:	200c90fa 	slli	r6,r4,3
    2018:	3900031e 	bne	r7,r4,2028 <mcapi_trans_remove_request_have_lock+0x30>
    201c:	298f883a 	add	r7,r5,r6
    2020:	39c00017 	ldw	r7,0(r7)
    2024:	29c20315 	stw	r7,2060(r5)
    2028:	10cb883a 	add	r5,r2,r3
    202c:	2991883a 	add	r8,r5,r6
    2030:	41c00017 	ldw	r7,0(r8)
    2034:	027fffc4 	movi	r9,-1
    2038:	3a400426 	beq	r7,r9,204c <mcapi_trans_remove_request_have_lock+0x54>
    203c:	380e90fa 	slli	r7,r7,3
    2040:	42000117 	ldw	r8,4(r8)
    2044:	29cb883a 	add	r5,r5,r7
    2048:	2a000115 	stw	r8,4(r5)
    204c:	10cb883a 	add	r5,r2,r3
    2050:	2991883a 	add	r8,r5,r6
    2054:	41c00117 	ldw	r7,4(r8)
    2058:	027fffc4 	movi	r9,-1
    205c:	3a400426 	beq	r7,r9,2070 <mcapi_trans_remove_request_have_lock+0x78>
    2060:	380e90fa 	slli	r7,r7,3
    2064:	42000017 	ldw	r8,0(r8)
    2068:	29cb883a 	add	r5,r5,r7
    206c:	2a000015 	stw	r8,0(r5)
    2070:	10cb883a 	add	r5,r2,r3
    2074:	29c20217 	ldw	r7,2056(r5)
    2078:	298d883a 	add	r6,r5,r6
    207c:	29020215 	stw	r4,2056(r5)
    2080:	31c00015 	stw	r7,0(r6)
    2084:	01bfffc4 	movi	r6,-1
    2088:	39800326 	beq	r7,r6,2098 <mcapi_trans_remove_request_have_lock+0xa0>
    208c:	380e90fa 	slli	r7,r7,3
    2090:	29cb883a 	add	r5,r5,r7
    2094:	29000115 	stw	r4,4(r5)
    2098:	10c5883a 	add	r2,r2,r3
    209c:	10c20017 	ldw	r3,2048(r2)
    20a0:	18ffffc4 	addi	r3,r3,-1
    20a4:	10c20015 	stw	r3,2048(r2)
    20a8:	00800044 	movi	r2,1
    20ac:	f800283a 	ret
    20b0:	0005883a 	mov	r2,zero
    20b4:	f800283a 	ret

000020b8 <mcapi_trans_reserve_request_have_lock>:
    20b8:	d162e117 	ldw	r5,-29820(gp)
    20bc:	01c00074 	movhi	r7,1
    20c0:	39cda304 	addi	r7,r7,13964
    20c4:	00ffffc4 	movi	r3,-1
    20c8:	29c5883a 	add	r2,r5,r7
    20cc:	11820217 	ldw	r6,2056(r2)
    20d0:	3813883a 	mov	r9,r7
    20d4:	30c01d26 	beq	r6,r3,214c <mcapi_trans_reserve_request_have_lock+0x94>
    20d8:	21800015 	stw	r6,0(r4)
    20dc:	31800c24 	muli	r6,r6,48
    20e0:	013fa314 	movui	r4,65164
    20e4:	298d883a 	add	r6,r5,r6
    20e8:	310d883a 	add	r6,r6,r4
    20ec:	01000044 	movi	r4,1
    20f0:	31000005 	stb	r4,0(r6)
    20f4:	11020217 	ldw	r4,2056(r2)
    20f8:	11820317 	ldw	r6,2060(r2)
    20fc:	200e90fa 	slli	r7,r4,3
    2100:	11020315 	stw	r4,2060(r2)
    2104:	11cf883a 	add	r7,r2,r7
    2108:	3a000017 	ldw	r8,0(r7)
    210c:	12020215 	stw	r8,2056(r2)
    2110:	401090fa 	slli	r8,r8,3
    2114:	39800015 	stw	r6,0(r7)
    2118:	1211883a 	add	r8,r2,r8
    211c:	40c00115 	stw	r3,4(r8)
    2120:	38c00115 	stw	r3,4(r7)
    2124:	30c00326 	beq	r6,r3,2134 <mcapi_trans_reserve_request_have_lock+0x7c>
    2128:	300c90fa 	slli	r6,r6,3
    212c:	1185883a 	add	r2,r2,r6
    2130:	11000115 	stw	r4,4(r2)
    2134:	2a4b883a 	add	r5,r5,r9
    2138:	28820017 	ldw	r2,2048(r5)
    213c:	10800044 	addi	r2,r2,1
    2140:	28820015 	stw	r2,2048(r5)
    2144:	00800044 	movi	r2,1
    2148:	f800283a 	ret
    214c:	0005883a 	mov	r2,zero
    2150:	f800283a 	ret

00002154 <mcapi_trans_init_indexed_array_have_lock>:
    2154:	d0a2e117 	ldw	r2,-29820(gp)
    2158:	00c00074 	movhi	r3,1
    215c:	18cfa304 	addi	r3,r3,16012
    2160:	01404004 	movi	r5,256
    2164:	10c7883a 	add	r3,r2,r3
    2168:	18000015 	stw	zero,0(r3)
    216c:	00c00074 	movhi	r3,1
    2170:	18cfa404 	addi	r3,r3,16016
    2174:	10c7883a 	add	r3,r2,r3
    2178:	19400015 	stw	r5,0(r3)
    217c:	00c00074 	movhi	r3,1
    2180:	18cfa504 	addi	r3,r3,16020
    2184:	10c7883a 	add	r3,r2,r3
    2188:	18000015 	stw	zero,0(r3)
    218c:	00c00074 	movhi	r3,1
    2190:	18cfa604 	addi	r3,r3,16024
    2194:	10c7883a 	add	r3,r2,r3
    2198:	013fffc4 	movi	r4,-1
    219c:	19000015 	stw	r4,0(r3)
    21a0:	02400074 	movhi	r9,1
    21a4:	4a4da304 	addi	r9,r9,13964
    21a8:	1009883a 	mov	r4,r2
    21ac:	0007883a 	mov	r3,zero
    21b0:	02000074 	movhi	r8,1
    21b4:	420da404 	addi	r8,r8,13968
    21b8:	224d883a 	add	r6,r4,r9
    21bc:	18c00044 	addi	r3,r3,1
    21c0:	30c00015 	stw	r3,0(r6)
    21c4:	19ffff84 	addi	r7,r3,-2
    21c8:	220d883a 	add	r6,r4,r8
    21cc:	31c00015 	stw	r7,0(r6)
    21d0:	21000204 	addi	r4,r4,8
    21d4:	197ff81e 	bne	r3,r5,21b8 <mcapi_trans_init_indexed_array_have_lock+0x64>
    21d8:	01000074 	movhi	r4,1
    21dc:	210fa104 	addi	r4,r4,16004
    21e0:	1109883a 	add	r4,r2,r4
    21e4:	00ffffc4 	movi	r3,-1
    21e8:	20c00015 	stw	r3,0(r4)
    21ec:	01000074 	movhi	r4,1
    21f0:	210da404 	addi	r4,r4,13968
    21f4:	1105883a 	add	r2,r2,r4
    21f8:	10c00015 	stw	r3,0(r2)
    21fc:	f800283a 	ret

00002200 <mcapi_trans_initialize_database>:
    2200:	00c000b4 	movhi	r3,2
    2204:	18f48904 	addi	r3,r3,-11740
    2208:	d0e2e115 	stw	r3,-29820(gp)
    220c:	18000205 	stb	zero,8(r3)
    2210:	18800404 	addi	r2,r3,16
    2214:	18df0404 	addi	r3,r3,31760
    2218:	10000005 	stb	zero,0(r2)
    221c:	10001005 	stb	zero,64(r2)
    2220:	10008a05 	stb	zero,552(r2)
    2224:	10010405 	stb	zero,1040(r2)
    2228:	10017e05 	stb	zero,1528(r2)
    222c:	1001f805 	stb	zero,2016(r2)
    2230:	10027205 	stb	zero,2504(r2)
    2234:	1002ec05 	stb	zero,2992(r2)
    2238:	10036605 	stb	zero,3480(r2)
    223c:	1083e004 	addi	r2,r2,3968
    2240:	10fff51e 	bne	r2,r3,2218 <mcapi_trans_initialize_database+0x18>
    2244:	00021541 	jmpi	2154 <mcapi_trans_init_indexed_array_have_lock>

00002248 <mcapi_trans_node_init_attributes>:
    2248:	deffff04 	addi	sp,sp,-4
    224c:	000b883a 	mov	r5,zero
    2250:	01800104 	movi	r6,4
    2254:	dfc00015 	stw	ra,0(sp)
    2258:	000c09c0 	call	c09c <memset>
    225c:	00800044 	movi	r2,1
    2260:	dfc00017 	ldw	ra,0(sp)
    2264:	dec00104 	addi	sp,sp,4
    2268:	f800283a 	ret

0000226c <mcapi_trans_node_set_attribute>:
    226c:	deffff04 	addi	sp,sp,-4
    2270:	dfc00015 	stw	ra,0(sp)
    2274:	d8800117 	ldw	r2,4(sp)
    2278:	28000226 	beq	r5,zero,2284 <mcapi_trans_node_set_attribute+0x18>
    227c:	00c00604 	movi	r3,24
    2280:	00000306 	br	2290 <mcapi_trans_node_set_attribute+0x24>
    2284:	00c00104 	movi	r3,4
    2288:	38c00426 	beq	r7,r3,229c <mcapi_trans_node_set_attribute+0x30>
    228c:	00c00544 	movi	r3,21
    2290:	10c00015 	stw	r3,0(r2)
    2294:	0005883a 	mov	r2,zero
    2298:	00000506 	br	22b0 <mcapi_trans_node_set_attribute+0x44>
    229c:	300b883a 	mov	r5,r6
    22a0:	21000204 	addi	r4,r4,8
    22a4:	380d883a 	mov	r6,r7
    22a8:	000be7c0 	call	be7c <memcpy>
    22ac:	00800044 	movi	r2,1
    22b0:	dfc00017 	ldw	ra,0(sp)
    22b4:	dec00104 	addi	sp,sp,4
    22b8:	f800283a 	ret

000022bc <mcapi_trans_valid_port>:
    22bc:	00800044 	movi	r2,1
    22c0:	f800283a 	ret

000022c4 <mcapi_trans_valid_node>:
    22c4:	20800230 	cmpltui	r2,r4,8
    22c8:	f800283a 	ret

000022cc <mcapi_trans_valid_domain>:
    22cc:	2005003a 	cmpeq	r2,r4,zero
    22d0:	f800283a 	ret

000022d4 <mcapi_trans_compatible_endpoint_attributes>:
    22d4:	00800044 	movi	r2,1
    22d8:	f800283a 	ret

000022dc <mcapi_trans_valid_priority>:
    22dc:	208002f0 	cmpltui	r2,r4,11
    22e0:	f800283a 	ret

000022e4 <mcapi_trans_valid_status_param>:
    22e4:	2004c03a 	cmpne	r2,r4,zero
    22e8:	f800283a 	ret

000022ec <mcapi_trans_valid_version_param>:
    22ec:	2004c03a 	cmpne	r2,r4,zero
    22f0:	f800283a 	ret

000022f4 <mcapi_trans_valid_buffer_param>:
    22f4:	2004c03a 	cmpne	r2,r4,zero
    22f8:	f800283a 	ret

000022fc <mcapi_trans_valid_size_param>:
    22fc:	2004c03a 	cmpne	r2,r4,zero
    2300:	f800283a 	ret

00002304 <mcapi_trans_endpoint_set_attribute>:
    2304:	008000b4 	movhi	r2,2
    2308:	10b15f04 	addi	r2,r2,-14980
    230c:	10800017 	ldw	r2,0(r2)
    2310:	010000b4 	movhi	r4,2
    2314:	21288804 	addi	r4,r4,-24032
    2318:	11400317 	ldw	r5,12(r2)
    231c:	000afa01 	jmpi	afa0 <fputs>

00002320 <mcapi_trans_signal_handler>:
    2320:	f800283a 	ret

00002324 <mcapi_trans_decode_request_handle>:
    2324:	20800017 	ldw	r2,0(r4)
    2328:	01003fc4 	movi	r4,255
    232c:	2880000d 	sth	r2,0(r5)
    2330:	10ffffcc 	andi	r3,r2,65535
    2334:	20c00236 	bltu	r4,r3,2340 <mcapi_trans_decode_request_handle+0x1c>
    2338:	1004d7fa 	srli	r2,r2,31
    233c:	f800283a 	ret
    2340:	0005883a 	mov	r2,zero
    2344:	f800283a 	ret

00002348 <mcapi_trans_valid_request_handle>:
    2348:	defffe04 	addi	sp,sp,-8
    234c:	d80b883a 	mov	r5,sp
    2350:	dfc00115 	stw	ra,4(sp)
    2354:	00023240 	call	2324 <mcapi_trans_decode_request_handle>
    2358:	dfc00117 	ldw	ra,4(sp)
    235c:	dec00204 	addi	sp,sp,8
    2360:	f800283a 	ret

00002364 <mcapi_trans_recv_have_lock_>:
    2364:	defff704 	addi	sp,sp,-36
    2368:	dd400515 	stw	r21,20(sp)
    236c:	dd400b17 	ldw	r21,44(sp)
    2370:	31bfffcc 	andi	r6,r6,65535
    2374:	dcc00315 	stw	r19,12(sp)
    2378:	297fffcc 	andi	r5,r5,65535
    237c:	ad400324 	muli	r21,r21,12
    2380:	34c07a24 	muli	r19,r6,488
    2384:	dc800215 	stw	r18,8(sp)
    2388:	213fffcc 	andi	r4,r4,65535
    238c:	2c83e024 	muli	r18,r5,3968
    2390:	dc400115 	stw	r17,4(sp)
    2394:	245f0324 	muli	r17,r4,31756
    2398:	d0a2e117 	ldw	r2,-29820(gp)
    239c:	acc7883a 	add	r3,r21,r19
    23a0:	1c87883a 	add	r3,r3,r18
    23a4:	1c47883a 	add	r3,r3,r17
    23a8:	10c7883a 	add	r3,r2,r3
    23ac:	dc000015 	stw	r16,0(sp)
    23b0:	1c002817 	ldw	r16,160(r3)
    23b4:	00e00034 	movhi	r3,32768
    23b8:	18ffffc4 	addi	r3,r3,-1
    23bc:	ddc00715 	stw	r23,28(sp)
    23c0:	80e0703a 	and	r16,r16,r3
    23c4:	84010524 	muli	r16,r16,1044
    23c8:	00e00414 	movui	r3,32784
    23cc:	dd000415 	stw	r20,16(sp)
    23d0:	1405883a 	add	r2,r2,r16
    23d4:	10c5883a 	add	r2,r2,r3
    23d8:	382f883a 	mov	r23,r7
    23dc:	dd000917 	ldw	r20,36(sp)
    23e0:	11c00017 	ldw	r7,0(r2)
    23e4:	dd800615 	stw	r22,24(sp)
    23e8:	dfc00815 	stw	ra,32(sp)
    23ec:	dd800c17 	ldw	r22,48(sp)
    23f0:	a1c0082e 	bgeu	r20,r7,2414 <mcapi_trans_recv_have_lock_+0xb0>
    23f4:	008000b4 	movhi	r2,2
    23f8:	10b15f04 	addi	r2,r2,-14980
    23fc:	10800017 	ldw	r2,0(r2)
    2400:	014000b4 	movhi	r5,2
    2404:	29689604 	addi	r5,r5,-23976
    2408:	a00d883a 	mov	r6,r20
    240c:	11000317 	ldw	r4,12(r2)
    2410:	000af080 	call	af08 <fprintf>
    2414:	d0a2e117 	ldw	r2,-29820(gp)
    2418:	00e00414 	movui	r3,32784
    241c:	d9400a17 	ldw	r5,40(sp)
    2420:	1409883a 	add	r4,r2,r16
    2424:	20c7883a 	add	r3,r4,r3
    2428:	18c00017 	ldw	r3,0(r3)
    242c:	01800044 	movi	r6,1
    2430:	28c00015 	stw	r3,0(r5)
    2434:	9c8b883a 	add	r5,r19,r18
    2438:	2c4b883a 	add	r5,r5,r17
    243c:	114b883a 	add	r5,r2,r5
    2440:	29402403 	ldbu	r5,144(r5)
    2444:	2980041e 	bne	r5,r6,2458 <mcapi_trans_recv_have_lock_+0xf4>
    2448:	841f0304 	addi	r16,r16,31756
    244c:	1405883a 	add	r2,r2,r16
    2450:	b8800015 	stw	r2,0(r23)
    2454:	00001606 	br	24b0 <mcapi_trans_recv_have_lock_+0x14c>
    2458:	01800084 	movi	r6,2
    245c:	2980071e 	bne	r5,r6,247c <mcapi_trans_recv_have_lock_+0x118>
    2460:	00a00614 	movui	r2,32792
    2464:	2089883a 	add	r4,r4,r2
    2468:	20c00017 	ldw	r3,0(r4)
    246c:	20800117 	ldw	r2,4(r4)
    2470:	b0c00015 	stw	r3,0(r22)
    2474:	b0800115 	stw	r2,4(r22)
    2478:	00000706 	br	2498 <mcapi_trans_recv_have_lock_+0x134>
    247c:	b9000017 	ldw	r4,0(r23)
    2480:	a00d883a 	mov	r6,r20
    2484:	1d00012e 	bgeu	r3,r20,248c <mcapi_trans_recv_have_lock_+0x128>
    2488:	180d883a 	mov	r6,r3
    248c:	815f0304 	addi	r5,r16,31756
    2490:	114b883a 	add	r5,r2,r5
    2494:	000be7c0 	call	be7c <memcpy>
    2498:	d122e117 	ldw	r4,-29820(gp)
    249c:	841f0304 	addi	r16,r16,31756
    24a0:	000b883a 	mov	r5,zero
    24a4:	2409883a 	add	r4,r4,r16
    24a8:	01810504 	movi	r6,1044
    24ac:	000c09c0 	call	c09c <memset>
    24b0:	ace7883a 	add	r19,r21,r19
    24b4:	9ca5883a 	add	r18,r19,r18
    24b8:	9463883a 	add	r17,r18,r17
    24bc:	d4a2e117 	ldw	r18,-29820(gp)
    24c0:	9463883a 	add	r17,r18,r17
    24c4:	88002815 	stw	zero,160(r17)
    24c8:	dfc00817 	ldw	ra,32(sp)
    24cc:	ddc00717 	ldw	r23,28(sp)
    24d0:	dd800617 	ldw	r22,24(sp)
    24d4:	dd400517 	ldw	r21,20(sp)
    24d8:	dd000417 	ldw	r20,16(sp)
    24dc:	dcc00317 	ldw	r19,12(sp)
    24e0:	dc800217 	ldw	r18,8(sp)
    24e4:	dc400117 	ldw	r17,4(sp)
    24e8:	dc000017 	ldw	r16,0(sp)
    24ec:	dec00904 	addi	sp,sp,36
    24f0:	f800283a 	ret

000024f4 <mcapi_trans_open_channel_have_lock>:
    24f4:	31bfffcc 	andi	r6,r6,65535
    24f8:	297fffcc 	andi	r5,r5,65535
    24fc:	213fffcc 	andi	r4,r4,65535
    2500:	31807a24 	muli	r6,r6,488
    2504:	2943e024 	muli	r5,r5,3968
    2508:	211f0324 	muli	r4,r4,31756
    250c:	d0a2e117 	ldw	r2,-29820(gp)
    2510:	314b883a 	add	r5,r6,r5
    2514:	290b883a 	add	r5,r5,r4
    2518:	114b883a 	add	r5,r2,r5
    251c:	00800044 	movi	r2,1
    2520:	28801485 	stb	r2,82(r5)
    2524:	f800283a 	ret

00002528 <mcapi_trans_close_channel_have_lock>:
    2528:	31bfffcc 	andi	r6,r6,65535
    252c:	297fffcc 	andi	r5,r5,65535
    2530:	213fffcc 	andi	r4,r4,65535
    2534:	31807a24 	muli	r6,r6,488
    2538:	2943e024 	muli	r5,r5,3968
    253c:	211f0324 	muli	r4,r4,31756
    2540:	d0a2e117 	ldw	r2,-29820(gp)
    2544:	314b883a 	add	r5,r6,r5
    2548:	290b883a 	add	r5,r5,r4
    254c:	114b883a 	add	r5,r2,r5
    2550:	28001485 	stb	zero,82(r5)
    2554:	f800283a 	ret

00002558 <mcapi_trans_access_database_pre>:
    2558:	d122e017 	ldw	r4,-29824(gp)
    255c:	defffe04 	addi	sp,sp,-8
    2560:	000b883a 	mov	r5,zero
    2564:	d80d883a 	mov	r6,sp
    2568:	dfc00115 	stw	ra,4(sp)
    256c:	0016bf40 	call	16bf4 <OSMutexPend>
    2570:	d8800003 	ldbu	r2,0(sp)
    2574:	10000726 	beq	r2,zero,2594 <mcapi_trans_access_database_pre+0x3c>
    2578:	00c00104 	movi	r3,4
    257c:	10c00826 	beq	r2,r3,25a0 <mcapi_trans_access_database_pre+0x48>
    2580:	010000b4 	movhi	r4,2
    2584:	2128b004 	addi	r4,r4,-23872
    2588:	d022de05 	stb	zero,-29832(gp)
    258c:	000c1a40 	call	c1a4 <printf>
    2590:	00000306 	br	25a0 <mcapi_trans_access_database_pre+0x48>
    2594:	00800044 	movi	r2,1
    2598:	d0a2de05 	stb	r2,-29832(gp)
    259c:	00000106 	br	25a4 <mcapi_trans_access_database_pre+0x4c>
    25a0:	0005883a 	mov	r2,zero
    25a4:	dfc00117 	ldw	ra,4(sp)
    25a8:	dec00204 	addi	sp,sp,8
    25ac:	f800283a 	ret

000025b0 <mcapi_trans_access_database_post>:
    25b0:	d122e017 	ldw	r4,-29824(gp)
    25b4:	deffff04 	addi	sp,sp,-4
    25b8:	dfc00015 	stw	ra,0(sp)
    25bc:	0016ee80 	call	16ee8 <OSMutexPost>
    25c0:	10803fcc 	andi	r2,r2,255
    25c4:	10000826 	beq	r2,zero,25e8 <mcapi_trans_access_database_post+0x38>
    25c8:	00c00104 	movi	r3,4
    25cc:	10c00926 	beq	r2,r3,25f4 <mcapi_trans_access_database_post+0x44>
    25d0:	00800044 	movi	r2,1
    25d4:	010000b4 	movhi	r4,2
    25d8:	2128bc04 	addi	r4,r4,-23824
    25dc:	d0a2de05 	stb	r2,-29832(gp)
    25e0:	000c1a40 	call	c1a4 <printf>
    25e4:	00000306 	br	25f4 <mcapi_trans_access_database_post+0x44>
    25e8:	d022de05 	stb	zero,-29832(gp)
    25ec:	00800044 	movi	r2,1
    25f0:	00000106 	br	25f8 <mcapi_trans_access_database_post+0x48>
    25f4:	0005883a 	mov	r2,zero
    25f8:	dfc00017 	ldw	ra,0(sp)
    25fc:	dec00104 	addi	sp,sp,4
    2600:	f800283a 	ret

00002604 <mcapi_trans_yield_have_lock>:
    2604:	defffe04 	addi	sp,sp,-8
    2608:	d122df17 	ldw	r4,-29828(gp)
    260c:	dc000015 	stw	r16,0(sp)
    2610:	04000044 	movi	r16,1
    2614:	800b883a 	mov	r5,r16
    2618:	dfc00115 	stw	ra,4(sp)
    261c:	00025b00 	call	25b0 <mcapi_trans_access_database_post>
    2620:	8009883a 	mov	r4,r16
    2624:	0018ec00 	call	18ec0 <OSTimeDly>
    2628:	d122df17 	ldw	r4,-29828(gp)
    262c:	800b883a 	mov	r5,r16
    2630:	dfc00117 	ldw	ra,4(sp)
    2634:	dc000017 	ldw	r16,0(sp)
    2638:	dec00204 	addi	sp,sp,8
    263c:	00025581 	jmpi	2558 <mcapi_trans_access_database_pre>

00002640 <mcapi_trans_pktchan_free>:
    2640:	defffe04 	addi	sp,sp,-8
    2644:	dc000015 	stw	r16,0(sp)
    2648:	2021883a 	mov	r16,r4
    264c:	d122df17 	ldw	r4,-29828(gp)
    2650:	01400044 	movi	r5,1
    2654:	dfc00115 	stw	ra,4(sp)
    2658:	00025580 	call	2558 <mcapi_trans_access_database_pre>
    265c:	11003fcc 	andi	r4,r2,255
    2660:	01425e04 	movi	r5,2424
    2664:	0001fc00 	call	1fc0 <MCAPI_ASSERT>
    2668:	80c10017 	ldw	r3,1024(r16)
    266c:	00b7abb4 	movhi	r2,57006
    2670:	10b2bf84 	addi	r2,r2,-13570
    2674:	1880061e 	bne	r3,r2,2690 <mcapi_trans_pktchan_free+0x50>
    2678:	8009883a 	mov	r4,r16
    267c:	000b883a 	mov	r5,zero
    2680:	01810504 	movi	r6,1044
    2684:	000c09c0 	call	c09c <memset>
    2688:	04000044 	movi	r16,1
    268c:	00000106 	br	2694 <mcapi_trans_pktchan_free+0x54>
    2690:	0021883a 	mov	r16,zero
    2694:	d122df17 	ldw	r4,-29828(gp)
    2698:	01400044 	movi	r5,1
    269c:	00025b00 	call	25b0 <mcapi_trans_access_database_post>
    26a0:	11003fcc 	andi	r4,r2,255
    26a4:	014262c4 	movi	r5,2443
    26a8:	0001fc00 	call	1fc0 <MCAPI_ASSERT>
    26ac:	8005883a 	mov	r2,r16
    26b0:	dfc00117 	ldw	ra,4(sp)
    26b4:	dc000017 	ldw	r16,0(sp)
    26b8:	dec00204 	addi	sp,sp,8
    26bc:	f800283a 	ret

000026c0 <mcapi_trans_finalize>:
    26c0:	d122df17 	ldw	r4,-29828(gp)
    26c4:	defffe04 	addi	sp,sp,-8
    26c8:	01400044 	movi	r5,1
    26cc:	dfc00115 	stw	ra,4(sp)
    26d0:	dc000015 	stw	r16,0(sp)
    26d4:	00025580 	call	2558 <mcapi_trans_access_database_pre>
    26d8:	11003fcc 	andi	r4,r2,255
    26dc:	01409cc4 	movi	r5,627
    26e0:	0001fc00 	call	1fc0 <MCAPI_ASSERT>
    26e4:	d0a2e117 	ldw	r2,-29820(gp)
    26e8:	10000326 	beq	r2,zero,26f8 <mcapi_trans_finalize+0x38>
    26ec:	d022e115 	stw	zero,-29820(gp)
    26f0:	04000044 	movi	r16,1
    26f4:	00000106 	br	26fc <mcapi_trans_finalize+0x3c>
    26f8:	0021883a 	mov	r16,zero
    26fc:	d122df17 	ldw	r4,-29828(gp)
    2700:	01400044 	movi	r5,1
    2704:	00025b00 	call	25b0 <mcapi_trans_access_database_post>
    2708:	11003fcc 	andi	r4,r2,255
    270c:	01409f04 	movi	r5,636
    2710:	0001fc00 	call	1fc0 <MCAPI_ASSERT>
    2714:	0008a800 	call	8a80 <NS_layer_exit>
    2718:	8005883a 	mov	r2,r16
    271c:	dfc00117 	ldw	ra,4(sp)
    2720:	dc000017 	ldw	r16,0(sp)
    2724:	dec00204 	addi	sp,sp,8
    2728:	f800283a 	ret

0000272c <mcapi_trans_add_domain_and_node>:
    272c:	defffb04 	addi	sp,sp,-20
    2730:	dfc00415 	stw	ra,16(sp)
    2734:	dcc00315 	stw	r19,12(sp)
    2738:	dc800215 	stw	r18,8(sp)
    273c:	dc400115 	stw	r17,4(sp)
    2740:	dc000015 	stw	r16,0(sp)
    2744:	00800044 	movi	r2,1
    2748:	2807883a 	mov	r3,r5
    274c:	300b883a 	mov	r5,r6
    2750:	20803b26 	beq	r4,r2,2840 <mcapi_trans_add_domain_and_node+0x114>
    2754:	d0a2e117 	ldw	r2,-29820(gp)
    2758:	241f0324 	muli	r16,r4,31756
    275c:	140d883a 	add	r6,r2,r16
    2760:	31c00203 	ldbu	r7,8(r6)
    2764:	38000326 	beq	r7,zero,2774 <mcapi_trans_add_domain_and_node+0x48>
    2768:	31800117 	ldw	r6,4(r6)
    276c:	310d003a 	cmpeq	r6,r6,r4
    2770:	00000106 	br	2778 <mcapi_trans_add_domain_and_node+0x4c>
    2774:	000d883a 	mov	r6,zero
    2778:	01c00204 	movi	r7,8
    277c:	19c03026 	beq	r3,r7,2840 <mcapi_trans_add_domain_and_node+0x114>
    2780:	1c83e024 	muli	r18,r3,3968
    2784:	02000044 	movi	r8,1
    2788:	940f883a 	add	r7,r18,r16
    278c:	11cf883a 	add	r7,r2,r7
    2790:	3a400403 	ldbu	r9,16(r7)
    2794:	4a00021e 	bne	r9,r8,27a0 <mcapi_trans_add_domain_and_node+0x74>
    2798:	39c00317 	ldw	r7,12(r7)
    279c:	38c02826 	beq	r7,r3,2840 <mcapi_trans_add_domain_and_node+0x114>
    27a0:	31803fcc 	andi	r6,r6,255
    27a4:	3000041e 	bne	r6,zero,27b8 <mcapi_trans_add_domain_and_node+0x8c>
    27a8:	140d883a 	add	r6,r2,r16
    27ac:	31000115 	stw	r4,4(r6)
    27b0:	01000044 	movi	r4,1
    27b4:	31000205 	stb	r4,8(r6)
    27b8:	9409883a 	add	r4,r18,r16
    27bc:	110d883a 	add	r6,r2,r4
    27c0:	01c00044 	movi	r7,1
    27c4:	30c00315 	stw	r3,12(r6)
    27c8:	31c00405 	stb	r7,16(r6)
    27cc:	1407883a 	add	r3,r2,r16
    27d0:	1980000b 	ldhu	r6,0(r3)
    27d4:	31800044 	addi	r6,r6,1
    27d8:	1980000d 	sth	r6,0(r3)
    27dc:	28000426 	beq	r5,zero,27f0 <mcapi_trans_add_domain_and_node+0xc4>
    27e0:	21000604 	addi	r4,r4,24
    27e4:	1109883a 	add	r4,r2,r4
    27e8:	01800c04 	movi	r6,48
    27ec:	000be7c0 	call	be7c <memcpy>
    27f0:	d0e2e117 	ldw	r3,-29820(gp)
    27f4:	9405883a 	add	r2,r18,r16
    27f8:	0023883a 	mov	r17,zero
    27fc:	1885883a 	add	r2,r3,r2
    2800:	00c00104 	movi	r3,4
    2804:	10c00715 	stw	r3,28(r2)
    2808:	04c00204 	movi	r19,8
    280c:	88807a24 	muli	r2,r17,488
    2810:	d122e117 	ldw	r4,-29820(gp)
    2814:	000b883a 	mov	r5,zero
    2818:	1485883a 	add	r2,r2,r18
    281c:	1405883a 	add	r2,r2,r16
    2820:	10801304 	addi	r2,r2,76
    2824:	2089883a 	add	r4,r4,r2
    2828:	01807a04 	movi	r6,488
    282c:	8c400044 	addi	r17,r17,1
    2830:	000c09c0 	call	c09c <memset>
    2834:	8cfff51e 	bne	r17,r19,280c <mcapi_trans_add_domain_and_node+0xe0>
    2838:	00800044 	movi	r2,1
    283c:	00000106 	br	2844 <mcapi_trans_add_domain_and_node+0x118>
    2840:	0005883a 	mov	r2,zero
    2844:	dfc00417 	ldw	ra,16(sp)
    2848:	dcc00317 	ldw	r19,12(sp)
    284c:	dc800217 	ldw	r18,8(sp)
    2850:	dc400117 	ldw	r17,4(sp)
    2854:	dc000017 	ldw	r16,0(sp)
    2858:	dec00504 	addi	sp,sp,20
    285c:	f800283a 	ret

00002860 <mcapi_trans_encode_handle>:
    2860:	defffc04 	addi	sp,sp,-16
    2864:	dc800215 	stw	r18,8(sp)
    2868:	dc400115 	stw	r17,4(sp)
    286c:	dc000015 	stw	r16,0(sp)
    2870:	dfc00315 	stw	ra,12(sp)
    2874:	20bfffcc 	andi	r2,r4,65535
    2878:	2023883a 	mov	r17,r4
    287c:	2821883a 	mov	r16,r5
    2880:	3025883a 	mov	r18,r6
    2884:	1000061e 	bne	r2,zero,28a0 <mcapi_trans_encode_handle+0x40>
    2888:	28bfffcc 	andi	r2,r5,65535
    288c:	00c001c4 	movi	r3,7
    2890:	18800336 	bltu	r3,r2,28a0 <mcapi_trans_encode_handle+0x40>
    2894:	30ffffcc 	andi	r3,r6,65535
    2898:	19000230 	cmpltui	r4,r3,8
    289c:	00000106 	br	28a4 <mcapi_trans_encode_handle+0x44>
    28a0:	0009883a 	mov	r4,zero
    28a4:	8c7fffcc 	andi	r17,r17,65535
    28a8:	01443ac4 	movi	r5,4331
    28ac:	8822923a 	slli	r17,r17,8
    28b0:	0001fc00 	call	1fc0 <MCAPI_ASSERT>
    28b4:	80bfffcc 	andi	r2,r16,65535
    28b8:	1444b03a 	or	r2,r2,r17
    28bc:	1004923a 	slli	r2,r2,8
    28c0:	94bfffcc 	andi	r18,r18,65535
    28c4:	1484b03a 	or	r2,r2,r18
    28c8:	dfc00317 	ldw	ra,12(sp)
    28cc:	dc800217 	ldw	r18,8(sp)
    28d0:	dc400117 	ldw	r17,4(sp)
    28d4:	dc000017 	ldw	r16,0(sp)
    28d8:	dec00404 	addi	sp,sp,16
    28dc:	f800283a 	ret

000028e0 <mcapi_trans_endpoint_get_>:
    28e0:	defff304 	addi	sp,sp,-52
    28e4:	dd800915 	stw	r22,36(sp)
    28e8:	202d883a 	mov	r22,r4
    28ec:	d122df17 	ldw	r4,-29828(gp)
    28f0:	dc000315 	stw	r16,12(sp)
    28f4:	2821883a 	mov	r16,r5
    28f8:	01400044 	movi	r5,1
    28fc:	dfc00c15 	stw	ra,48(sp)
    2900:	df000b15 	stw	fp,44(sp)
    2904:	ddc00a15 	stw	r23,40(sp)
    2908:	dcc00615 	stw	r19,24(sp)
    290c:	302f883a 	mov	r23,r6
    2910:	3839883a 	mov	fp,r7
    2914:	dd400815 	stw	r21,32(sp)
    2918:	dd000715 	stw	r20,28(sp)
    291c:	dc800515 	stw	r18,20(sp)
    2920:	dc400415 	stw	r17,16(sp)
    2924:	00025580 	call	2558 <mcapi_trans_access_database_pre>
    2928:	11003fcc 	andi	r4,r2,255
    292c:	0141a004 	movi	r5,1664
    2930:	0001fc00 	call	1fc0 <MCAPI_ASSERT>
    2934:	d4e2e117 	ldw	r19,-29820(gp)
    2938:	98800203 	ldbu	r2,8(r19)
    293c:	10002e26 	beq	r2,zero,29f8 <mcapi_trans_endpoint_get_+0x118>
    2940:	98800117 	ldw	r2,4(r19)
    2944:	14002c1e 	bne	r2,r16,29f8 <mcapi_trans_endpoint_get_+0x118>
    2948:	9823883a 	mov	r17,r19
    294c:	0021883a 	mov	r16,zero
    2950:	0025883a 	mov	r18,zero
    2954:	00c00044 	movi	r3,1
    2958:	01c00204 	movi	r7,8
    295c:	88800403 	ldbu	r2,16(r17)
    2960:	10001f26 	beq	r2,zero,29e0 <mcapi_trans_endpoint_get_+0x100>
    2964:	88800317 	ldw	r2,12(r17)
    2968:	15c01d1e 	bne	r2,r23,29e0 <mcapi_trans_endpoint_get_+0x100>
    296c:	9543e024 	muli	r21,r18,3968
    2970:	8a00120b 	ldhu	r8,72(r17)
    2974:	0029883a 	mov	r20,zero
    2978:	ad401404 	addi	r21,r21,80
    297c:	9d6b883a 	add	r21,r19,r21
    2980:	00001406 	br	29d4 <mcapi_trans_endpoint_get_+0xf4>
    2984:	a8800003 	ldbu	r2,0(r21)
    2988:	10000f26 	beq	r2,zero,29c8 <mcapi_trans_endpoint_get_+0xe8>
    298c:	a8bfff17 	ldw	r2,-4(r21)
    2990:	17000d1e 	bne	r2,fp,29c8 <mcapi_trans_endpoint_get_+0xe8>
    2994:	0009883a 	mov	r4,zero
    2998:	900b883a 	mov	r5,r18
    299c:	a00d883a 	mov	r6,r20
    29a0:	d8c00115 	stw	r3,4(sp)
    29a4:	d9c00215 	stw	r7,8(sp)
    29a8:	da000015 	stw	r8,0(sp)
    29ac:	00028600 	call	2860 <mcapi_trans_encode_handle>
    29b0:	b0800015 	stw	r2,0(r22)
    29b4:	04000044 	movi	r16,1
    29b8:	d8c00117 	ldw	r3,4(sp)
    29bc:	d9c00217 	ldw	r7,8(sp)
    29c0:	da000017 	ldw	r8,0(sp)
    29c4:	00000106 	br	29cc <mcapi_trans_endpoint_get_+0xec>
    29c8:	0021883a 	mov	r16,zero
    29cc:	a5000044 	addi	r20,r20,1
    29d0:	ad407a04 	addi	r21,r21,488
    29d4:	a200022e 	bgeu	r20,r8,29e0 <mcapi_trans_endpoint_get_+0x100>
    29d8:	80803fcc 	andi	r2,r16,255
    29dc:	10ffe91e 	bne	r2,r3,2984 <mcapi_trans_endpoint_get_+0xa4>
    29e0:	94800044 	addi	r18,r18,1
    29e4:	91c00526 	beq	r18,r7,29fc <mcapi_trans_endpoint_get_+0x11c>
    29e8:	80803fcc 	andi	r2,r16,255
    29ec:	8c43e004 	addi	r17,r17,3968
    29f0:	10ffda1e 	bne	r2,r3,295c <mcapi_trans_endpoint_get_+0x7c>
    29f4:	00000106 	br	29fc <mcapi_trans_endpoint_get_+0x11c>
    29f8:	0021883a 	mov	r16,zero
    29fc:	d122df17 	ldw	r4,-29828(gp)
    2a00:	01400044 	movi	r5,1
    2a04:	00025b00 	call	25b0 <mcapi_trans_access_database_post>
    2a08:	11003fcc 	andi	r4,r2,255
    2a0c:	0141a704 	movi	r5,1692
    2a10:	0001fc00 	call	1fc0 <MCAPI_ASSERT>
    2a14:	8005883a 	mov	r2,r16
    2a18:	dfc00c17 	ldw	ra,48(sp)
    2a1c:	df000b17 	ldw	fp,44(sp)
    2a20:	ddc00a17 	ldw	r23,40(sp)
    2a24:	dd800917 	ldw	r22,36(sp)
    2a28:	dd400817 	ldw	r21,32(sp)
    2a2c:	dd000717 	ldw	r20,28(sp)
    2a30:	dcc00617 	ldw	r19,24(sp)
    2a34:	dc800517 	ldw	r18,20(sp)
    2a38:	dc400417 	ldw	r17,16(sp)
    2a3c:	dc000317 	ldw	r16,12(sp)
    2a40:	dec00d04 	addi	sp,sp,52
    2a44:	f800283a 	ret

00002a48 <mcapi_trans_endpoint_get_have_lock>:
    2a48:	d222e117 	ldw	r8,-29820(gp)
    2a4c:	defffe04 	addi	sp,sp,-8
    2a50:	dc000015 	stw	r16,0(sp)
    2a54:	dfc00115 	stw	ra,4(sp)
    2a58:	40800203 	ldbu	r2,8(r8)
    2a5c:	2021883a 	mov	r16,r4
    2a60:	10001f26 	beq	r2,zero,2ae0 <mcapi_trans_endpoint_get_have_lock+0x98>
    2a64:	40800117 	ldw	r2,4(r8)
    2a68:	11401d1e 	bne	r2,r5,2ae0 <mcapi_trans_endpoint_get_have_lock+0x98>
    2a6c:	4005883a 	mov	r2,r8
    2a70:	000b883a 	mov	r5,zero
    2a74:	01000204 	movi	r4,8
    2a78:	10c00403 	ldbu	r3,16(r2)
    2a7c:	18001526 	beq	r3,zero,2ad4 <mcapi_trans_endpoint_get_have_lock+0x8c>
    2a80:	10c00317 	ldw	r3,12(r2)
    2a84:	1980131e 	bne	r3,r6,2ad4 <mcapi_trans_endpoint_get_have_lock+0x8c>
    2a88:	2a43e024 	muli	r9,r5,3968
    2a8c:	1280120b 	ldhu	r10,72(r2)
    2a90:	0007883a 	mov	r3,zero
    2a94:	4a401304 	addi	r9,r9,76
    2a98:	4253883a 	add	r9,r8,r9
    2a9c:	00000c06 	br	2ad0 <mcapi_trans_endpoint_get_have_lock+0x88>
    2aa0:	4ac00103 	ldbu	r11,4(r9)
    2aa4:	58000826 	beq	r11,zero,2ac8 <mcapi_trans_endpoint_get_have_lock+0x80>
    2aa8:	4ac00017 	ldw	r11,0(r9)
    2aac:	59c0061e 	bne	r11,r7,2ac8 <mcapi_trans_endpoint_get_have_lock+0x80>
    2ab0:	0009883a 	mov	r4,zero
    2ab4:	180d883a 	mov	r6,r3
    2ab8:	00028600 	call	2860 <mcapi_trans_encode_handle>
    2abc:	80800015 	stw	r2,0(r16)
    2ac0:	00800044 	movi	r2,1
    2ac4:	00000706 	br	2ae4 <mcapi_trans_endpoint_get_have_lock+0x9c>
    2ac8:	18c00044 	addi	r3,r3,1
    2acc:	4a407a04 	addi	r9,r9,488
    2ad0:	1abff336 	bltu	r3,r10,2aa0 <mcapi_trans_endpoint_get_have_lock+0x58>
    2ad4:	29400044 	addi	r5,r5,1
    2ad8:	1083e004 	addi	r2,r2,3968
    2adc:	293fe61e 	bne	r5,r4,2a78 <mcapi_trans_endpoint_get_have_lock+0x30>
    2ae0:	0005883a 	mov	r2,zero
    2ae4:	dfc00117 	ldw	ra,4(sp)
    2ae8:	dc000017 	ldw	r16,0(sp)
    2aec:	dec00204 	addi	sp,sp,8
    2af0:	f800283a 	ret

00002af4 <check_get_endpt_request_have_lock>:
    2af4:	defffe04 	addi	sp,sp,-8
    2af8:	d80b883a 	mov	r5,sp
    2afc:	dfc00115 	stw	ra,4(sp)
    2b00:	00023240 	call	2324 <mcapi_trans_decode_request_handle>
    2b04:	11003fcc 	andi	r4,r2,255
    2b08:	01437244 	movi	r5,3529
    2b0c:	0001fc00 	call	1fc0 <MCAPI_ASSERT>
    2b10:	d880000b 	ldhu	r2,0(sp)
    2b14:	d0e2e117 	ldw	r3,-29820(gp)
    2b18:	10800c24 	muli	r2,r2,48
    2b1c:	1885883a 	add	r2,r3,r2
    2b20:	00ffaa14 	movui	r3,65192
    2b24:	10c7883a 	add	r3,r2,r3
    2b28:	19400017 	ldw	r5,0(r3)
    2b2c:	d0e00017 	ldw	r3,-32768(gp)
    2b30:	28c01b1e 	bne	r5,r3,2ba0 <check_get_endpt_request_have_lock+0xac>
    2b34:	00ffa814 	movui	r3,65184
    2b38:	10c7883a 	add	r3,r2,r3
    2b3c:	19800017 	ldw	r6,0(r3)
    2b40:	d0e00117 	ldw	r3,-32764(gp)
    2b44:	30c0161e 	bne	r6,r3,2ba0 <check_get_endpt_request_have_lock+0xac>
    2b48:	013fa914 	movui	r4,65188
    2b4c:	00ffae14 	movui	r3,65208
    2b50:	10c7883a 	add	r3,r2,r3
    2b54:	1105883a 	add	r2,r2,r4
    2b58:	11c00017 	ldw	r7,0(r2)
    2b5c:	19000017 	ldw	r4,0(r3)
    2b60:	0002a480 	call	2a48 <mcapi_trans_endpoint_get_have_lock>
    2b64:	10803fcc 	andi	r2,r2,255
    2b68:	10006026 	beq	r2,zero,2cec <check_get_endpt_request_have_lock+0x1f8>
    2b6c:	d880000b 	ldhu	r2,0(sp)
    2b70:	d0e2e117 	ldw	r3,-29820(gp)
    2b74:	01000044 	movi	r4,1
    2b78:	10800c24 	muli	r2,r2,48
    2b7c:	1885883a 	add	r2,r3,r2
    2b80:	00ffab14 	movui	r3,65196
    2b84:	10c7883a 	add	r3,r2,r3
    2b88:	19000005 	stb	r4,0(r3)
    2b8c:	00ffad14 	movui	r3,65204
    2b90:	10c5883a 	add	r2,r2,r3
    2b94:	00c00044 	movi	r3,1
    2b98:	10c00015 	stw	r3,0(r2)
    2b9c:	00005306 	br	2cec <check_get_endpt_request_have_lock+0x1f8>
    2ba0:	d122df17 	ldw	r4,-29828(gp)
    2ba4:	01400044 	movi	r5,1
    2ba8:	00025b00 	call	25b0 <mcapi_trans_access_database_post>
    2bac:	11003fcc 	andi	r4,r2,255
    2bb0:	01437644 	movi	r5,3545
    2bb4:	0001fc00 	call	1fc0 <MCAPI_ASSERT>
    2bb8:	d880000b 	ldhu	r2,0(sp)
    2bbc:	d122e117 	ldw	r4,-29820(gp)
    2bc0:	00ffa514 	movui	r3,65172
    2bc4:	10800c24 	muli	r2,r2,48
    2bc8:	208b883a 	add	r5,r4,r2
    2bcc:	28c7883a 	add	r3,r5,r3
    2bd0:	18c00017 	ldw	r3,0(r3)
    2bd4:	01400184 	movi	r5,6
    2bd8:	18ffffc4 	addi	r3,r3,-1
    2bdc:	28c03a36 	bltu	r5,r3,2cc8 <check_get_endpt_request_have_lock+0x1d4>
    2be0:	18c7883a 	add	r3,r3,r3
    2be4:	18c7883a 	add	r3,r3,r3
    2be8:	01400034 	movhi	r5,0
    2bec:	294aff04 	addi	r5,r5,11260
    2bf0:	1947883a 	add	r3,r3,r5
    2bf4:	18c00017 	ldw	r3,0(r3)
    2bf8:	1800683a 	jmp	r3
    2bfc:	00002c98 	cmpnei	zero,zero,178
    2c00:	00002ca4 	muli	zero,zero,178
    2c04:	00002cc8 	cmpgei	zero,zero,179
    2c08:	00002c18 	cmpnei	zero,zero,176
    2c0c:	00002c24 	muli	zero,zero,176
    2c10:	00002cb0 	cmpltui	zero,zero,178
    2c14:	00002cbc 	xorhi	zero,zero,178
    2c18:	010000b4 	movhi	r4,2
    2c1c:	2128c804 	addi	r4,r4,-23776
    2c20:	00002b06 	br	2cd0 <check_get_endpt_request_have_lock+0x1dc>
    2c24:	2085883a 	add	r2,r4,r2
    2c28:	01bfa914 	movui	r6,65188
    2c2c:	013fae14 	movui	r4,65208
    2c30:	017faa14 	movui	r5,65192
    2c34:	00ffa814 	movui	r3,65184
    2c38:	10c7883a 	add	r3,r2,r3
    2c3c:	1109883a 	add	r4,r2,r4
    2c40:	114b883a 	add	r5,r2,r5
    2c44:	1185883a 	add	r2,r2,r6
    2c48:	21000017 	ldw	r4,0(r4)
    2c4c:	29400017 	ldw	r5,0(r5)
    2c50:	19800017 	ldw	r6,0(r3)
    2c54:	11c00017 	ldw	r7,0(r2)
    2c58:	0008b9c0 	call	8b9c <NS_getRemoteEndpoint_request>
    2c5c:	10803fcc 	andi	r2,r2,255
    2c60:	10001c1e 	bne	r2,zero,2cd4 <check_get_endpt_request_have_lock+0x1e0>
    2c64:	d880000b 	ldhu	r2,0(sp)
    2c68:	d0e2e117 	ldw	r3,-29820(gp)
    2c6c:	01000044 	movi	r4,1
    2c70:	10800c24 	muli	r2,r2,48
    2c74:	1885883a 	add	r2,r3,r2
    2c78:	00ffab14 	movui	r3,65196
    2c7c:	10c7883a 	add	r3,r2,r3
    2c80:	19000005 	stb	r4,0(r3)
    2c84:	00ffad14 	movui	r3,65204
    2c88:	10c5883a 	add	r2,r2,r3
    2c8c:	00c00044 	movi	r3,1
    2c90:	10c00015 	stw	r3,0(r2)
    2c94:	00000f06 	br	2cd4 <check_get_endpt_request_have_lock+0x1e0>
    2c98:	010000b4 	movhi	r4,2
    2c9c:	2128d704 	addi	r4,r4,-23716
    2ca0:	00000b06 	br	2cd0 <check_get_endpt_request_have_lock+0x1dc>
    2ca4:	010000b4 	movhi	r4,2
    2ca8:	2128e804 	addi	r4,r4,-23648
    2cac:	00000806 	br	2cd0 <check_get_endpt_request_have_lock+0x1dc>
    2cb0:	010000b4 	movhi	r4,2
    2cb4:	2128f904 	addi	r4,r4,-23580
    2cb8:	00000506 	br	2cd0 <check_get_endpt_request_have_lock+0x1dc>
    2cbc:	010000b4 	movhi	r4,2
    2cc0:	21290b04 	addi	r4,r4,-23508
    2cc4:	00000206 	br	2cd0 <check_get_endpt_request_have_lock+0x1dc>
    2cc8:	010000b4 	movhi	r4,2
    2ccc:	21291d04 	addi	r4,r4,-23436
    2cd0:	000c2640 	call	c264 <puts>
    2cd4:	d122df17 	ldw	r4,-29828(gp)
    2cd8:	01400044 	movi	r5,1
    2cdc:	00025580 	call	2558 <mcapi_trans_access_database_pre>
    2ce0:	11003fcc 	andi	r4,r2,255
    2ce4:	01437f04 	movi	r5,3580
    2ce8:	0001fc00 	call	1fc0 <MCAPI_ASSERT>
    2cec:	dfc00117 	ldw	ra,4(sp)
    2cf0:	dec00204 	addi	sp,sp,8
    2cf4:	f800283a 	ret

00002cf8 <mcapi_trans_endpoint_create_>:
    2cf8:	defff604 	addi	sp,sp,-40
    2cfc:	dd400515 	stw	r21,20(sp)
    2d00:	202b883a 	mov	r21,r4
    2d04:	d122df17 	ldw	r4,-29828(gp)
    2d08:	dc800215 	stw	r18,8(sp)
    2d0c:	2825883a 	mov	r18,r5
    2d10:	01400044 	movi	r5,1
    2d14:	dfc00915 	stw	ra,36(sp)
    2d18:	df000815 	stw	fp,32(sp)
    2d1c:	ddc00715 	stw	r23,28(sp)
    2d20:	3839883a 	mov	fp,r7
    2d24:	dd800615 	stw	r22,24(sp)
    2d28:	dd000415 	stw	r20,16(sp)
    2d2c:	dcc00315 	stw	r19,12(sp)
    2d30:	dc400115 	stw	r17,4(sp)
    2d34:	dc000015 	stw	r16,0(sp)
    2d38:	3023883a 	mov	r17,r6
    2d3c:	ddc00a03 	ldbu	r23,40(sp)
    2d40:	00025580 	call	2558 <mcapi_trans_access_database_pre>
    2d44:	11003fcc 	andi	r4,r2,255
    2d48:	01416804 	movi	r5,1440
    2d4c:	0001fc00 	call	1fc0 <MCAPI_ASSERT>
    2d50:	9009003a 	cmpeq	r4,r18,zero
    2d54:	01416904 	movi	r5,1444
    2d58:	0001fc00 	call	1fc0 <MCAPI_ASSERT>
    2d5c:	89000230 	cmpltui	r4,r17,8
    2d60:	01416944 	movi	r5,1445
    2d64:	8d03e024 	muli	r20,r17,3968
    2d68:	94df0324 	muli	r19,r18,31756
    2d6c:	0001fc00 	call	1fc0 <MCAPI_ASSERT>
    2d70:	d422e117 	ldw	r16,-29820(gp)
    2d74:	a4ed883a 	add	r22,r20,r19
    2d78:	01416a04 	movi	r5,1448
    2d7c:	8585883a 	add	r2,r16,r22
    2d80:	1100120b 	ldhu	r4,72(r2)
    2d84:	21000230 	cmpltui	r4,r4,8
    2d88:	0001fc00 	call	1fc0 <MCAPI_ASSERT>
    2d8c:	b0801404 	addi	r2,r22,80
    2d90:	8085883a 	add	r2,r16,r2
    2d94:	000d883a 	mov	r6,zero
    2d98:	00c00204 	movi	r3,8
    2d9c:	11000003 	ldbu	r4,0(r2)
    2da0:	20000526 	beq	r4,zero,2db8 <mcapi_trans_endpoint_create_+0xc0>
    2da4:	31800044 	addi	r6,r6,1
    2da8:	10807a04 	addi	r2,r2,488
    2dac:	30fffb1e 	bne	r6,r3,2d9c <mcapi_trans_endpoint_create_+0xa4>
    2db0:	002d883a 	mov	r22,zero
    2db4:	00001506 	br	2e0c <mcapi_trans_endpoint_create_+0x114>
    2db8:	30c07a24 	muli	r3,r6,488
    2dbc:	05800044 	movi	r22,1
    2dc0:	913fffcc 	andi	r4,r18,65535
    2dc4:	1d07883a 	add	r3,r3,r20
    2dc8:	1cc7883a 	add	r3,r3,r19
    2dcc:	80c7883a 	add	r3,r16,r3
    2dd0:	a4e7883a 	add	r19,r20,r19
    2dd4:	19401404 	addi	r5,r3,80
    2dd8:	84e1883a 	add	r16,r16,r19
    2ddc:	2d800005 	stb	r22,0(r5)
    2de0:	18001485 	stb	zero,82(r3)
    2de4:	1dc01445 	stb	r23,81(r3)
    2de8:	84001204 	addi	r16,r16,72
    2dec:	8080000b 	ldhu	r2,0(r16)
    2df0:	1f001315 	stw	fp,76(r3)
    2df4:	18001515 	stw	zero,84(r3)
    2df8:	10800044 	addi	r2,r2,1
    2dfc:	8080000d 	sth	r2,0(r16)
    2e00:	897fffcc 	andi	r5,r17,65535
    2e04:	00028600 	call	2860 <mcapi_trans_encode_handle>
    2e08:	a8800015 	stw	r2,0(r21)
    2e0c:	d122df17 	ldw	r4,-29828(gp)
    2e10:	01400044 	movi	r5,1
    2e14:	00025b00 	call	25b0 <mcapi_trans_access_database_post>
    2e18:	11003fcc 	andi	r4,r2,255
    2e1c:	01417104 	movi	r5,1476
    2e20:	0001fc00 	call	1fc0 <MCAPI_ASSERT>
    2e24:	b005883a 	mov	r2,r22
    2e28:	dfc00917 	ldw	ra,36(sp)
    2e2c:	df000817 	ldw	fp,32(sp)
    2e30:	ddc00717 	ldw	r23,28(sp)
    2e34:	dd800617 	ldw	r22,24(sp)
    2e38:	dd400517 	ldw	r21,20(sp)
    2e3c:	dd000417 	ldw	r20,16(sp)
    2e40:	dcc00317 	ldw	r19,12(sp)
    2e44:	dc800217 	ldw	r18,8(sp)
    2e48:	dc400117 	ldw	r17,4(sp)
    2e4c:	dc000017 	ldw	r16,0(sp)
    2e50:	dec00a04 	addi	sp,sp,40
    2e54:	f800283a 	ret

00002e58 <mcapi_trans_decode_handle>:
    2e58:	20803fec 	andhi	r2,r4,255
    2e5c:	1004d43a 	srli	r2,r2,16
    2e60:	2880000d 	sth	r2,0(r5)
    2e64:	20bfc00c 	andi	r2,r4,65280
    2e68:	1004d23a 	srli	r2,r2,8
    2e6c:	21003fcc 	andi	r4,r4,255
    2e70:	3080000d 	sth	r2,0(r6)
    2e74:	3900000d 	sth	r4,0(r7)
    2e78:	28c0000b 	ldhu	r3,0(r5)
    2e7c:	2005883a 	mov	r2,r4
    2e80:	1800061e 	bne	r3,zero,2e9c <mcapi_trans_decode_handle+0x44>
    2e84:	30c0000b 	ldhu	r3,0(r6)
    2e88:	010001c4 	movi	r4,7
    2e8c:	20c00336 	bltu	r4,r3,2e9c <mcapi_trans_decode_handle+0x44>
    2e90:	10bfffcc 	andi	r2,r2,65535
    2e94:	10800230 	cmpltui	r2,r2,8
    2e98:	f800283a 	ret
    2e9c:	0005883a 	mov	r2,zero
    2ea0:	f800283a 	ret

00002ea4 <mcapi_trans_connect_channel_have_lock>:
    2ea4:	defff604 	addi	sp,sp,-40
    2ea8:	d9c00184 	addi	r7,sp,6
    2eac:	dc800515 	stw	r18,20(sp)
    2eb0:	dc400415 	stw	r17,16(sp)
    2eb4:	3025883a 	mov	r18,r6
    2eb8:	2823883a 	mov	r17,r5
    2ebc:	d9800204 	addi	r6,sp,8
    2ec0:	d9400284 	addi	r5,sp,10
    2ec4:	dfc00915 	stw	ra,36(sp)
    2ec8:	dd400815 	stw	r21,32(sp)
    2ecc:	dd000715 	stw	r20,28(sp)
    2ed0:	dcc00615 	stw	r19,24(sp)
    2ed4:	dc000315 	stw	r16,12(sp)
    2ed8:	2027883a 	mov	r19,r4
    2edc:	0002e580 	call	2e58 <mcapi_trans_decode_handle>
    2ee0:	11003fcc 	andi	r4,r2,255
    2ee4:	0143a604 	movi	r5,3736
    2ee8:	0001fc00 	call	1fc0 <MCAPI_ASSERT>
    2eec:	8809883a 	mov	r4,r17
    2ef0:	d9400104 	addi	r5,sp,4
    2ef4:	d9800084 	addi	r6,sp,2
    2ef8:	d80f883a 	mov	r7,sp
    2efc:	0002e580 	call	2e58 <mcapi_trans_decode_handle>
    2f00:	11003fcc 	andi	r4,r2,255
    2f04:	0143a644 	movi	r5,3737
    2f08:	0001fc00 	call	1fc0 <MCAPI_ASSERT>
    2f0c:	dd00028b 	ldhu	r20,10(sp)
    2f10:	d4200017 	ldw	r16,-32768(gp)
    2f14:	a57fffcc 	andi	r21,r20,65535
    2f18:	ac00031e 	bne	r21,r16,2f28 <mcapi_trans_connect_channel_have_lock+0x84>
    2f1c:	d8c0020b 	ldhu	r3,8(sp)
    2f20:	d0a00117 	ldw	r2,-32764(gp)
    2f24:	18800726 	beq	r3,r2,2f44 <mcapi_trans_connect_channel_have_lock+0xa0>
    2f28:	d880010b 	ldhu	r2,4(sp)
    2f2c:	14000226 	beq	r2,r16,2f38 <mcapi_trans_connect_channel_have_lock+0x94>
    2f30:	0009883a 	mov	r4,zero
    2f34:	00000406 	br	2f48 <mcapi_trans_connect_channel_have_lock+0xa4>
    2f38:	d8c0008b 	ldhu	r3,2(sp)
    2f3c:	d0a00117 	ldw	r2,-32764(gp)
    2f40:	18bffb1e 	bne	r3,r2,2f30 <mcapi_trans_connect_channel_have_lock+0x8c>
    2f44:	01000044 	movi	r4,1
    2f48:	0143a684 	movi	r5,3738
    2f4c:	0001fc00 	call	1fc0 <MCAPI_ASSERT>
    2f50:	ac00111e 	bne	r21,r16,2f98 <mcapi_trans_connect_channel_have_lock+0xf4>
    2f54:	d8c0020b 	ldhu	r3,8(sp)
    2f58:	d0a00117 	ldw	r2,-32764(gp)
    2f5c:	18800e1e 	bne	r3,r2,2f98 <mcapi_trans_connect_channel_have_lock+0xf4>
    2f60:	d880018b 	ldhu	r2,6(sp)
    2f64:	18c3e024 	muli	r3,r3,3968
    2f68:	a53fffcc 	andi	r20,r20,65535
    2f6c:	10807a24 	muli	r2,r2,488
    2f70:	a51f0324 	muli	r20,r20,31756
    2f74:	10c5883a 	add	r2,r2,r3
    2f78:	d0e2e117 	ldw	r3,-29820(gp)
    2f7c:	1505883a 	add	r2,r2,r20
    2f80:	1885883a 	add	r2,r3,r2
    2f84:	00c00044 	movi	r3,1
    2f88:	10c014c5 	stb	r3,83(r2)
    2f8c:	14402315 	stw	r17,140(r2)
    2f90:	14c02215 	stw	r19,136(r2)
    2f94:	14802405 	stb	r18,144(r2)
    2f98:	d880010b 	ldhu	r2,4(sp)
    2f9c:	1400101e 	bne	r2,r16,2fe0 <mcapi_trans_connect_channel_have_lock+0x13c>
    2fa0:	d880008b 	ldhu	r2,2(sp)
    2fa4:	d0e00117 	ldw	r3,-32764(gp)
    2fa8:	10c00d1e 	bne	r2,r3,2fe0 <mcapi_trans_connect_channel_have_lock+0x13c>
    2fac:	d8c0000b 	ldhu	r3,0(sp)
    2fb0:	1083e024 	muli	r2,r2,3968
    2fb4:	841f0324 	muli	r16,r16,31756
    2fb8:	18c07a24 	muli	r3,r3,488
    2fbc:	1885883a 	add	r2,r3,r2
    2fc0:	1421883a 	add	r16,r2,r16
    2fc4:	d0a2e117 	ldw	r2,-29820(gp)
    2fc8:	1421883a 	add	r16,r2,r16
    2fcc:	00800044 	movi	r2,1
    2fd0:	808014c5 	stb	r2,83(r16)
    2fd4:	84c02215 	stw	r19,136(r16)
    2fd8:	84402315 	stw	r17,140(r16)
    2fdc:	84802405 	stb	r18,144(r16)
    2fe0:	dfc00917 	ldw	ra,36(sp)
    2fe4:	dd400817 	ldw	r21,32(sp)
    2fe8:	dd000717 	ldw	r20,28(sp)
    2fec:	dcc00617 	ldw	r19,24(sp)
    2ff0:	dc800517 	ldw	r18,20(sp)
    2ff4:	dc400417 	ldw	r17,16(sp)
    2ff8:	dc000317 	ldw	r16,12(sp)
    2ffc:	dec00a04 	addi	sp,sp,40
    3000:	f800283a 	ret

00003004 <cancel_receive_request_have_lock>:
    3004:	defff304 	addi	sp,sp,-52
    3008:	d80b883a 	mov	r5,sp
    300c:	dfc00c15 	stw	ra,48(sp)
    3010:	dd000715 	stw	r20,28(sp)
    3014:	dcc00615 	stw	r19,24(sp)
    3018:	dc800515 	stw	r18,20(sp)
    301c:	dc400415 	stw	r17,16(sp)
    3020:	dc000315 	stw	r16,12(sp)
    3024:	df000b15 	stw	fp,44(sp)
    3028:	2021883a 	mov	r16,r4
    302c:	ddc00a15 	stw	r23,40(sp)
    3030:	dd800915 	stw	r22,36(sp)
    3034:	dd400815 	stw	r21,32(sp)
    3038:	00023240 	call	2324 <mcapi_trans_decode_request_handle>
    303c:	11003fcc 	andi	r4,r2,255
    3040:	01438504 	movi	r5,3604
    3044:	0001fc00 	call	1fc0 <MCAPI_ASSERT>
    3048:	d880000b 	ldhu	r2,0(sp)
    304c:	d0e2e117 	ldw	r3,-29820(gp)
    3050:	d9400184 	addi	r5,sp,6
    3054:	10800c24 	muli	r2,r2,48
    3058:	d9800104 	addi	r6,sp,4
    305c:	d9c00084 	addi	r7,sp,2
    3060:	1885883a 	add	r2,r3,r2
    3064:	00ffac14 	movui	r3,65200
    3068:	10c5883a 	add	r2,r2,r3
    306c:	11000017 	ldw	r4,0(r2)
    3070:	0002e580 	call	2e58 <mcapi_trans_decode_handle>
    3074:	11003fcc 	andi	r4,r2,255
    3078:	01438544 	movi	r5,3605
    307c:	0001fc00 	call	1fc0 <MCAPI_ASSERT>
    3080:	dcc0010b 	ldhu	r19,4(sp)
    3084:	dc80008b 	ldhu	r18,2(sp)
    3088:	dd00018b 	ldhu	r20,6(sp)
    308c:	9cc3e024 	muli	r19,r19,3968
    3090:	94807a24 	muli	r18,r18,488
    3094:	a51f0324 	muli	r20,r20,31756
    3098:	d462e117 	ldw	r17,-29820(gp)
    309c:	94c5883a 	add	r2,r18,r19
    30a0:	1505883a 	add	r2,r2,r20
    30a4:	10802704 	addi	r2,r2,156
    30a8:	81000017 	ldw	r4,0(r16)
    30ac:	8885883a 	add	r2,r17,r2
    30b0:	0021883a 	mov	r16,zero
    30b4:	00c00844 	movi	r3,33
    30b8:	11400017 	ldw	r5,0(r2)
    30bc:	2900071e 	bne	r5,r4,30dc <cancel_receive_request_have_lock+0xd8>
    30c0:	80800324 	muli	r2,r16,12
    30c4:	1485883a 	add	r2,r2,r18
    30c8:	14c5883a 	add	r2,r2,r19
    30cc:	1505883a 	add	r2,r2,r20
    30d0:	8885883a 	add	r2,r17,r2
    30d4:	10002715 	stw	zero,156(r2)
    30d8:	00000306 	br	30e8 <cancel_receive_request_have_lock+0xe4>
    30dc:	84000044 	addi	r16,r16,1
    30e0:	10800304 	addi	r2,r2,12
    30e4:	80fff41e 	bne	r16,r3,30b8 <cancel_receive_request_have_lock+0xb4>
    30e8:	81000858 	cmpnei	r4,r16,33
    30ec:	01438844 	movi	r5,3617
    30f0:	0001fc00 	call	1fc0 <MCAPI_ASSERT>
    30f4:	94c5883a 	add	r2,r18,r19
    30f8:	1505883a 	add	r2,r2,r20
    30fc:	8885883a 	add	r2,r17,r2
    3100:	15c0268b 	ldhu	r23,154(r2)
    3104:	10802604 	addi	r2,r2,152
    3108:	802b883a 	mov	r21,r16
    310c:	87000844 	addi	fp,r16,33
    3110:	802d883a 	mov	r22,r16
    3114:	100d883a 	mov	r6,r2
    3118:	a809883a 	mov	r4,r21
    311c:	01400844 	movi	r5,33
    3120:	d9800215 	stw	r6,8(sp)
    3124:	000a94c0 	call	a94c <__modsi3>
    3128:	d9800217 	ldw	r6,8(sp)
    312c:	15c0091e 	bne	r2,r23,3154 <cancel_receive_request_have_lock+0x150>
    3130:	bc000826 	beq	r23,r16,3154 <cancel_receive_request_have_lock+0x150>
    3134:	d880000b 	ldhu	r2,0(sp)
    3138:	10800c24 	muli	r2,r2,48
    313c:	88a3883a 	add	r17,r17,r2
    3140:	00bfab14 	movui	r2,65196
    3144:	88a3883a 	add	r17,r17,r2
    3148:	00800044 	movi	r2,1
    314c:	88800045 	stb	r2,1(r17)
    3150:	00001606 	br	31ac <cancel_receive_request_have_lock+0x1a8>
    3154:	30c0000b 	ldhu	r3,0(r6)
    3158:	10c0011e 	bne	r2,r3,3160 <cancel_receive_request_have_lock+0x15c>
    315c:	143ff51e 	bne	r2,r16,3134 <cancel_receive_request_have_lock+0x130>
    3160:	10c00324 	muli	r3,r2,12
    3164:	1c87883a 	add	r3,r3,r18
    3168:	1cc7883a 	add	r3,r3,r19
    316c:	1d07883a 	add	r3,r3,r20
    3170:	88c7883a 	add	r3,r17,r3
    3174:	18c02704 	addi	r3,r3,156
    3178:	19000017 	ldw	r4,0(r3)
    317c:	20000826 	beq	r4,zero,31a0 <cancel_receive_request_have_lock+0x19c>
    3180:	b1400324 	muli	r5,r22,12
    3184:	102d883a 	mov	r22,r2
    3188:	2c8b883a 	add	r5,r5,r18
    318c:	2ccb883a 	add	r5,r5,r19
    3190:	2d0b883a 	add	r5,r5,r20
    3194:	894b883a 	add	r5,r17,r5
    3198:	29002715 	stw	r4,156(r5)
    319c:	18000015 	stw	zero,0(r3)
    31a0:	ad400044 	addi	r21,r21,1
    31a4:	af3fdc1e 	bne	r21,fp,3118 <cancel_receive_request_have_lock+0x114>
    31a8:	003fe206 	br	3134 <cancel_receive_request_have_lock+0x130>
    31ac:	dfc00c17 	ldw	ra,48(sp)
    31b0:	df000b17 	ldw	fp,44(sp)
    31b4:	ddc00a17 	ldw	r23,40(sp)
    31b8:	dd800917 	ldw	r22,36(sp)
    31bc:	dd400817 	ldw	r21,32(sp)
    31c0:	dd000717 	ldw	r20,28(sp)
    31c4:	dcc00617 	ldw	r19,24(sp)
    31c8:	dc800517 	ldw	r18,20(sp)
    31cc:	dc400417 	ldw	r17,16(sp)
    31d0:	dc000317 	ldw	r16,12(sp)
    31d4:	dec00d04 	addi	sp,sp,52
    31d8:	f800283a 	ret

000031dc <mcapi_trans_cancel>:
    31dc:	defffb04 	addi	sp,sp,-20
    31e0:	dc400215 	stw	r17,8(sp)
    31e4:	2023883a 	mov	r17,r4
    31e8:	d122df17 	ldw	r4,-29828(gp)
    31ec:	dc800315 	stw	r18,12(sp)
    31f0:	04800044 	movi	r18,1
    31f4:	dc000115 	stw	r16,4(sp)
    31f8:	2821883a 	mov	r16,r5
    31fc:	900b883a 	mov	r5,r18
    3200:	dfc00415 	stw	ra,16(sp)
    3204:	00025580 	call	2558 <mcapi_trans_access_database_pre>
    3208:	8809883a 	mov	r4,r17
    320c:	d80b883a 	mov	r5,sp
    3210:	00023240 	call	2324 <mcapi_trans_decode_request_handle>
    3214:	11003fcc 	andi	r4,r2,255
    3218:	01431a44 	movi	r5,3177
    321c:	0001fc00 	call	1fc0 <MCAPI_ASSERT>
    3220:	d880000b 	ldhu	r2,0(sp)
    3224:	d0e2e117 	ldw	r3,-29820(gp)
    3228:	10800c24 	muli	r2,r2,48
    322c:	1885883a 	add	r2,r3,r2
    3230:	00ffa314 	movui	r3,65164
    3234:	10c7883a 	add	r3,r2,r3
    3238:	18c00003 	ldbu	r3,0(r3)
    323c:	1800021e 	bne	r3,zero,3248 <mcapi_trans_cancel+0x6c>
    3240:	00800a44 	movi	r2,41
    3244:	00002006 	br	32c8 <mcapi_trans_cancel+0xec>
    3248:	00ffab14 	movui	r3,65196
    324c:	10c7883a 	add	r3,r2,r3
    3250:	19000043 	ldbu	r4,1(r3)
    3254:	20000226 	beq	r4,zero,3260 <mcapi_trans_cancel+0x84>
    3258:	00800ac4 	movi	r2,43
    325c:	00001a06 	br	32c8 <mcapi_trans_cancel+0xec>
    3260:	19000003 	ldbu	r4,0(r3)
    3264:	2000191e 	bne	r4,zero,32cc <mcapi_trans_cancel+0xf0>
    3268:	1c800045 	stb	r18,1(r3)
    326c:	00ffa514 	movui	r3,65172
    3270:	10c5883a 	add	r2,r2,r3
    3274:	10800017 	ldw	r2,0(r2)
    3278:	00c00104 	movi	r3,4
    327c:	10c00326 	beq	r2,r3,328c <mcapi_trans_cancel+0xb0>
    3280:	00c00144 	movi	r3,5
    3284:	10c0041e 	bne	r2,r3,3298 <mcapi_trans_cancel+0xbc>
    3288:	00000506 	br	32a0 <mcapi_trans_cancel+0xc4>
    328c:	8809883a 	mov	r4,r17
    3290:	00030040 	call	3004 <cancel_receive_request_have_lock>
    3294:	00000206 	br	32a0 <mcapi_trans_cancel+0xc4>
    3298:	01031ec4 	movi	r4,3195
    329c:	00087700 	call	8770 <MCAPI_ASSERT.part.0>
    32a0:	d880000b 	ldhu	r2,0(sp)
    32a4:	d122e117 	ldw	r4,-29820(gp)
    32a8:	00ffa314 	movui	r3,65164
    32ac:	10800c24 	muli	r2,r2,48
    32b0:	000b883a 	mov	r5,zero
    32b4:	01800c04 	movi	r6,48
    32b8:	10c5883a 	add	r2,r2,r3
    32bc:	2089883a 	add	r4,r4,r2
    32c0:	000c09c0 	call	c09c <memset>
    32c4:	00800044 	movi	r2,1
    32c8:	80800015 	stw	r2,0(r16)
    32cc:	d122df17 	ldw	r4,-29828(gp)
    32d0:	01400044 	movi	r5,1
    32d4:	00025b00 	call	25b0 <mcapi_trans_access_database_post>
    32d8:	dfc00417 	ldw	ra,16(sp)
    32dc:	dc800317 	ldw	r18,12(sp)
    32e0:	dc400217 	ldw	r17,8(sp)
    32e4:	dc000117 	ldw	r16,4(sp)
    32e8:	dec00504 	addi	sp,sp,20
    32ec:	f800283a 	ret

000032f0 <mcapi_trans_display_state_have_lock>:
    32f0:	defff904 	addi	sp,sp,-28
    32f4:	dc000315 	stw	r16,12(sp)
    32f8:	2021883a 	mov	r16,r4
    32fc:	010000b4 	movhi	r4,2
    3300:	21292d04 	addi	r4,r4,-23372
    3304:	dfc00615 	stw	ra,24(sp)
    3308:	dc800515 	stw	r18,20(sp)
    330c:	dc400415 	stw	r17,16(sp)
    3310:	000c1a40 	call	c1a4 <printf>
    3314:	8000ac26 	beq	r16,zero,35c8 <mcapi_trans_display_state_have_lock+0x2d8>
    3318:	81000017 	ldw	r4,0(r16)
    331c:	d9800184 	addi	r6,sp,6
    3320:	d9c00104 	addi	r7,sp,4
    3324:	d9400204 	addi	r5,sp,8
    3328:	0002e580 	call	2e58 <mcapi_trans_decode_handle>
    332c:	11003fcc 	andi	r4,r2,255
    3330:	01434c04 	movi	r5,3376
    3334:	0001fc00 	call	1fc0 <MCAPI_ASSERT>
    3338:	d940018b 	ldhu	r5,6(sp)
    333c:	d880010b 	ldhu	r2,4(sp)
    3340:	d900020b 	ldhu	r4,8(sp)
    3344:	2943e024 	muli	r5,r5,3968
    3348:	10807a24 	muli	r2,r2,488
    334c:	211f0324 	muli	r4,r4,31756
    3350:	d0e2e117 	ldw	r3,-29820(gp)
    3354:	1145883a 	add	r2,r2,r5
    3358:	290d883a 	add	r6,r5,r4
    335c:	1105883a 	add	r2,r2,r4
    3360:	198d883a 	add	r6,r3,r6
    3364:	1885883a 	add	r2,r3,r2
    3368:	11c02517 	ldw	r7,148(r2)
    336c:	31400317 	ldw	r5,12(r6)
    3370:	11801317 	ldw	r6,76(r2)
    3374:	010000b4 	movhi	r4,2
    3378:	21293104 	addi	r4,r4,-23356
    337c:	0023883a 	mov	r17,zero
    3380:	000c1a40 	call	c1a4 <printf>
    3384:	d940010b 	ldhu	r5,4(sp)
    3388:	010000b4 	movhi	r4,2
    338c:	21293f04 	addi	r4,r4,-23300
    3390:	000c1a40 	call	c1a4 <printf>
    3394:	d900010b 	ldhu	r4,4(sp)
    3398:	d880018b 	ldhu	r2,6(sp)
    339c:	d8c0020b 	ldhu	r3,8(sp)
    33a0:	21007a24 	muli	r4,r4,488
    33a4:	1083e024 	muli	r2,r2,3968
    33a8:	18df0324 	muli	r3,r3,31756
    33ac:	2085883a 	add	r2,r4,r2
    33b0:	10c5883a 	add	r2,r2,r3
    33b4:	d0e2e117 	ldw	r3,-29820(gp)
    33b8:	010000b4 	movhi	r4,2
    33bc:	21294404 	addi	r4,r4,-23280
    33c0:	1885883a 	add	r2,r3,r2
    33c4:	11401403 	ldbu	r5,80(r2)
    33c8:	000c1a40 	call	c1a4 <printf>
    33cc:	d900010b 	ldhu	r4,4(sp)
    33d0:	d880018b 	ldhu	r2,6(sp)
    33d4:	d8c0020b 	ldhu	r3,8(sp)
    33d8:	21007a24 	muli	r4,r4,488
    33dc:	1083e024 	muli	r2,r2,3968
    33e0:	18df0324 	muli	r3,r3,31756
    33e4:	2085883a 	add	r2,r4,r2
    33e8:	10c5883a 	add	r2,r2,r3
    33ec:	d0e2e117 	ldw	r3,-29820(gp)
    33f0:	010000b4 	movhi	r4,2
    33f4:	21294804 	addi	r4,r4,-23264
    33f8:	1885883a 	add	r2,r3,r2
    33fc:	11401443 	ldbu	r5,81(r2)
    3400:	000c1a40 	call	c1a4 <printf>
    3404:	d900010b 	ldhu	r4,4(sp)
    3408:	d880018b 	ldhu	r2,6(sp)
    340c:	d8c0020b 	ldhu	r3,8(sp)
    3410:	21007a24 	muli	r4,r4,488
    3414:	1083e024 	muli	r2,r2,3968
    3418:	18df0324 	muli	r3,r3,31756
    341c:	2085883a 	add	r2,r4,r2
    3420:	10c5883a 	add	r2,r2,r3
    3424:	d0e2e117 	ldw	r3,-29820(gp)
    3428:	010000b4 	movhi	r4,2
    342c:	21294d04 	addi	r4,r4,-23244
    3430:	1885883a 	add	r2,r3,r2
    3434:	11401483 	ldbu	r5,82(r2)
    3438:	000c1a40 	call	c1a4 <printf>
    343c:	d900010b 	ldhu	r4,4(sp)
    3440:	d880018b 	ldhu	r2,6(sp)
    3444:	d8c0020b 	ldhu	r3,8(sp)
    3448:	21007a24 	muli	r4,r4,488
    344c:	1083e024 	muli	r2,r2,3968
    3450:	18df0324 	muli	r3,r3,31756
    3454:	2085883a 	add	r2,r4,r2
    3458:	10c5883a 	add	r2,r2,r3
    345c:	d0e2e117 	ldw	r3,-29820(gp)
    3460:	010000b4 	movhi	r4,2
    3464:	21295104 	addi	r4,r4,-23228
    3468:	1885883a 	add	r2,r3,r2
    346c:	114014c3 	ldbu	r5,83(r2)
    3470:	000c1a40 	call	c1a4 <printf>
    3474:	d900010b 	ldhu	r4,4(sp)
    3478:	d880018b 	ldhu	r2,6(sp)
    347c:	d8c0020b 	ldhu	r3,8(sp)
    3480:	21007a24 	muli	r4,r4,488
    3484:	1083e024 	muli	r2,r2,3968
    3488:	18df0324 	muli	r3,r3,31756
    348c:	2085883a 	add	r2,r4,r2
    3490:	10c5883a 	add	r2,r2,r3
    3494:	d0e2e117 	ldw	r3,-29820(gp)
    3498:	010000b4 	movhi	r4,2
    349c:	21295604 	addi	r4,r4,-23208
    34a0:	1885883a 	add	r2,r3,r2
    34a4:	11401517 	ldw	r5,84(r2)
    34a8:	000c1a40 	call	c1a4 <printf>
    34ac:	00003506 	br	3584 <mcapi_trans_display_state_have_lock+0x294>
    34b0:	800b883a 	mov	r5,r16
    34b4:	010000b4 	movhi	r4,2
    34b8:	21295d04 	addi	r4,r4,-23180
    34bc:	000c1a40 	call	c1a4 <printf>
    34c0:	d900010b 	ldhu	r4,4(sp)
    34c4:	d880018b 	ldhu	r2,6(sp)
    34c8:	84800044 	addi	r18,r16,1
    34cc:	d8c0020b 	ldhu	r3,8(sp)
    34d0:	94800324 	muli	r18,r18,12
    34d4:	21007a24 	muli	r4,r4,488
    34d8:	1083e024 	muli	r2,r2,3968
    34dc:	18df0324 	muli	r3,r3,31756
    34e0:	9109883a 	add	r4,r18,r4
    34e4:	2085883a 	add	r2,r4,r2
    34e8:	10c5883a 	add	r2,r2,r3
    34ec:	d0e2e117 	ldw	r3,-29820(gp)
    34f0:	010000b4 	movhi	r4,2
    34f4:	21296304 	addi	r4,r4,-23156
    34f8:	84000324 	muli	r16,r16,12
    34fc:	1885883a 	add	r2,r3,r2
    3500:	11401303 	ldbu	r5,76(r2)
    3504:	8c400044 	addi	r17,r17,1
    3508:	000c1a40 	call	c1a4 <printf>
    350c:	d900010b 	ldhu	r4,4(sp)
    3510:	d8c0018b 	ldhu	r3,6(sp)
    3514:	d880020b 	ldhu	r2,8(sp)
    3518:	21007a24 	muli	r4,r4,488
    351c:	18c3e024 	muli	r3,r3,3968
    3520:	109f0324 	muli	r2,r2,31756
    3524:	9125883a 	add	r18,r18,r4
    3528:	90e5883a 	add	r18,r18,r3
    352c:	90a5883a 	add	r18,r18,r2
    3530:	d0a2e117 	ldw	r2,-29820(gp)
    3534:	010000b4 	movhi	r4,2
    3538:	21296804 	addi	r4,r4,-23136
    353c:	14a5883a 	add	r18,r2,r18
    3540:	9140138b 	ldhu	r5,78(r18)
    3544:	000c1a40 	call	c1a4 <printf>
    3548:	d880010b 	ldhu	r2,4(sp)
    354c:	d900018b 	ldhu	r4,6(sp)
    3550:	d8c0020b 	ldhu	r3,8(sp)
    3554:	10807a24 	muli	r2,r2,488
    3558:	2103e024 	muli	r4,r4,3968
    355c:	18df0324 	muli	r3,r3,31756
    3560:	8085883a 	add	r2,r16,r2
    3564:	1105883a 	add	r2,r2,r4
    3568:	10c5883a 	add	r2,r2,r3
    356c:	d0e2e117 	ldw	r3,-29820(gp)
    3570:	010000b4 	movhi	r4,2
    3574:	21296f04 	addi	r4,r4,-23108
    3578:	1885883a 	add	r2,r3,r2
    357c:	11401717 	ldw	r5,92(r2)
    3580:	000c1a40 	call	c1a4 <printf>
    3584:	d900010b 	ldhu	r4,4(sp)
    3588:	d880018b 	ldhu	r2,6(sp)
    358c:	d8c0020b 	ldhu	r3,8(sp)
    3590:	21007a24 	muli	r4,r4,488
    3594:	1083e024 	muli	r2,r2,3968
    3598:	18df0324 	muli	r3,r3,31756
    359c:	8c3fffcc 	andi	r16,r17,65535
    35a0:	2085883a 	add	r2,r4,r2
    35a4:	10c5883a 	add	r2,r2,r3
    35a8:	d0e2e117 	ldw	r3,-29820(gp)
    35ac:	1885883a 	add	r2,r3,r2
    35b0:	10801517 	ldw	r2,84(r2)
    35b4:	80bfbe36 	bltu	r16,r2,34b0 <mcapi_trans_display_state_have_lock+0x1c0>
    35b8:	010000b4 	movhi	r4,2
    35bc:	21297404 	addi	r4,r4,-23088
    35c0:	000c1a40 	call	c1a4 <printf>
    35c4:	0000d706 	br	3924 <mcapi_trans_display_state_have_lock+0x634>
    35c8:	d800020d 	sth	zero,8(sp)
    35cc:	0000d206 	br	3918 <mcapi_trans_display_state_have_lock+0x628>
    35d0:	d800018d 	sth	zero,6(sp)
    35d4:	0000ca06 	br	3900 <mcapi_trans_display_state_have_lock+0x610>
    35d8:	d940020b 	ldhu	r5,8(sp)
    35dc:	d1e2e117 	ldw	r7,-29820(gp)
    35e0:	02000044 	movi	r8,1
    35e4:	28df0324 	muli	r3,r5,31756
    35e8:	38c5883a 	add	r2,r7,r3
    35ec:	11000203 	ldbu	r4,8(r2)
    35f0:	22000426 	beq	r4,r8,3604 <mcapi_trans_display_state_have_lock+0x314>
    35f4:	d880018b 	ldhu	r2,6(sp)
    35f8:	10800044 	addi	r2,r2,1
    35fc:	d880018d 	sth	r2,6(sp)
    3600:	0000bf06 	br	3900 <mcapi_trans_display_state_have_lock+0x610>
    3604:	3203e024 	muli	r8,r6,3968
    3608:	40c7883a 	add	r3,r8,r3
    360c:	38c7883a 	add	r3,r7,r3
    3610:	19c00403 	ldbu	r7,16(r3)
    3614:	393ff71e 	bne	r7,r4,35f4 <mcapi_trans_display_state_have_lock+0x304>
    3618:	18c00317 	ldw	r3,12(r3)
    361c:	010000b4 	movhi	r4,2
    3620:	21297504 	addi	r4,r4,-23084
    3624:	d8c00015 	stw	r3,0(sp)
    3628:	11c00117 	ldw	r7,4(r2)
    362c:	000c1a40 	call	c1a4 <printf>
    3630:	d8c0018b 	ldhu	r3,6(sp)
    3634:	d880020b 	ldhu	r2,8(sp)
    3638:	010000b4 	movhi	r4,2
    363c:	21298304 	addi	r4,r4,-23028
    3640:	18c3e024 	muli	r3,r3,3968
    3644:	109f0324 	muli	r2,r2,31756
    3648:	1885883a 	add	r2,r3,r2
    364c:	d0e2e117 	ldw	r3,-29820(gp)
    3650:	1885883a 	add	r2,r3,r2
    3654:	1140120b 	ldhu	r5,72(r2)
    3658:	000c1a40 	call	c1a4 <printf>
    365c:	d800010d 	sth	zero,4(sp)
    3660:	00009c06 	br	38d4 <mcapi_trans_display_state_have_lock+0x5e4>
    3664:	29807a24 	muli	r6,r5,488
    3668:	3109883a 	add	r4,r6,r4
    366c:	20c7883a 	add	r3,r4,r3
    3670:	10c5883a 	add	r2,r2,r3
    3674:	10801403 	ldbu	r2,80(r2)
    3678:	1000041e 	bne	r2,zero,368c <mcapi_trans_display_state_have_lock+0x39c>
    367c:	d880010b 	ldhu	r2,4(sp)
    3680:	10800044 	addi	r2,r2,1
    3684:	d880010d 	sth	r2,4(sp)
    3688:	00009206 	br	38d4 <mcapi_trans_display_state_have_lock+0x5e4>
    368c:	010000b4 	movhi	r4,2
    3690:	21298804 	addi	r4,r4,-23008
    3694:	000c1a40 	call	c1a4 <printf>
    3698:	d900010b 	ldhu	r4,4(sp)
    369c:	d880018b 	ldhu	r2,6(sp)
    36a0:	d8c0020b 	ldhu	r3,8(sp)
    36a4:	21007a24 	muli	r4,r4,488
    36a8:	1083e024 	muli	r2,r2,3968
    36ac:	18df0324 	muli	r3,r3,31756
    36b0:	0023883a 	mov	r17,zero
    36b4:	2085883a 	add	r2,r4,r2
    36b8:	10c5883a 	add	r2,r2,r3
    36bc:	d0e2e117 	ldw	r3,-29820(gp)
    36c0:	010000b4 	movhi	r4,2
    36c4:	21298e04 	addi	r4,r4,-22984
    36c8:	1885883a 	add	r2,r3,r2
    36cc:	11401317 	ldw	r5,76(r2)
    36d0:	000c1a40 	call	c1a4 <printf>
    36d4:	d900010b 	ldhu	r4,4(sp)
    36d8:	d880018b 	ldhu	r2,6(sp)
    36dc:	d8c0020b 	ldhu	r3,8(sp)
    36e0:	21007a24 	muli	r4,r4,488
    36e4:	1083e024 	muli	r2,r2,3968
    36e8:	18df0324 	muli	r3,r3,31756
    36ec:	2085883a 	add	r2,r4,r2
    36f0:	10c5883a 	add	r2,r2,r3
    36f4:	d0e2e117 	ldw	r3,-29820(gp)
    36f8:	010000b4 	movhi	r4,2
    36fc:	21294804 	addi	r4,r4,-23264
    3700:	1885883a 	add	r2,r3,r2
    3704:	11401443 	ldbu	r5,81(r2)
    3708:	000c1a40 	call	c1a4 <printf>
    370c:	d900010b 	ldhu	r4,4(sp)
    3710:	d880018b 	ldhu	r2,6(sp)
    3714:	d8c0020b 	ldhu	r3,8(sp)
    3718:	21007a24 	muli	r4,r4,488
    371c:	1083e024 	muli	r2,r2,3968
    3720:	18df0324 	muli	r3,r3,31756
    3724:	2085883a 	add	r2,r4,r2
    3728:	10c5883a 	add	r2,r2,r3
    372c:	d0e2e117 	ldw	r3,-29820(gp)
    3730:	010000b4 	movhi	r4,2
    3734:	21294d04 	addi	r4,r4,-23244
    3738:	1885883a 	add	r2,r3,r2
    373c:	11401483 	ldbu	r5,82(r2)
    3740:	000c1a40 	call	c1a4 <printf>
    3744:	d900010b 	ldhu	r4,4(sp)
    3748:	d880018b 	ldhu	r2,6(sp)
    374c:	d8c0020b 	ldhu	r3,8(sp)
    3750:	21007a24 	muli	r4,r4,488
    3754:	1083e024 	muli	r2,r2,3968
    3758:	18df0324 	muli	r3,r3,31756
    375c:	2085883a 	add	r2,r4,r2
    3760:	10c5883a 	add	r2,r2,r3
    3764:	d0e2e117 	ldw	r3,-29820(gp)
    3768:	010000b4 	movhi	r4,2
    376c:	21295104 	addi	r4,r4,-23228
    3770:	1885883a 	add	r2,r3,r2
    3774:	114014c3 	ldbu	r5,83(r2)
    3778:	000c1a40 	call	c1a4 <printf>
    377c:	d900010b 	ldhu	r4,4(sp)
    3780:	d880018b 	ldhu	r2,6(sp)
    3784:	d8c0020b 	ldhu	r3,8(sp)
    3788:	21007a24 	muli	r4,r4,488
    378c:	1083e024 	muli	r2,r2,3968
    3790:	18df0324 	muli	r3,r3,31756
    3794:	2085883a 	add	r2,r4,r2
    3798:	10c5883a 	add	r2,r2,r3
    379c:	d0e2e117 	ldw	r3,-29820(gp)
    37a0:	010000b4 	movhi	r4,2
    37a4:	21295604 	addi	r4,r4,-23208
    37a8:	1885883a 	add	r2,r3,r2
    37ac:	11401517 	ldw	r5,84(r2)
    37b0:	000c1a40 	call	c1a4 <printf>
    37b4:	00003906 	br	389c <mcapi_trans_display_state_have_lock+0x5ac>
    37b8:	800b883a 	mov	r5,r16
    37bc:	010000b4 	movhi	r4,2
    37c0:	21299304 	addi	r4,r4,-22964
    37c4:	000c1a40 	call	c1a4 <printf>
    37c8:	800b883a 	mov	r5,r16
    37cc:	010000b4 	movhi	r4,2
    37d0:	21295d04 	addi	r4,r4,-23180
    37d4:	000c1a40 	call	c1a4 <printf>
    37d8:	d900010b 	ldhu	r4,4(sp)
    37dc:	d880018b 	ldhu	r2,6(sp)
    37e0:	84800044 	addi	r18,r16,1
    37e4:	d8c0020b 	ldhu	r3,8(sp)
    37e8:	94800324 	muli	r18,r18,12
    37ec:	21007a24 	muli	r4,r4,488
    37f0:	1083e024 	muli	r2,r2,3968
    37f4:	18df0324 	muli	r3,r3,31756
    37f8:	9109883a 	add	r4,r18,r4
    37fc:	2085883a 	add	r2,r4,r2
    3800:	10c5883a 	add	r2,r2,r3
    3804:	d0e2e117 	ldw	r3,-29820(gp)
    3808:	010000b4 	movhi	r4,2
    380c:	21296304 	addi	r4,r4,-23156
    3810:	84000324 	muli	r16,r16,12
    3814:	1885883a 	add	r2,r3,r2
    3818:	11401303 	ldbu	r5,76(r2)
    381c:	8c400044 	addi	r17,r17,1
    3820:	000c1a40 	call	c1a4 <printf>
    3824:	d900010b 	ldhu	r4,4(sp)
    3828:	d8c0018b 	ldhu	r3,6(sp)
    382c:	d880020b 	ldhu	r2,8(sp)
    3830:	21007a24 	muli	r4,r4,488
    3834:	18c3e024 	muli	r3,r3,3968
    3838:	109f0324 	muli	r2,r2,31756
    383c:	9125883a 	add	r18,r18,r4
    3840:	90e5883a 	add	r18,r18,r3
    3844:	90a5883a 	add	r18,r18,r2
    3848:	d0a2e117 	ldw	r2,-29820(gp)
    384c:	010000b4 	movhi	r4,2
    3850:	21296804 	addi	r4,r4,-23136
    3854:	14a5883a 	add	r18,r2,r18
    3858:	9140138b 	ldhu	r5,78(r18)
    385c:	000c1a40 	call	c1a4 <printf>
    3860:	d880010b 	ldhu	r2,4(sp)
    3864:	d900018b 	ldhu	r4,6(sp)
    3868:	d8c0020b 	ldhu	r3,8(sp)
    386c:	10807a24 	muli	r2,r2,488
    3870:	2103e024 	muli	r4,r4,3968
    3874:	18df0324 	muli	r3,r3,31756
    3878:	8085883a 	add	r2,r16,r2
    387c:	1105883a 	add	r2,r2,r4
    3880:	10c5883a 	add	r2,r2,r3
    3884:	d0e2e117 	ldw	r3,-29820(gp)
    3888:	010000b4 	movhi	r4,2
    388c:	21299704 	addi	r4,r4,-22948
    3890:	1885883a 	add	r2,r3,r2
    3894:	11401717 	ldw	r5,92(r2)
    3898:	000c1a40 	call	c1a4 <printf>
    389c:	d900010b 	ldhu	r4,4(sp)
    38a0:	d880018b 	ldhu	r2,6(sp)
    38a4:	d8c0020b 	ldhu	r3,8(sp)
    38a8:	21007a24 	muli	r4,r4,488
    38ac:	1083e024 	muli	r2,r2,3968
    38b0:	18df0324 	muli	r3,r3,31756
    38b4:	8c3fffcc 	andi	r16,r17,65535
    38b8:	2085883a 	add	r2,r4,r2
    38bc:	10c5883a 	add	r2,r2,r3
    38c0:	d0e2e117 	ldw	r3,-29820(gp)
    38c4:	1885883a 	add	r2,r3,r2
    38c8:	10801517 	ldw	r2,84(r2)
    38cc:	80bfba36 	bltu	r16,r2,37b8 <mcapi_trans_display_state_have_lock+0x4c8>
    38d0:	003f6a06 	br	367c <mcapi_trans_display_state_have_lock+0x38c>
    38d4:	d8c0020b 	ldhu	r3,8(sp)
    38d8:	d900018b 	ldhu	r4,6(sp)
    38dc:	d0a2e117 	ldw	r2,-29820(gp)
    38e0:	18df0324 	muli	r3,r3,31756
    38e4:	2103e024 	muli	r4,r4,3968
    38e8:	d940010b 	ldhu	r5,4(sp)
    38ec:	20cd883a 	add	r6,r4,r3
    38f0:	118d883a 	add	r6,r2,r6
    38f4:	3180120b 	ldhu	r6,72(r6)
    38f8:	29bf5a36 	bltu	r5,r6,3664 <mcapi_trans_display_state_have_lock+0x374>
    38fc:	003f3d06 	br	35f4 <mcapi_trans_display_state_have_lock+0x304>
    3900:	d980018b 	ldhu	r6,6(sp)
    3904:	008001c4 	movi	r2,7
    3908:	11bf332e 	bgeu	r2,r6,35d8 <mcapi_trans_display_state_have_lock+0x2e8>
    390c:	d880020b 	ldhu	r2,8(sp)
    3910:	10800044 	addi	r2,r2,1
    3914:	d880020d 	sth	r2,8(sp)
    3918:	d880020b 	ldhu	r2,8(sp)
    391c:	103f2c26 	beq	r2,zero,35d0 <mcapi_trans_display_state_have_lock+0x2e0>
    3920:	003f2506 	br	35b8 <mcapi_trans_display_state_have_lock+0x2c8>
    3924:	dfc00617 	ldw	ra,24(sp)
    3928:	dc800517 	ldw	r18,20(sp)
    392c:	dc400417 	ldw	r17,16(sp)
    3930:	dc000317 	ldw	r16,12(sp)
    3934:	dec00704 	addi	sp,sp,28
    3938:	f800283a 	ret

0000393c <mcapi_trans_display_state>:
    393c:	defffd04 	addi	sp,sp,-12
    3940:	dc400115 	stw	r17,4(sp)
    3944:	2023883a 	mov	r17,r4
    3948:	d122df17 	ldw	r4,-29828(gp)
    394c:	dc000015 	stw	r16,0(sp)
    3950:	04000044 	movi	r16,1
    3954:	800b883a 	mov	r5,r16
    3958:	dfc00215 	stw	ra,8(sp)
    395c:	00025580 	call	2558 <mcapi_trans_access_database_pre>
    3960:	11003fcc 	andi	r4,r2,255
    3964:	01434584 	movi	r5,3350
    3968:	0001fc00 	call	1fc0 <MCAPI_ASSERT>
    396c:	8809883a 	mov	r4,r17
    3970:	00032f00 	call	32f0 <mcapi_trans_display_state_have_lock>
    3974:	d122df17 	ldw	r4,-29828(gp)
    3978:	800b883a 	mov	r5,r16
    397c:	00025b00 	call	25b0 <mcapi_trans_access_database_post>
    3980:	11003fcc 	andi	r4,r2,255
    3984:	01434644 	movi	r5,3353
    3988:	dfc00217 	ldw	ra,8(sp)
    398c:	dc400117 	ldw	r17,4(sp)
    3990:	dc000017 	ldw	r16,0(sp)
    3994:	dec00304 	addi	sp,sp,12
    3998:	0001fc01 	jmpi	1fc0 <MCAPI_ASSERT>

0000399c <setup_request_have_lock>:
    399c:	defff404 	addi	sp,sp,-48
    39a0:	d8c01217 	ldw	r3,72(sp)
    39a4:	dc000215 	stw	r16,8(sp)
    39a8:	d0a2e117 	ldw	r2,-29820(gp)
    39ac:	1c000c24 	muli	r16,r3,48
    39b0:	dd000615 	stw	r20,24(sp)
    39b4:	2829883a 	mov	r20,r5
    39b8:	31400017 	ldw	r5,0(r6)
    39bc:	dc400315 	stw	r17,12(sp)
    39c0:	1405883a 	add	r2,r2,r16
    39c4:	2023883a 	mov	r17,r4
    39c8:	013fad14 	movui	r4,65204
    39cc:	dd400715 	stw	r21,28(sp)
    39d0:	dcc00515 	stw	r19,20(sp)
    39d4:	dc800415 	stw	r18,16(sp)
    39d8:	dfc00b15 	stw	ra,44(sp)
    39dc:	df000a15 	stw	fp,40(sp)
    39e0:	ddc00915 	stw	r23,36(sp)
    39e4:	dd800815 	stw	r22,32(sp)
    39e8:	1109883a 	add	r4,r2,r4
    39ec:	21400015 	stw	r5,0(r4)
    39f0:	d9400c17 	ldw	r5,48(sp)
    39f4:	013fa414 	movui	r4,65168
    39f8:	1109883a 	add	r4,r2,r4
    39fc:	21400015 	stw	r5,0(r4)
    3a00:	013fab14 	movui	r4,65196
    3a04:	1105883a 	add	r2,r2,r4
    3a08:	dcc00d17 	ldw	r19,52(sp)
    3a0c:	10000045 	stb	zero,1(r2)
    3a10:	11c00005 	stb	r7,0(r2)
    3a14:	18e00034 	orhi	r3,r3,32768
    3a18:	a0c00015 	stw	r3,0(r20)
    3a1c:	dc800e17 	ldw	r18,56(sp)
    3a20:	382b883a 	mov	r21,r7
    3a24:	98002026 	beq	r19,zero,3aa8 <setup_request_have_lock+0x10c>
    3a28:	38803fcc 	andi	r2,r7,255
    3a2c:	10001e1e 	bne	r2,zero,3aa8 <setup_request_have_lock+0x10c>
    3a30:	89000017 	ldw	r4,0(r17)
    3a34:	d9400104 	addi	r5,sp,4
    3a38:	d9800084 	addi	r6,sp,2
    3a3c:	d80f883a 	mov	r7,sp
    3a40:	0002e580 	call	2e58 <mcapi_trans_decode_handle>
    3a44:	11003fcc 	andi	r4,r2,255
    3a48:	01433304 	movi	r5,3276
    3a4c:	0001fc00 	call	1fc0 <MCAPI_ASSERT>
    3a50:	d940000b 	ldhu	r5,0(sp)
    3a54:	d8c0008b 	ldhu	r3,2(sp)
    3a58:	d900010b 	ldhu	r4,4(sp)
    3a5c:	29407a24 	muli	r5,r5,488
    3a60:	18c3e024 	muli	r3,r3,3968
    3a64:	211f0324 	muli	r4,r4,31756
    3a68:	d0a2e117 	ldw	r2,-29820(gp)
    3a6c:	28c7883a 	add	r3,r5,r3
    3a70:	1907883a 	add	r3,r3,r4
    3a74:	10c7883a 	add	r3,r2,r3
    3a78:	19002403 	ldbu	r4,144(r3)
    3a7c:	00c00044 	movi	r3,1
    3a80:	1405883a 	add	r2,r2,r16
    3a84:	20c0041e 	bne	r4,r3,3a98 <setup_request_have_lock+0xfc>
    3a88:	00ffa714 	movui	r3,65180
    3a8c:	10c5883a 	add	r2,r2,r3
    3a90:	14c00015 	stw	r19,0(r2)
    3a94:	00000406 	br	3aa8 <setup_request_have_lock+0x10c>
    3a98:	98c00017 	ldw	r3,0(r19)
    3a9c:	013fa614 	movui	r4,65176
    3aa0:	1105883a 	add	r2,r2,r4
    3aa4:	10c00015 	stw	r3,0(r2)
    3aa8:	d0a2e117 	ldw	r2,-29820(gp)
    3aac:	00ffa514 	movui	r3,65172
    3ab0:	89000017 	ldw	r4,0(r17)
    3ab4:	1405883a 	add	r2,r2,r16
    3ab8:	10c7883a 	add	r3,r2,r3
    3abc:	1c800015 	stw	r18,0(r3)
    3ac0:	00ffac14 	movui	r3,65200
    3ac4:	10c7883a 	add	r3,r2,r3
    3ac8:	19000015 	stw	r4,0(r3)
    3acc:	00c00144 	movi	r3,5
    3ad0:	90c00f1e 	bne	r18,r3,3b10 <setup_request_have_lock+0x174>
    3ad4:	00ffae14 	movui	r3,65208
    3ad8:	10c7883a 	add	r3,r2,r3
    3adc:	d9000f17 	ldw	r4,60(sp)
    3ae0:	1c400015 	stw	r17,0(r3)
    3ae4:	00ffa814 	movui	r3,65184
    3ae8:	10c7883a 	add	r3,r2,r3
    3aec:	19000015 	stw	r4,0(r3)
    3af0:	d9001017 	ldw	r4,64(sp)
    3af4:	00ffa914 	movui	r3,65188
    3af8:	10c7883a 	add	r3,r2,r3
    3afc:	19000015 	stw	r4,0(r3)
    3b00:	00ffaa14 	movui	r3,65192
    3b04:	10c5883a 	add	r2,r2,r3
    3b08:	d8c01117 	ldw	r3,68(sp)
    3b0c:	00002706 	br	3bac <setup_request_have_lock+0x210>
    3b10:	00800104 	movi	r2,4
    3b14:	9080321e 	bne	r18,r2,3be0 <setup_request_have_lock+0x244>
    3b18:	ad403fcc 	andi	r21,r21,255
    3b1c:	a800301e 	bne	r21,zero,3be0 <setup_request_have_lock+0x244>
    3b20:	89000017 	ldw	r4,0(r17)
    3b24:	d88b883a 	add	r5,sp,r2
    3b28:	d9800084 	addi	r6,sp,2
    3b2c:	d80f883a 	mov	r7,sp
    3b30:	0002e580 	call	2e58 <mcapi_trans_decode_handle>
    3b34:	11003fcc 	andi	r4,r2,255
    3b38:	014338c4 	movi	r5,3299
    3b3c:	0001fc00 	call	1fc0 <MCAPI_ASSERT>
    3b40:	dd40008b 	ldhu	r21,2(sp)
    3b44:	dcc0000b 	ldhu	r19,0(sp)
    3b48:	dd80010b 	ldhu	r22,4(sp)
    3b4c:	ad43e024 	muli	r21,r21,3968
    3b50:	9cc07a24 	muli	r19,r19,488
    3b54:	b59f0324 	muli	r22,r22,31756
    3b58:	d4a2e117 	ldw	r18,-29820(gp)
    3b5c:	9d45883a 	add	r2,r19,r21
    3b60:	1585883a 	add	r2,r2,r22
    3b64:	9085883a 	add	r2,r18,r2
    3b68:	1700260b 	ldhu	fp,152(r2)
    3b6c:	0023883a 	mov	r17,zero
    3b70:	05c00844 	movi	r23,33
    3b74:	8f09883a 	add	r4,r17,fp
    3b78:	01400844 	movi	r5,33
    3b7c:	000a94c0 	call	a94c <__modsi3>
    3b80:	10800324 	muli	r2,r2,12
    3b84:	14c7883a 	add	r3,r2,r19
    3b88:	1d47883a 	add	r3,r3,r21
    3b8c:	1d87883a 	add	r3,r3,r22
    3b90:	90c7883a 	add	r3,r18,r3
    3b94:	18802704 	addi	r2,r3,156
    3b98:	11000017 	ldw	r4,0(r2)
    3b9c:	2000051e 	bne	r4,zero,3bb4 <setup_request_have_lock+0x218>
    3ba0:	18c02903 	ldbu	r3,164(r3)
    3ba4:	1800031e 	bne	r3,zero,3bb4 <setup_request_have_lock+0x218>
    3ba8:	a0c00017 	ldw	r3,0(r20)
    3bac:	10c00015 	stw	r3,0(r2)
    3bb0:	00000b06 	br	3be0 <setup_request_have_lock+0x244>
    3bb4:	8c400044 	addi	r17,r17,1
    3bb8:	8dffee1e 	bne	r17,r23,3b74 <setup_request_have_lock+0x1d8>
    3bbc:	9421883a 	add	r16,r18,r16
    3bc0:	00bfad14 	movui	r2,65204
    3bc4:	8085883a 	add	r2,r16,r2
    3bc8:	00c00a04 	movi	r3,40
    3bcc:	04bfab14 	movui	r18,65196
    3bd0:	10c00015 	stw	r3,0(r2)
    3bd4:	84a1883a 	add	r16,r16,r18
    3bd8:	00800044 	movi	r2,1
    3bdc:	80800005 	stb	r2,0(r16)
    3be0:	00800044 	movi	r2,1
    3be4:	dfc00b17 	ldw	ra,44(sp)
    3be8:	df000a17 	ldw	fp,40(sp)
    3bec:	ddc00917 	ldw	r23,36(sp)
    3bf0:	dd800817 	ldw	r22,32(sp)
    3bf4:	dd400717 	ldw	r21,28(sp)
    3bf8:	dd000617 	ldw	r20,24(sp)
    3bfc:	dcc00517 	ldw	r19,20(sp)
    3c00:	dc800417 	ldw	r18,16(sp)
    3c04:	dc400317 	ldw	r17,12(sp)
    3c08:	dc000217 	ldw	r16,8(sp)
    3c0c:	dec00c04 	addi	sp,sp,48
    3c10:	f800283a 	ret

00003c14 <mcapi_trans_endpoint_get_i>:
    3c14:	defff004 	addi	sp,sp,-64
    3c18:	dd400d15 	stw	r21,52(sp)
    3c1c:	dc800a15 	stw	r18,40(sp)
    3c20:	dd401117 	ldw	r21,68(sp)
    3c24:	2025883a 	mov	r18,r4
    3c28:	d122df17 	ldw	r4,-29828(gp)
    3c2c:	dd000c15 	stw	r20,48(sp)
    3c30:	05000044 	movi	r20,1
    3c34:	dc000815 	stw	r16,32(sp)
    3c38:	2821883a 	mov	r16,r5
    3c3c:	a00b883a 	mov	r5,r20
    3c40:	dfc00f15 	stw	ra,60(sp)
    3c44:	dd800e15 	stw	r22,56(sp)
    3c48:	dcc00b15 	stw	r19,44(sp)
    3c4c:	dc400915 	stw	r17,36(sp)
    3c50:	3827883a 	mov	r19,r7
    3c54:	3023883a 	mov	r17,r6
    3c58:	ad800017 	ldw	r22,0(r21)
    3c5c:	00025580 	call	2558 <mcapi_trans_access_database_pre>
    3c60:	11003fcc 	andi	r4,r2,255
    3c64:	01418684 	movi	r5,1562
    3c68:	0001fc00 	call	1fc0 <MCAPI_ASSERT>
    3c6c:	d9000704 	addi	r4,sp,28
    3c70:	00020b80 	call	20b8 <mcapi_trans_reserve_request_have_lock>
    3c74:	10803fcc 	andi	r2,r2,255
    3c78:	10003326 	beq	r2,zero,3d48 <mcapi_trans_endpoint_get_i+0x134>
    3c7c:	b500201e 	bne	r22,r20,3d00 <mcapi_trans_endpoint_get_i+0xec>
    3c80:	d0a00017 	ldw	r2,-32768(gp)
    3c84:	80800a1e 	bne	r16,r2,3cb0 <mcapi_trans_endpoint_get_i+0x9c>
    3c88:	d0a00117 	ldw	r2,-32764(gp)
    3c8c:	8880081e 	bne	r17,r2,3cb0 <mcapi_trans_endpoint_get_i+0x9c>
    3c90:	9009883a 	mov	r4,r18
    3c94:	800b883a 	mov	r5,r16
    3c98:	880d883a 	mov	r6,r17
    3c9c:	980f883a 	mov	r7,r19
    3ca0:	0002a480 	call	2a48 <mcapi_trans_endpoint_get_have_lock>
    3ca4:	10803fcc 	andi	r2,r2,255
    3ca8:	1028c03a 	cmpne	r20,r2,zero
    3cac:	00001506 	br	3d04 <mcapi_trans_endpoint_get_i+0xf0>
    3cb0:	d122df17 	ldw	r4,-29828(gp)
    3cb4:	01400044 	movi	r5,1
    3cb8:	00025b00 	call	25b0 <mcapi_trans_access_database_post>
    3cbc:	11003fcc 	andi	r4,r2,255
    3cc0:	01418ac4 	movi	r5,1579
    3cc4:	0001fc00 	call	1fc0 <MCAPI_ASSERT>
    3cc8:	9009883a 	mov	r4,r18
    3ccc:	800b883a 	mov	r5,r16
    3cd0:	880d883a 	mov	r6,r17
    3cd4:	980f883a 	mov	r7,r19
    3cd8:	0008b9c0 	call	8b9c <NS_getRemoteEndpoint_request>
    3cdc:	d122df17 	ldw	r4,-29828(gp)
    3ce0:	10803fcc 	andi	r2,r2,255
    3ce4:	01400044 	movi	r5,1
    3ce8:	1029003a 	cmpeq	r20,r2,zero
    3cec:	00025580 	call	2558 <mcapi_trans_access_database_pre>
    3cf0:	11003fcc 	andi	r4,r2,255
    3cf4:	01418c84 	movi	r5,1586
    3cf8:	0001fc00 	call	1fc0 <MCAPI_ASSERT>
    3cfc:	00000106 	br	3d04 <mcapi_trans_endpoint_get_i+0xf0>
    3d00:	0029883a 	mov	r20,zero
    3d04:	00800144 	movi	r2,5
    3d08:	d8800215 	stw	r2,8(sp)
    3d0c:	d8800717 	ldw	r2,28(sp)
    3d10:	d9401017 	ldw	r5,64(sp)
    3d14:	9009883a 	mov	r4,r18
    3d18:	a1c03fcc 	andi	r7,r20,255
    3d1c:	d8000015 	stw	zero,0(sp)
    3d20:	d8000115 	stw	zero,4(sp)
    3d24:	dc400315 	stw	r17,12(sp)
    3d28:	dcc00415 	stw	r19,16(sp)
    3d2c:	dc000515 	stw	r16,20(sp)
    3d30:	d8800615 	stw	r2,24(sp)
    3d34:	a80d883a 	mov	r6,r21
    3d38:	000399c0 	call	399c <setup_request_have_lock>
    3d3c:	11003fcc 	andi	r4,r2,255
    3d40:	01418dc4 	movi	r5,1591
    3d44:	0001fc00 	call	1fc0 <MCAPI_ASSERT>
    3d48:	d122df17 	ldw	r4,-29828(gp)
    3d4c:	01400044 	movi	r5,1
    3d50:	00025b00 	call	25b0 <mcapi_trans_access_database_post>
    3d54:	11003fcc 	andi	r4,r2,255
    3d58:	01418ec4 	movi	r5,1595
    3d5c:	0001fc00 	call	1fc0 <MCAPI_ASSERT>
    3d60:	dfc00f17 	ldw	ra,60(sp)
    3d64:	dd800e17 	ldw	r22,56(sp)
    3d68:	dd400d17 	ldw	r21,52(sp)
    3d6c:	dd000c17 	ldw	r20,48(sp)
    3d70:	dcc00b17 	ldw	r19,44(sp)
    3d74:	dc800a17 	ldw	r18,40(sp)
    3d78:	dc400917 	ldw	r17,36(sp)
    3d7c:	dc000817 	ldw	r16,32(sp)
    3d80:	dec01004 	addi	sp,sp,64
    3d84:	f800283a 	ret

00003d88 <mcapi_trans_sclchan_available_i>:
    3d88:	defffb04 	addi	sp,sp,-20
    3d8c:	dc400315 	stw	r17,12(sp)
    3d90:	2023883a 	mov	r17,r4
    3d94:	d122df17 	ldw	r4,-29828(gp)
    3d98:	dc000215 	stw	r16,8(sp)
    3d9c:	04000044 	movi	r16,1
    3da0:	800b883a 	mov	r5,r16
    3da4:	dfc00415 	stw	ra,16(sp)
    3da8:	00025580 	call	2558 <mcapi_trans_access_database_pre>
    3dac:	11003fcc 	andi	r4,r2,255
    3db0:	0142c844 	movi	r5,2849
    3db4:	0001fc00 	call	1fc0 <MCAPI_ASSERT>
    3db8:	d9800084 	addi	r6,sp,2
    3dbc:	d80f883a 	mov	r7,sp
    3dc0:	8809883a 	mov	r4,r17
    3dc4:	d9400104 	addi	r5,sp,4
    3dc8:	0002e580 	call	2e58 <mcapi_trans_decode_handle>
    3dcc:	11003fcc 	andi	r4,r2,255
    3dd0:	0142c944 	movi	r5,2853
    3dd4:	0001fc00 	call	1fc0 <MCAPI_ASSERT>
    3dd8:	d900000b 	ldhu	r4,0(sp)
    3ddc:	d880008b 	ldhu	r2,2(sp)
    3de0:	d8c0010b 	ldhu	r3,4(sp)
    3de4:	21007a24 	muli	r4,r4,488
    3de8:	1083e024 	muli	r2,r2,3968
    3dec:	18df0324 	muli	r3,r3,31756
    3df0:	800b883a 	mov	r5,r16
    3df4:	2085883a 	add	r2,r4,r2
    3df8:	10c5883a 	add	r2,r2,r3
    3dfc:	d0e2e117 	ldw	r3,-29820(gp)
    3e00:	d122df17 	ldw	r4,-29828(gp)
    3e04:	1885883a 	add	r2,r3,r2
    3e08:	14402517 	ldw	r17,148(r2)
    3e0c:	00025b00 	call	25b0 <mcapi_trans_access_database_post>
    3e10:	11003fcc 	andi	r4,r2,255
    3e14:	0142ca44 	movi	r5,2857
    3e18:	0001fc00 	call	1fc0 <MCAPI_ASSERT>
    3e1c:	8805883a 	mov	r2,r17
    3e20:	dfc00417 	ldw	ra,16(sp)
    3e24:	dc400317 	ldw	r17,12(sp)
    3e28:	dc000217 	ldw	r16,8(sp)
    3e2c:	dec00504 	addi	sp,sp,20
    3e30:	f800283a 	ret

00003e34 <mcapi_trans_pktchan_available>:
    3e34:	defffb04 	addi	sp,sp,-20
    3e38:	dc400315 	stw	r17,12(sp)
    3e3c:	2023883a 	mov	r17,r4
    3e40:	d122df17 	ldw	r4,-29828(gp)
    3e44:	dc000215 	stw	r16,8(sp)
    3e48:	04000044 	movi	r16,1
    3e4c:	800b883a 	mov	r5,r16
    3e50:	dfc00415 	stw	ra,16(sp)
    3e54:	00025580 	call	2558 <mcapi_trans_access_database_pre>
    3e58:	11003fcc 	andi	r4,r2,255
    3e5c:	014257c4 	movi	r5,2399
    3e60:	0001fc00 	call	1fc0 <MCAPI_ASSERT>
    3e64:	d9800084 	addi	r6,sp,2
    3e68:	d80f883a 	mov	r7,sp
    3e6c:	8809883a 	mov	r4,r17
    3e70:	d9400104 	addi	r5,sp,4
    3e74:	0002e580 	call	2e58 <mcapi_trans_decode_handle>
    3e78:	11003fcc 	andi	r4,r2,255
    3e7c:	014258c4 	movi	r5,2403
    3e80:	0001fc00 	call	1fc0 <MCAPI_ASSERT>
    3e84:	d900000b 	ldhu	r4,0(sp)
    3e88:	d880008b 	ldhu	r2,2(sp)
    3e8c:	d8c0010b 	ldhu	r3,4(sp)
    3e90:	21007a24 	muli	r4,r4,488
    3e94:	1083e024 	muli	r2,r2,3968
    3e98:	18df0324 	muli	r3,r3,31756
    3e9c:	800b883a 	mov	r5,r16
    3ea0:	2085883a 	add	r2,r4,r2
    3ea4:	10c5883a 	add	r2,r2,r3
    3ea8:	d0e2e117 	ldw	r3,-29820(gp)
    3eac:	d122df17 	ldw	r4,-29828(gp)
    3eb0:	1885883a 	add	r2,r3,r2
    3eb4:	14402517 	ldw	r17,148(r2)
    3eb8:	00025b00 	call	25b0 <mcapi_trans_access_database_post>
    3ebc:	11003fcc 	andi	r4,r2,255
    3ec0:	014259c4 	movi	r5,2407
    3ec4:	0001fc00 	call	1fc0 <MCAPI_ASSERT>
    3ec8:	8805883a 	mov	r2,r17
    3ecc:	dfc00417 	ldw	ra,16(sp)
    3ed0:	dc400317 	ldw	r17,12(sp)
    3ed4:	dc000217 	ldw	r16,8(sp)
    3ed8:	dec00504 	addi	sp,sp,20
    3edc:	f800283a 	ret

00003ee0 <mcapi_trans_msg_available>:
    3ee0:	defffb04 	addi	sp,sp,-20
    3ee4:	dc400315 	stw	r17,12(sp)
    3ee8:	2023883a 	mov	r17,r4
    3eec:	d122df17 	ldw	r4,-29828(gp)
    3ef0:	dc000215 	stw	r16,8(sp)
    3ef4:	04000044 	movi	r16,1
    3ef8:	800b883a 	mov	r5,r16
    3efc:	dfc00415 	stw	ra,16(sp)
    3f00:	00025580 	call	2558 <mcapi_trans_access_database_pre>
    3f04:	11003fcc 	andi	r4,r2,255
    3f08:	0141f144 	movi	r5,1989
    3f0c:	0001fc00 	call	1fc0 <MCAPI_ASSERT>
    3f10:	d9800084 	addi	r6,sp,2
    3f14:	d80f883a 	mov	r7,sp
    3f18:	8809883a 	mov	r4,r17
    3f1c:	d9400104 	addi	r5,sp,4
    3f20:	0002e580 	call	2e58 <mcapi_trans_decode_handle>
    3f24:	11003fcc 	andi	r4,r2,255
    3f28:	0141f204 	movi	r5,1992
    3f2c:	0001fc00 	call	1fc0 <MCAPI_ASSERT>
    3f30:	d900000b 	ldhu	r4,0(sp)
    3f34:	d880008b 	ldhu	r2,2(sp)
    3f38:	d8c0010b 	ldhu	r3,4(sp)
    3f3c:	21007a24 	muli	r4,r4,488
    3f40:	1083e024 	muli	r2,r2,3968
    3f44:	18df0324 	muli	r3,r3,31756
    3f48:	800b883a 	mov	r5,r16
    3f4c:	2085883a 	add	r2,r4,r2
    3f50:	10c5883a 	add	r2,r2,r3
    3f54:	d0e2e117 	ldw	r3,-29820(gp)
    3f58:	d122df17 	ldw	r4,-29828(gp)
    3f5c:	1885883a 	add	r2,r3,r2
    3f60:	14402517 	ldw	r17,148(r2)
    3f64:	00025b00 	call	25b0 <mcapi_trans_access_database_post>
    3f68:	11003fcc 	andi	r4,r2,255
    3f6c:	0141f304 	movi	r5,1996
    3f70:	0001fc00 	call	1fc0 <MCAPI_ASSERT>
    3f74:	8805883a 	mov	r2,r17
    3f78:	dfc00417 	ldw	ra,16(sp)
    3f7c:	dc400317 	ldw	r17,12(sp)
    3f80:	dc000217 	ldw	r16,8(sp)
    3f84:	dec00504 	addi	sp,sp,20
    3f88:	f800283a 	ret

00003f8c <mcapi_trans_endpoint_delete>:
    3f8c:	defffb04 	addi	sp,sp,-20
    3f90:	dc400315 	stw	r17,12(sp)
    3f94:	2023883a 	mov	r17,r4
    3f98:	d122df17 	ldw	r4,-29828(gp)
    3f9c:	dc000215 	stw	r16,8(sp)
    3fa0:	04000044 	movi	r16,1
    3fa4:	800b883a 	mov	r5,r16
    3fa8:	dfc00415 	stw	ra,16(sp)
    3fac:	00025580 	call	2558 <mcapi_trans_access_database_pre>
    3fb0:	11003fcc 	andi	r4,r2,255
    3fb4:	0141b144 	movi	r5,1733
    3fb8:	0001fc00 	call	1fc0 <MCAPI_ASSERT>
    3fbc:	d80f883a 	mov	r7,sp
    3fc0:	d9800084 	addi	r6,sp,2
    3fc4:	8809883a 	mov	r4,r17
    3fc8:	d9400104 	addi	r5,sp,4
    3fcc:	0002e580 	call	2e58 <mcapi_trans_decode_handle>
    3fd0:	11003fcc 	andi	r4,r2,255
    3fd4:	0141b1c4 	movi	r5,1735
    3fd8:	0001fc00 	call	1fc0 <MCAPI_ASSERT>
    3fdc:	d8c0010b 	ldhu	r3,4(sp)
    3fe0:	d900008b 	ldhu	r4,2(sp)
    3fe4:	d0a2e117 	ldw	r2,-29820(gp)
    3fe8:	18df0324 	muli	r3,r3,31756
    3fec:	2103e024 	muli	r4,r4,3968
    3ff0:	20cb883a 	add	r5,r4,r3
    3ff4:	114b883a 	add	r5,r2,r5
    3ff8:	29401204 	addi	r5,r5,72
    3ffc:	2980000b 	ldhu	r6,0(r5)
    4000:	31bfffc4 	addi	r6,r6,-1
    4004:	2980000d 	sth	r6,0(r5)
    4008:	d940000b 	ldhu	r5,0(sp)
    400c:	01807a04 	movi	r6,488
    4010:	29407a24 	muli	r5,r5,488
    4014:	2909883a 	add	r4,r5,r4
    4018:	20c9883a 	add	r4,r4,r3
    401c:	21001304 	addi	r4,r4,76
    4020:	1109883a 	add	r4,r2,r4
    4024:	000b883a 	mov	r5,zero
    4028:	000c09c0 	call	c09c <memset>
    402c:	d122df17 	ldw	r4,-29828(gp)
    4030:	800b883a 	mov	r5,r16
    4034:	00025b00 	call	25b0 <mcapi_trans_access_database_post>
    4038:	11003fcc 	andi	r4,r2,255
    403c:	0141b484 	movi	r5,1746
    4040:	0001fc00 	call	1fc0 <MCAPI_ASSERT>
    4044:	dfc00417 	ldw	ra,16(sp)
    4048:	dc400317 	ldw	r17,12(sp)
    404c:	dc000217 	ldw	r16,8(sp)
    4050:	dec00504 	addi	sp,sp,20
    4054:	f800283a 	ret

00004058 <mcapi_trans_endpoint_get_attribute>:
    4058:	defff904 	addi	sp,sp,-28
    405c:	dc000215 	stw	r16,8(sp)
    4060:	dc000717 	ldw	r16,28(sp)
    4064:	dfc00615 	stw	ra,24(sp)
    4068:	dcc00515 	stw	r19,20(sp)
    406c:	dc800415 	stw	r18,16(sp)
    4070:	dc400315 	stw	r17,12(sp)
    4074:	00800584 	movi	r2,22
    4078:	d80f883a 	mov	r7,sp
    407c:	2827883a 	mov	r19,r5
    4080:	3025883a 	mov	r18,r6
    4084:	d9400104 	addi	r5,sp,4
    4088:	d9800084 	addi	r6,sp,2
    408c:	80800015 	stw	r2,0(r16)
    4090:	0002e580 	call	2e58 <mcapi_trans_decode_handle>
    4094:	11003fcc 	andi	r4,r2,255
    4098:	014176c4 	movi	r5,1499
    409c:	0001fc00 	call	1fc0 <MCAPI_ASSERT>
    40a0:	d8c0010b 	ldhu	r3,4(sp)
    40a4:	d0a00017 	ldw	r2,-32768(gp)
    40a8:	1880221e 	bne	r3,r2,4134 <mcapi_trans_endpoint_get_attribute+0xdc>
    40ac:	d8c0008b 	ldhu	r3,2(sp)
    40b0:	d0a00117 	ldw	r2,-32764(gp)
    40b4:	18801f1e 	bne	r3,r2,4134 <mcapi_trans_endpoint_get_attribute+0xdc>
    40b8:	d122df17 	ldw	r4,-29828(gp)
    40bc:	04400044 	movi	r17,1
    40c0:	880b883a 	mov	r5,r17
    40c4:	00025580 	call	2558 <mcapi_trans_access_database_pre>
    40c8:	11003fcc 	andi	r4,r2,255
    40cc:	01417804 	movi	r5,1504
    40d0:	0001fc00 	call	1fc0 <MCAPI_ASSERT>
    40d4:	00800244 	movi	r2,9
    40d8:	98800f1e 	bne	r19,r2,4118 <mcapi_trans_endpoint_get_attribute+0xc0>
    40dc:	d900000b 	ldhu	r4,0(sp)
    40e0:	d880008b 	ldhu	r2,2(sp)
    40e4:	d8c0010b 	ldhu	r3,4(sp)
    40e8:	21007a24 	muli	r4,r4,488
    40ec:	1083e024 	muli	r2,r2,3968
    40f0:	18df0324 	muli	r3,r3,31756
    40f4:	2085883a 	add	r2,r4,r2
    40f8:	10c5883a 	add	r2,r2,r3
    40fc:	d0e2e117 	ldw	r3,-29820(gp)
    4100:	1885883a 	add	r2,r3,r2
    4104:	10802517 	ldw	r2,148(r2)
    4108:	00c00844 	movi	r3,33
    410c:	1885c83a 	sub	r2,r3,r2
    4110:	90800015 	stw	r2,0(r18)
    4114:	84400015 	stw	r17,0(r16)
    4118:	d122df17 	ldw	r4,-29828(gp)
    411c:	01400044 	movi	r5,1
    4120:	00025b00 	call	25b0 <mcapi_trans_access_database_post>
    4124:	11003fcc 	andi	r4,r2,255
    4128:	01417a44 	movi	r5,1513
    412c:	0001fc00 	call	1fc0 <MCAPI_ASSERT>
    4130:	00000206 	br	413c <mcapi_trans_endpoint_get_attribute+0xe4>
    4134:	00800b44 	movi	r2,45
    4138:	80800015 	stw	r2,0(r16)
    413c:	dfc00617 	ldw	ra,24(sp)
    4140:	dcc00517 	ldw	r19,20(sp)
    4144:	dc800417 	ldw	r18,16(sp)
    4148:	dc400317 	ldw	r17,12(sp)
    414c:	dc000217 	ldw	r16,8(sp)
    4150:	dec00704 	addi	sp,sp,28
    4154:	f800283a 	ret

00004158 <mcapi_trans_connected>:
    4158:	defffc04 	addi	sp,sp,-16
    415c:	dc000215 	stw	r16,8(sp)
    4160:	2021883a 	mov	r16,r4
    4164:	d122df17 	ldw	r4,-29828(gp)
    4168:	01400044 	movi	r5,1
    416c:	dfc00315 	stw	ra,12(sp)
    4170:	00025580 	call	2558 <mcapi_trans_access_database_pre>
    4174:	11003fcc 	andi	r4,r2,255
    4178:	01414104 	movi	r5,1284
    417c:	0001fc00 	call	1fc0 <MCAPI_ASSERT>
    4180:	8009883a 	mov	r4,r16
    4184:	d9400104 	addi	r5,sp,4
    4188:	d9800084 	addi	r6,sp,2
    418c:	d80f883a 	mov	r7,sp
    4190:	0002e580 	call	2e58 <mcapi_trans_decode_handle>
    4194:	10803fcc 	andi	r2,r2,255
    4198:	10000d26 	beq	r2,zero,41d0 <mcapi_trans_connected+0x78>
    419c:	d900000b 	ldhu	r4,0(sp)
    41a0:	d880008b 	ldhu	r2,2(sp)
    41a4:	d8c0010b 	ldhu	r3,4(sp)
    41a8:	21007a24 	muli	r4,r4,488
    41ac:	1083e024 	muli	r2,r2,3968
    41b0:	18df0324 	muli	r3,r3,31756
    41b4:	2085883a 	add	r2,r4,r2
    41b8:	10c5883a 	add	r2,r2,r3
    41bc:	d0e2e117 	ldw	r3,-29820(gp)
    41c0:	1885883a 	add	r2,r3,r2
    41c4:	14002403 	ldbu	r16,144(r2)
    41c8:	8020c03a 	cmpne	r16,r16,zero
    41cc:	00000106 	br	41d4 <mcapi_trans_connected+0x7c>
    41d0:	0021883a 	mov	r16,zero
    41d4:	d122df17 	ldw	r4,-29828(gp)
    41d8:	01400044 	movi	r5,1
    41dc:	00025b00 	call	25b0 <mcapi_trans_access_database_post>
    41e0:	11003fcc 	andi	r4,r2,255
    41e4:	014142c4 	movi	r5,1291
    41e8:	0001fc00 	call	1fc0 <MCAPI_ASSERT>
    41ec:	8005883a 	mov	r2,r16
    41f0:	dfc00317 	ldw	ra,12(sp)
    41f4:	dc000217 	ldw	r16,8(sp)
    41f8:	dec00404 	addi	sp,sp,16
    41fc:	f800283a 	ret

00004200 <mcapi_trans_valid_sclchan_recv_handle>:
    4200:	defffc04 	addi	sp,sp,-16
    4204:	dc000215 	stw	r16,8(sp)
    4208:	2021883a 	mov	r16,r4
    420c:	d122df17 	ldw	r4,-29828(gp)
    4210:	01400044 	movi	r5,1
    4214:	dfc00315 	stw	ra,12(sp)
    4218:	00025580 	call	2558 <mcapi_trans_access_database_pre>
    421c:	11003fcc 	andi	r4,r2,255
    4220:	01412884 	movi	r5,1186
    4224:	0001fc00 	call	1fc0 <MCAPI_ASSERT>
    4228:	8009883a 	mov	r4,r16
    422c:	d9400104 	addi	r5,sp,4
    4230:	d9800084 	addi	r6,sp,2
    4234:	d80f883a 	mov	r7,sp
    4238:	0002e580 	call	2e58 <mcapi_trans_decode_handle>
    423c:	10803fcc 	andi	r2,r2,255
    4240:	10000d26 	beq	r2,zero,4278 <mcapi_trans_valid_sclchan_recv_handle+0x78>
    4244:	d900000b 	ldhu	r4,0(sp)
    4248:	d880008b 	ldhu	r2,2(sp)
    424c:	d8c0010b 	ldhu	r3,4(sp)
    4250:	21007a24 	muli	r4,r4,488
    4254:	1083e024 	muli	r2,r2,3968
    4258:	18df0324 	muli	r3,r3,31756
    425c:	2085883a 	add	r2,r4,r2
    4260:	10c5883a 	add	r2,r2,r3
    4264:	d0e2e117 	ldw	r3,-29820(gp)
    4268:	1885883a 	add	r2,r3,r2
    426c:	14002403 	ldbu	r16,144(r2)
    4270:	840000a0 	cmpeqi	r16,r16,2
    4274:	00000106 	br	427c <mcapi_trans_valid_sclchan_recv_handle+0x7c>
    4278:	0021883a 	mov	r16,zero
    427c:	d122df17 	ldw	r4,-29828(gp)
    4280:	01400044 	movi	r5,1
    4284:	00025b00 	call	25b0 <mcapi_trans_access_database_post>
    4288:	11003fcc 	andi	r4,r2,255
    428c:	01412c84 	movi	r5,1202
    4290:	0001fc00 	call	1fc0 <MCAPI_ASSERT>
    4294:	8005883a 	mov	r2,r16
    4298:	dfc00317 	ldw	ra,12(sp)
    429c:	dc000217 	ldw	r16,8(sp)
    42a0:	dec00404 	addi	sp,sp,16
    42a4:	f800283a 	ret

000042a8 <mcapi_trans_valid_sclchan_send_handle>:
    42a8:	defffc04 	addi	sp,sp,-16
    42ac:	dc000215 	stw	r16,8(sp)
    42b0:	2021883a 	mov	r16,r4
    42b4:	d122df17 	ldw	r4,-29828(gp)
    42b8:	01400044 	movi	r5,1
    42bc:	dfc00315 	stw	ra,12(sp)
    42c0:	00025580 	call	2558 <mcapi_trans_access_database_pre>
    42c4:	11003fcc 	andi	r4,r2,255
    42c8:	01411fc4 	movi	r5,1151
    42cc:	0001fc00 	call	1fc0 <MCAPI_ASSERT>
    42d0:	8009883a 	mov	r4,r16
    42d4:	d9400104 	addi	r5,sp,4
    42d8:	d9800084 	addi	r6,sp,2
    42dc:	d80f883a 	mov	r7,sp
    42e0:	0002e580 	call	2e58 <mcapi_trans_decode_handle>
    42e4:	10803fcc 	andi	r2,r2,255
    42e8:	10000d26 	beq	r2,zero,4320 <mcapi_trans_valid_sclchan_send_handle+0x78>
    42ec:	d900000b 	ldhu	r4,0(sp)
    42f0:	d880008b 	ldhu	r2,2(sp)
    42f4:	d8c0010b 	ldhu	r3,4(sp)
    42f8:	21007a24 	muli	r4,r4,488
    42fc:	1083e024 	muli	r2,r2,3968
    4300:	18df0324 	muli	r3,r3,31756
    4304:	2085883a 	add	r2,r4,r2
    4308:	10c5883a 	add	r2,r2,r3
    430c:	d0e2e117 	ldw	r3,-29820(gp)
    4310:	1885883a 	add	r2,r3,r2
    4314:	14002403 	ldbu	r16,144(r2)
    4318:	840000a0 	cmpeqi	r16,r16,2
    431c:	00000106 	br	4324 <mcapi_trans_valid_sclchan_send_handle+0x7c>
    4320:	0021883a 	mov	r16,zero
    4324:	d122df17 	ldw	r4,-29828(gp)
    4328:	01400044 	movi	r5,1
    432c:	00025b00 	call	25b0 <mcapi_trans_access_database_post>
    4330:	11003fcc 	andi	r4,r2,255
    4334:	014123c4 	movi	r5,1167
    4338:	0001fc00 	call	1fc0 <MCAPI_ASSERT>
    433c:	8005883a 	mov	r2,r16
    4340:	dfc00317 	ldw	ra,12(sp)
    4344:	dc000217 	ldw	r16,8(sp)
    4348:	dec00404 	addi	sp,sp,16
    434c:	f800283a 	ret

00004350 <mcapi_trans_valid_pktchan_recv_handle>:
    4350:	defffc04 	addi	sp,sp,-16
    4354:	dc000215 	stw	r16,8(sp)
    4358:	2021883a 	mov	r16,r4
    435c:	d122df17 	ldw	r4,-29828(gp)
    4360:	01400044 	movi	r5,1
    4364:	dfc00315 	stw	ra,12(sp)
    4368:	00025580 	call	2558 <mcapi_trans_access_database_pre>
    436c:	11003fcc 	andi	r4,r2,255
    4370:	01411784 	movi	r5,1118
    4374:	0001fc00 	call	1fc0 <MCAPI_ASSERT>
    4378:	8009883a 	mov	r4,r16
    437c:	d9400104 	addi	r5,sp,4
    4380:	d9800084 	addi	r6,sp,2
    4384:	d80f883a 	mov	r7,sp
    4388:	0002e580 	call	2e58 <mcapi_trans_decode_handle>
    438c:	10803fcc 	andi	r2,r2,255
    4390:	10000d26 	beq	r2,zero,43c8 <mcapi_trans_valid_pktchan_recv_handle+0x78>
    4394:	d900000b 	ldhu	r4,0(sp)
    4398:	d880008b 	ldhu	r2,2(sp)
    439c:	d8c0010b 	ldhu	r3,4(sp)
    43a0:	21007a24 	muli	r4,r4,488
    43a4:	1083e024 	muli	r2,r2,3968
    43a8:	18df0324 	muli	r3,r3,31756
    43ac:	2085883a 	add	r2,r4,r2
    43b0:	10c5883a 	add	r2,r2,r3
    43b4:	d0e2e117 	ldw	r3,-29820(gp)
    43b8:	1885883a 	add	r2,r3,r2
    43bc:	14002403 	ldbu	r16,144(r2)
    43c0:	84000060 	cmpeqi	r16,r16,1
    43c4:	00000106 	br	43cc <mcapi_trans_valid_pktchan_recv_handle+0x7c>
    43c8:	0021883a 	mov	r16,zero
    43cc:	d122df17 	ldw	r4,-29828(gp)
    43d0:	01400044 	movi	r5,1
    43d4:	00025b00 	call	25b0 <mcapi_trans_access_database_post>
    43d8:	11003fcc 	andi	r4,r2,255
    43dc:	01411b84 	movi	r5,1134
    43e0:	0001fc00 	call	1fc0 <MCAPI_ASSERT>
    43e4:	8005883a 	mov	r2,r16
    43e8:	dfc00317 	ldw	ra,12(sp)
    43ec:	dc000217 	ldw	r16,8(sp)
    43f0:	dec00404 	addi	sp,sp,16
    43f4:	f800283a 	ret

000043f8 <mcapi_trans_valid_pktchan_send_handle>:
    43f8:	defffc04 	addi	sp,sp,-16
    43fc:	dc000215 	stw	r16,8(sp)
    4400:	2021883a 	mov	r16,r4
    4404:	d122df17 	ldw	r4,-29828(gp)
    4408:	01400044 	movi	r5,1
    440c:	dfc00315 	stw	ra,12(sp)
    4410:	00025580 	call	2558 <mcapi_trans_access_database_pre>
    4414:	11003fcc 	andi	r4,r2,255
    4418:	01410f44 	movi	r5,1085
    441c:	0001fc00 	call	1fc0 <MCAPI_ASSERT>
    4420:	8009883a 	mov	r4,r16
    4424:	d9400104 	addi	r5,sp,4
    4428:	d9800084 	addi	r6,sp,2
    442c:	d80f883a 	mov	r7,sp
    4430:	0002e580 	call	2e58 <mcapi_trans_decode_handle>
    4434:	10803fcc 	andi	r2,r2,255
    4438:	10000d26 	beq	r2,zero,4470 <mcapi_trans_valid_pktchan_send_handle+0x78>
    443c:	d900000b 	ldhu	r4,0(sp)
    4440:	d880008b 	ldhu	r2,2(sp)
    4444:	d8c0010b 	ldhu	r3,4(sp)
    4448:	21007a24 	muli	r4,r4,488
    444c:	1083e024 	muli	r2,r2,3968
    4450:	18df0324 	muli	r3,r3,31756
    4454:	2085883a 	add	r2,r4,r2
    4458:	10c5883a 	add	r2,r2,r3
    445c:	d0e2e117 	ldw	r3,-29820(gp)
    4460:	1885883a 	add	r2,r3,r2
    4464:	14002403 	ldbu	r16,144(r2)
    4468:	84000060 	cmpeqi	r16,r16,1
    446c:	00000106 	br	4474 <mcapi_trans_valid_pktchan_send_handle+0x7c>
    4470:	0021883a 	mov	r16,zero
    4474:	d122df17 	ldw	r4,-29828(gp)
    4478:	01400044 	movi	r5,1
    447c:	00025b00 	call	25b0 <mcapi_trans_access_database_post>
    4480:	11003fcc 	andi	r4,r2,255
    4484:	01411344 	movi	r5,1101
    4488:	0001fc00 	call	1fc0 <MCAPI_ASSERT>
    448c:	8005883a 	mov	r2,r16
    4490:	dfc00317 	ldw	ra,12(sp)
    4494:	dc000217 	ldw	r16,8(sp)
    4498:	dec00404 	addi	sp,sp,16
    449c:	f800283a 	ret

000044a0 <mcapi_trans_channel_connected>:
    44a0:	defffc04 	addi	sp,sp,-16
    44a4:	d9400104 	addi	r5,sp,4
    44a8:	d9800084 	addi	r6,sp,2
    44ac:	d80f883a 	mov	r7,sp
    44b0:	dfc00315 	stw	ra,12(sp)
    44b4:	dc000215 	stw	r16,8(sp)
    44b8:	0002e580 	call	2e58 <mcapi_trans_decode_handle>
    44bc:	11003fcc 	andi	r4,r2,255
    44c0:	01410304 	movi	r5,1036
    44c4:	0001fc00 	call	1fc0 <MCAPI_ASSERT>
    44c8:	d8c0010b 	ldhu	r3,4(sp)
    44cc:	d0a00017 	ldw	r2,-32768(gp)
    44d0:	1880211e 	bne	r3,r2,4558 <mcapi_trans_channel_connected+0xb8>
    44d4:	d8c0008b 	ldhu	r3,2(sp)
    44d8:	d0a00117 	ldw	r2,-32764(gp)
    44dc:	18801e1e 	bne	r3,r2,4558 <mcapi_trans_channel_connected+0xb8>
    44e0:	d122df17 	ldw	r4,-29828(gp)
    44e4:	01400044 	movi	r5,1
    44e8:	00025580 	call	2558 <mcapi_trans_access_database_pre>
    44ec:	11003fcc 	andi	r4,r2,255
    44f0:	01410584 	movi	r5,1046
    44f4:	0001fc00 	call	1fc0 <MCAPI_ASSERT>
    44f8:	d880008b 	ldhu	r2,2(sp)
    44fc:	d900000b 	ldhu	r4,0(sp)
    4500:	d8c0010b 	ldhu	r3,4(sp)
    4504:	1083e024 	muli	r2,r2,3968
    4508:	21007a24 	muli	r4,r4,488
    450c:	18df0324 	muli	r3,r3,31756
    4510:	2085883a 	add	r2,r4,r2
    4514:	10c5883a 	add	r2,r2,r3
    4518:	d0e2e117 	ldw	r3,-29820(gp)
    451c:	1885883a 	add	r2,r3,r2
    4520:	10801404 	addi	r2,r2,80
    4524:	10c00003 	ldbu	r3,0(r2)
    4528:	18000326 	beq	r3,zero,4538 <mcapi_trans_channel_connected+0x98>
    452c:	140000c3 	ldbu	r16,3(r2)
    4530:	8020c03a 	cmpne	r16,r16,zero
    4534:	00000106 	br	453c <mcapi_trans_channel_connected+0x9c>
    4538:	0021883a 	mov	r16,zero
    453c:	d122df17 	ldw	r4,-29828(gp)
    4540:	01400044 	movi	r5,1
    4544:	00025b00 	call	25b0 <mcapi_trans_access_database_post>
    4548:	11003fcc 	andi	r4,r2,255
    454c:	01410704 	movi	r5,1052
    4550:	0001fc00 	call	1fc0 <MCAPI_ASSERT>
    4554:	00000106 	br	455c <mcapi_trans_channel_connected+0xbc>
    4558:	0021883a 	mov	r16,zero
    455c:	8005883a 	mov	r2,r16
    4560:	dfc00317 	ldw	ra,12(sp)
    4564:	dc000217 	ldw	r16,8(sp)
    4568:	dec00404 	addi	sp,sp,16
    456c:	f800283a 	ret

00004570 <mcapi_trans_endpoint_channel_isopen>:
    4570:	defffc04 	addi	sp,sp,-16
    4574:	d9400104 	addi	r5,sp,4
    4578:	d9800084 	addi	r6,sp,2
    457c:	d80f883a 	mov	r7,sp
    4580:	dfc00315 	stw	ra,12(sp)
    4584:	dc000215 	stw	r16,8(sp)
    4588:	2021883a 	mov	r16,r4
    458c:	0002e580 	call	2e58 <mcapi_trans_decode_handle>
    4590:	11003fcc 	andi	r4,r2,255
    4594:	0140f344 	movi	r5,973
    4598:	0001fc00 	call	1fc0 <MCAPI_ASSERT>
    459c:	d8c0010b 	ldhu	r3,4(sp)
    45a0:	d0a00017 	ldw	r2,-32768(gp)
    45a4:	18801b1e 	bne	r3,r2,4614 <mcapi_trans_endpoint_channel_isopen+0xa4>
    45a8:	d8c0008b 	ldhu	r3,2(sp)
    45ac:	d0a00117 	ldw	r2,-32764(gp)
    45b0:	1880181e 	bne	r3,r2,4614 <mcapi_trans_endpoint_channel_isopen+0xa4>
    45b4:	d122df17 	ldw	r4,-29828(gp)
    45b8:	01400044 	movi	r5,1
    45bc:	00025580 	call	2558 <mcapi_trans_access_database_pre>
    45c0:	11003fcc 	andi	r4,r2,255
    45c4:	0140f4c4 	movi	r5,979
    45c8:	0001fc00 	call	1fc0 <MCAPI_ASSERT>
    45cc:	d900000b 	ldhu	r4,0(sp)
    45d0:	d880008b 	ldhu	r2,2(sp)
    45d4:	d8c0010b 	ldhu	r3,4(sp)
    45d8:	21007a24 	muli	r4,r4,488
    45dc:	1083e024 	muli	r2,r2,3968
    45e0:	18df0324 	muli	r3,r3,31756
    45e4:	01400044 	movi	r5,1
    45e8:	2085883a 	add	r2,r4,r2
    45ec:	10c5883a 	add	r2,r2,r3
    45f0:	d0e2e117 	ldw	r3,-29820(gp)
    45f4:	d122df17 	ldw	r4,-29828(gp)
    45f8:	1885883a 	add	r2,r3,r2
    45fc:	14001483 	ldbu	r16,82(r2)
    4600:	00025b00 	call	25b0 <mcapi_trans_access_database_post>
    4604:	11003fcc 	andi	r4,r2,255
    4608:	0140f604 	movi	r5,984
    460c:	0001fc00 	call	1fc0 <MCAPI_ASSERT>
    4610:	00000406 	br	4624 <mcapi_trans_endpoint_channel_isopen+0xb4>
    4614:	8009883a 	mov	r4,r16
    4618:	0008f080 	call	8f08 <NS_endpointChannelIsopen_request>
    461c:	10803fcc 	andi	r2,r2,255
    4620:	1021003a 	cmpeq	r16,r2,zero
    4624:	8005883a 	mov	r2,r16
    4628:	dfc00317 	ldw	ra,12(sp)
    462c:	dc000217 	ldw	r16,8(sp)
    4630:	dec00404 	addi	sp,sp,16
    4634:	f800283a 	ret

00004638 <mcapi_trans_sclchan_send_isopen>:
    4638:	00045701 	jmpi	4570 <mcapi_trans_endpoint_channel_isopen>

0000463c <mcapi_trans_sclchan_recv_isopen>:
    463c:	00045701 	jmpi	4570 <mcapi_trans_endpoint_channel_isopen>

00004640 <mcapi_trans_pktchan_send_isopen>:
    4640:	00045701 	jmpi	4570 <mcapi_trans_endpoint_channel_isopen>

00004644 <mcapi_trans_pktchan_recv_isopen>:
    4644:	00045701 	jmpi	4570 <mcapi_trans_endpoint_channel_isopen>

00004648 <check_close_channel_request_have_lock>:
    4648:	defffb04 	addi	sp,sp,-20
    464c:	d80b883a 	mov	r5,sp
    4650:	dfc00415 	stw	ra,16(sp)
    4654:	dc400315 	stw	r17,12(sp)
    4658:	dc000215 	stw	r16,8(sp)
    465c:	00023240 	call	2324 <mcapi_trans_decode_request_handle>
    4660:	10803fcc 	andi	r2,r2,255
    4664:	10004526 	beq	r2,zero,477c <check_close_channel_request_have_lock+0x134>
    4668:	d880000b 	ldhu	r2,0(sp)
    466c:	d0e2e117 	ldw	r3,-29820(gp)
    4670:	d9800104 	addi	r6,sp,4
    4674:	10800c24 	muli	r2,r2,48
    4678:	d9c00084 	addi	r7,sp,2
    467c:	d9400184 	addi	r5,sp,6
    4680:	1885883a 	add	r2,r3,r2
    4684:	00ffac14 	movui	r3,65200
    4688:	10c5883a 	add	r2,r2,r3
    468c:	11000017 	ldw	r4,0(r2)
    4690:	0002e580 	call	2e58 <mcapi_trans_decode_handle>
    4694:	11003fcc 	andi	r4,r2,255
    4698:	014367c4 	movi	r5,3487
    469c:	0001fc00 	call	1fc0 <MCAPI_ASSERT>
    46a0:	d880010b 	ldhu	r2,4(sp)
    46a4:	d900008b 	ldhu	r4,2(sp)
    46a8:	d8c0018b 	ldhu	r3,6(sp)
    46ac:	1083e024 	muli	r2,r2,3968
    46b0:	21007a24 	muli	r4,r4,488
    46b4:	18df0324 	muli	r3,r3,31756
    46b8:	01400044 	movi	r5,1
    46bc:	2085883a 	add	r2,r4,r2
    46c0:	10c5883a 	add	r2,r2,r3
    46c4:	d0e2e117 	ldw	r3,-29820(gp)
    46c8:	d122df17 	ldw	r4,-29828(gp)
    46cc:	1885883a 	add	r2,r3,r2
    46d0:	14402217 	ldw	r17,136(r2)
    46d4:	14002317 	ldw	r16,140(r2)
    46d8:	00025b00 	call	25b0 <mcapi_trans_access_database_post>
    46dc:	11003fcc 	andi	r4,r2,255
    46e0:	01436984 	movi	r5,3494
    46e4:	0001fc00 	call	1fc0 <MCAPI_ASSERT>
    46e8:	8809883a 	mov	r4,r17
    46ec:	00045700 	call	4570 <mcapi_trans_endpoint_channel_isopen>
    46f0:	10803fcc 	andi	r2,r2,255
    46f4:	1000051e 	bne	r2,zero,470c <check_close_channel_request_have_lock+0xc4>
    46f8:	8009883a 	mov	r4,r16
    46fc:	00045700 	call	4570 <mcapi_trans_endpoint_channel_isopen>
    4700:	10803fcc 	andi	r2,r2,255
    4704:	1023003a 	cmpeq	r17,r2,zero
    4708:	00000106 	br	4710 <check_close_channel_request_have_lock+0xc8>
    470c:	0023883a 	mov	r17,zero
    4710:	d122df17 	ldw	r4,-29828(gp)
    4714:	04000044 	movi	r16,1
    4718:	800b883a 	mov	r5,r16
    471c:	00025580 	call	2558 <mcapi_trans_access_database_pre>
    4720:	11003fcc 	andi	r4,r2,255
    4724:	01436b44 	movi	r5,3501
    4728:	8c403fcc 	andi	r17,r17,255
    472c:	0001fc00 	call	1fc0 <MCAPI_ASSERT>
    4730:	8c00121e 	bne	r17,r16,477c <check_close_channel_request_have_lock+0x134>
    4734:	d8c0010b 	ldhu	r3,4(sp)
    4738:	d940008b 	ldhu	r5,2(sp)
    473c:	d900018b 	ldhu	r4,6(sp)
    4740:	18c3e024 	muli	r3,r3,3968
    4744:	29407a24 	muli	r5,r5,488
    4748:	211f0324 	muli	r4,r4,31756
    474c:	d0a2e117 	ldw	r2,-29820(gp)
    4750:	28c7883a 	add	r3,r5,r3
    4754:	1907883a 	add	r3,r3,r4
    4758:	10c7883a 	add	r3,r2,r3
    475c:	180014c5 	stb	zero,83(r3)
    4760:	18002405 	stb	zero,144(r3)
    4764:	d8c0000b 	ldhu	r3,0(sp)
    4768:	18c00c24 	muli	r3,r3,48
    476c:	10c5883a 	add	r2,r2,r3
    4770:	00ffab14 	movui	r3,65196
    4774:	10c5883a 	add	r2,r2,r3
    4778:	14400005 	stb	r17,0(r2)
    477c:	dfc00417 	ldw	ra,16(sp)
    4780:	dc400317 	ldw	r17,12(sp)
    4784:	dc000217 	ldw	r16,8(sp)
    4788:	dec00504 	addi	sp,sp,20
    478c:	f800283a 	ret

00004790 <check_open_channel_request_have_lock>:
    4790:	defffb04 	addi	sp,sp,-20
    4794:	d80b883a 	mov	r5,sp
    4798:	dfc00415 	stw	ra,16(sp)
    479c:	dc400315 	stw	r17,12(sp)
    47a0:	dc000215 	stw	r16,8(sp)
    47a4:	00023240 	call	2324 <mcapi_trans_decode_request_handle>
    47a8:	10803fcc 	andi	r2,r2,255
    47ac:	10003a26 	beq	r2,zero,4898 <check_open_channel_request_have_lock+0x108>
    47b0:	d880000b 	ldhu	r2,0(sp)
    47b4:	d0e2e117 	ldw	r3,-29820(gp)
    47b8:	d9800104 	addi	r6,sp,4
    47bc:	10800c24 	muli	r2,r2,48
    47c0:	d9c00084 	addi	r7,sp,2
    47c4:	d9400184 	addi	r5,sp,6
    47c8:	1885883a 	add	r2,r3,r2
    47cc:	00ffac14 	movui	r3,65200
    47d0:	10c5883a 	add	r2,r2,r3
    47d4:	11000017 	ldw	r4,0(r2)
    47d8:	0002e580 	call	2e58 <mcapi_trans_decode_handle>
    47dc:	11003fcc 	andi	r4,r2,255
    47e0:	01435d84 	movi	r5,3446
    47e4:	0001fc00 	call	1fc0 <MCAPI_ASSERT>
    47e8:	d880010b 	ldhu	r2,4(sp)
    47ec:	d900008b 	ldhu	r4,2(sp)
    47f0:	d8c0018b 	ldhu	r3,6(sp)
    47f4:	1083e024 	muli	r2,r2,3968
    47f8:	21007a24 	muli	r4,r4,488
    47fc:	18df0324 	muli	r3,r3,31756
    4800:	01400044 	movi	r5,1
    4804:	2085883a 	add	r2,r4,r2
    4808:	10c5883a 	add	r2,r2,r3
    480c:	d0e2e117 	ldw	r3,-29820(gp)
    4810:	d122df17 	ldw	r4,-29828(gp)
    4814:	1885883a 	add	r2,r3,r2
    4818:	14402217 	ldw	r17,136(r2)
    481c:	14002317 	ldw	r16,140(r2)
    4820:	00025b00 	call	25b0 <mcapi_trans_access_database_post>
    4824:	11003fcc 	andi	r4,r2,255
    4828:	01435f44 	movi	r5,3453
    482c:	0001fc00 	call	1fc0 <MCAPI_ASSERT>
    4830:	8809883a 	mov	r4,r17
    4834:	00045700 	call	4570 <mcapi_trans_endpoint_channel_isopen>
    4838:	10803fcc 	andi	r2,r2,255
    483c:	10000526 	beq	r2,zero,4854 <check_open_channel_request_have_lock+0xc4>
    4840:	8009883a 	mov	r4,r16
    4844:	00045700 	call	4570 <mcapi_trans_endpoint_channel_isopen>
    4848:	10803fcc 	andi	r2,r2,255
    484c:	1022c03a 	cmpne	r17,r2,zero
    4850:	00000106 	br	4858 <check_open_channel_request_have_lock+0xc8>
    4854:	0023883a 	mov	r17,zero
    4858:	d122df17 	ldw	r4,-29828(gp)
    485c:	04000044 	movi	r16,1
    4860:	800b883a 	mov	r5,r16
    4864:	00025580 	call	2558 <mcapi_trans_access_database_pre>
    4868:	11003fcc 	andi	r4,r2,255
    486c:	01436104 	movi	r5,3460
    4870:	8c403fcc 	andi	r17,r17,255
    4874:	0001fc00 	call	1fc0 <MCAPI_ASSERT>
    4878:	8c00071e 	bne	r17,r16,4898 <check_open_channel_request_have_lock+0x108>
    487c:	d880000b 	ldhu	r2,0(sp)
    4880:	d0e2e117 	ldw	r3,-29820(gp)
    4884:	10800c24 	muli	r2,r2,48
    4888:	1885883a 	add	r2,r3,r2
    488c:	00ffab14 	movui	r3,65196
    4890:	10c5883a 	add	r2,r2,r3
    4894:	14400005 	stb	r17,0(r2)
    4898:	dfc00417 	ldw	ra,16(sp)
    489c:	dc400317 	ldw	r17,12(sp)
    48a0:	dc000217 	ldw	r16,8(sp)
    48a4:	dec00504 	addi	sp,sp,20
    48a8:	f800283a 	ret

000048ac <mcapi_trans_valid_endpoints>:
    48ac:	defffa04 	addi	sp,sp,-24
    48b0:	dc400415 	stw	r17,16(sp)
    48b4:	2023883a 	mov	r17,r4
    48b8:	d122df17 	ldw	r4,-29828(gp)
    48bc:	dc000315 	stw	r16,12(sp)
    48c0:	2821883a 	mov	r16,r5
    48c4:	01400044 	movi	r5,1
    48c8:	dfc00515 	stw	ra,20(sp)
    48cc:	00025580 	call	2558 <mcapi_trans_access_database_pre>
    48d0:	11003fcc 	andi	r4,r2,255
    48d4:	0140e084 	movi	r5,898
    48d8:	0001fc00 	call	1fc0 <MCAPI_ASSERT>
    48dc:	8809883a 	mov	r4,r17
    48e0:	d9400284 	addi	r5,sp,10
    48e4:	d9800204 	addi	r6,sp,8
    48e8:	d9c00184 	addi	r7,sp,6
    48ec:	0002e580 	call	2e58 <mcapi_trans_decode_handle>
    48f0:	10803fcc 	andi	r2,r2,255
    48f4:	10000826 	beq	r2,zero,4918 <mcapi_trans_valid_endpoints+0x6c>
    48f8:	8009883a 	mov	r4,r16
    48fc:	d9400104 	addi	r5,sp,4
    4900:	d9800084 	addi	r6,sp,2
    4904:	d80f883a 	mov	r7,sp
    4908:	0002e580 	call	2e58 <mcapi_trans_decode_handle>
    490c:	10803fcc 	andi	r2,r2,255
    4910:	1020c03a 	cmpne	r16,r2,zero
    4914:	00000106 	br	491c <mcapi_trans_valid_endpoints+0x70>
    4918:	0021883a 	mov	r16,zero
    491c:	d122df17 	ldw	r4,-29828(gp)
    4920:	01400044 	movi	r5,1
    4924:	00025b00 	call	25b0 <mcapi_trans_access_database_post>
    4928:	11003fcc 	andi	r4,r2,255
    492c:	0140e404 	movi	r5,912
    4930:	0001fc00 	call	1fc0 <MCAPI_ASSERT>
    4934:	8005883a 	mov	r2,r16
    4938:	dfc00517 	ldw	ra,20(sp)
    493c:	dc400417 	ldw	r17,16(sp)
    4940:	dc000317 	ldw	r16,12(sp)
    4944:	dec00604 	addi	sp,sp,24
    4948:	f800283a 	ret

0000494c <mcapi_trans_valid_endpoint>:
    494c:	defffc04 	addi	sp,sp,-16
    4950:	dc000215 	stw	r16,8(sp)
    4954:	2021883a 	mov	r16,r4
    4958:	d122df17 	ldw	r4,-29828(gp)
    495c:	01400044 	movi	r5,1
    4960:	dfc00315 	stw	ra,12(sp)
    4964:	00025580 	call	2558 <mcapi_trans_access_database_pre>
    4968:	11003fcc 	andi	r4,r2,255
    496c:	0140c604 	movi	r5,792
    4970:	0001fc00 	call	1fc0 <MCAPI_ASSERT>
    4974:	8009883a 	mov	r4,r16
    4978:	d9400104 	addi	r5,sp,4
    497c:	d9800084 	addi	r6,sp,2
    4980:	d80f883a 	mov	r7,sp
    4984:	0002e580 	call	2e58 <mcapi_trans_decode_handle>
    4988:	10803fcc 	andi	r2,r2,255
    498c:	10000d26 	beq	r2,zero,49c4 <mcapi_trans_valid_endpoint+0x78>
    4990:	d900000b 	ldhu	r4,0(sp)
    4994:	d880008b 	ldhu	r2,2(sp)
    4998:	d8c0010b 	ldhu	r3,4(sp)
    499c:	21007a24 	muli	r4,r4,488
    49a0:	1083e024 	muli	r2,r2,3968
    49a4:	18df0324 	muli	r3,r3,31756
    49a8:	2085883a 	add	r2,r4,r2
    49ac:	10c5883a 	add	r2,r2,r3
    49b0:	d0e2e117 	ldw	r3,-29820(gp)
    49b4:	1885883a 	add	r2,r3,r2
    49b8:	14001403 	ldbu	r16,80(r2)
    49bc:	8020c03a 	cmpne	r16,r16,zero
    49c0:	00000106 	br	49c8 <mcapi_trans_valid_endpoint+0x7c>
    49c4:	0021883a 	mov	r16,zero
    49c8:	d122df17 	ldw	r4,-29828(gp)
    49cc:	01400044 	movi	r5,1
    49d0:	00025b00 	call	25b0 <mcapi_trans_access_database_post>
    49d4:	11003fcc 	andi	r4,r2,255
    49d8:	0140c844 	movi	r5,801
    49dc:	0001fc00 	call	1fc0 <MCAPI_ASSERT>
    49e0:	8005883a 	mov	r2,r16
    49e4:	dfc00317 	ldw	ra,12(sp)
    49e8:	dc000217 	ldw	r16,8(sp)
    49ec:	dec00404 	addi	sp,sp,16
    49f0:	f800283a 	ret

000049f4 <mcapi_trans_recv_endpoint>:
    49f4:	defffc04 	addi	sp,sp,-16
    49f8:	dc000215 	stw	r16,8(sp)
    49fc:	2021883a 	mov	r16,r4
    4a00:	d122df17 	ldw	r4,-29828(gp)
    4a04:	01400044 	movi	r5,1
    4a08:	dfc00315 	stw	ra,12(sp)
    4a0c:	00025580 	call	2558 <mcapi_trans_access_database_pre>
    4a10:	11003fcc 	andi	r4,r2,255
    4a14:	0140b5c4 	movi	r5,727
    4a18:	0001fc00 	call	1fc0 <MCAPI_ASSERT>
    4a1c:	8009883a 	mov	r4,r16
    4a20:	d9400104 	addi	r5,sp,4
    4a24:	d9800084 	addi	r6,sp,2
    4a28:	d80f883a 	mov	r7,sp
    4a2c:	0002e580 	call	2e58 <mcapi_trans_decode_handle>
    4a30:	11003fcc 	andi	r4,r2,255
    4a34:	0140b644 	movi	r5,729
    4a38:	0001fc00 	call	1fc0 <MCAPI_ASSERT>
    4a3c:	d880008b 	ldhu	r2,2(sp)
    4a40:	d900000b 	ldhu	r4,0(sp)
    4a44:	d8c0010b 	ldhu	r3,4(sp)
    4a48:	1083e024 	muli	r2,r2,3968
    4a4c:	21007a24 	muli	r4,r4,488
    4a50:	18df0324 	muli	r3,r3,31756
    4a54:	2085883a 	add	r2,r4,r2
    4a58:	10c5883a 	add	r2,r2,r3
    4a5c:	d0e2e117 	ldw	r3,-29820(gp)
    4a60:	1885883a 	add	r2,r3,r2
    4a64:	10c014c3 	ldbu	r3,83(r2)
    4a68:	18000326 	beq	r3,zero,4a78 <mcapi_trans_recv_endpoint+0x84>
    4a6c:	10802217 	ldw	r2,136(r2)
    4a70:	1420c03a 	cmpne	r16,r2,r16
    4a74:	00000106 	br	4a7c <mcapi_trans_recv_endpoint+0x88>
    4a78:	04000044 	movi	r16,1
    4a7c:	d122df17 	ldw	r4,-29828(gp)
    4a80:	01400044 	movi	r5,1
    4a84:	00025b00 	call	25b0 <mcapi_trans_access_database_post>
    4a88:	11003fcc 	andi	r4,r2,255
    4a8c:	0140b8c4 	movi	r5,739
    4a90:	0001fc00 	call	1fc0 <MCAPI_ASSERT>
    4a94:	8005883a 	mov	r2,r16
    4a98:	dfc00317 	ldw	ra,12(sp)
    4a9c:	dc000217 	ldw	r16,8(sp)
    4aa0:	dec00404 	addi	sp,sp,16
    4aa4:	f800283a 	ret

00004aa8 <mcapi_trans_send_endpoint>:
    4aa8:	defffc04 	addi	sp,sp,-16
    4aac:	dc000215 	stw	r16,8(sp)
    4ab0:	2021883a 	mov	r16,r4
    4ab4:	d122df17 	ldw	r4,-29828(gp)
    4ab8:	01400044 	movi	r5,1
    4abc:	dfc00315 	stw	ra,12(sp)
    4ac0:	00025580 	call	2558 <mcapi_trans_access_database_pre>
    4ac4:	11003fcc 	andi	r4,r2,255
    4ac8:	0140ae04 	movi	r5,696
    4acc:	0001fc00 	call	1fc0 <MCAPI_ASSERT>
    4ad0:	8009883a 	mov	r4,r16
    4ad4:	d9400104 	addi	r5,sp,4
    4ad8:	d9800084 	addi	r6,sp,2
    4adc:	d80f883a 	mov	r7,sp
    4ae0:	0002e580 	call	2e58 <mcapi_trans_decode_handle>
    4ae4:	11003fcc 	andi	r4,r2,255
    4ae8:	0140ae84 	movi	r5,698
    4aec:	0001fc00 	call	1fc0 <MCAPI_ASSERT>
    4af0:	d880008b 	ldhu	r2,2(sp)
    4af4:	d900000b 	ldhu	r4,0(sp)
    4af8:	d8c0010b 	ldhu	r3,4(sp)
    4afc:	1083e024 	muli	r2,r2,3968
    4b00:	21007a24 	muli	r4,r4,488
    4b04:	18df0324 	muli	r3,r3,31756
    4b08:	2085883a 	add	r2,r4,r2
    4b0c:	10c5883a 	add	r2,r2,r3
    4b10:	d0e2e117 	ldw	r3,-29820(gp)
    4b14:	1885883a 	add	r2,r3,r2
    4b18:	10c014c3 	ldbu	r3,83(r2)
    4b1c:	18000326 	beq	r3,zero,4b2c <mcapi_trans_send_endpoint+0x84>
    4b20:	10802317 	ldw	r2,140(r2)
    4b24:	1420c03a 	cmpne	r16,r2,r16
    4b28:	00000106 	br	4b30 <mcapi_trans_send_endpoint+0x88>
    4b2c:	04000044 	movi	r16,1
    4b30:	d122df17 	ldw	r4,-29828(gp)
    4b34:	01400044 	movi	r5,1
    4b38:	00025b00 	call	25b0 <mcapi_trans_access_database_post>
    4b3c:	11003fcc 	andi	r4,r2,255
    4b40:	0140b104 	movi	r5,708
    4b44:	0001fc00 	call	1fc0 <MCAPI_ASSERT>
    4b48:	8005883a 	mov	r2,r16
    4b4c:	dfc00317 	ldw	ra,12(sp)
    4b50:	dc000217 	ldw	r16,8(sp)
    4b54:	dec00404 	addi	sp,sp,16
    4b58:	f800283a 	ret

00004b5c <mcapi_trans_channel_type>:
    4b5c:	defffb04 	addi	sp,sp,-20
    4b60:	dc400315 	stw	r17,12(sp)
    4b64:	2023883a 	mov	r17,r4
    4b68:	d122df17 	ldw	r4,-29828(gp)
    4b6c:	dc000215 	stw	r16,8(sp)
    4b70:	04000044 	movi	r16,1
    4b74:	800b883a 	mov	r5,r16
    4b78:	dfc00415 	stw	ra,16(sp)
    4b7c:	00025580 	call	2558 <mcapi_trans_access_database_pre>
    4b80:	11003fcc 	andi	r4,r2,255
    4b84:	0140a804 	movi	r5,672
    4b88:	0001fc00 	call	1fc0 <MCAPI_ASSERT>
    4b8c:	d9800084 	addi	r6,sp,2
    4b90:	d80f883a 	mov	r7,sp
    4b94:	8809883a 	mov	r4,r17
    4b98:	d9400104 	addi	r5,sp,4
    4b9c:	0002e580 	call	2e58 <mcapi_trans_decode_handle>
    4ba0:	11003fcc 	andi	r4,r2,255
    4ba4:	0140a884 	movi	r5,674
    4ba8:	0001fc00 	call	1fc0 <MCAPI_ASSERT>
    4bac:	d900000b 	ldhu	r4,0(sp)
    4bb0:	d880008b 	ldhu	r2,2(sp)
    4bb4:	d8c0010b 	ldhu	r3,4(sp)
    4bb8:	21007a24 	muli	r4,r4,488
    4bbc:	1083e024 	muli	r2,r2,3968
    4bc0:	18df0324 	muli	r3,r3,31756
    4bc4:	800b883a 	mov	r5,r16
    4bc8:	2085883a 	add	r2,r4,r2
    4bcc:	10c5883a 	add	r2,r2,r3
    4bd0:	d0e2e117 	ldw	r3,-29820(gp)
    4bd4:	d122df17 	ldw	r4,-29828(gp)
    4bd8:	1885883a 	add	r2,r3,r2
    4bdc:	14402403 	ldbu	r17,144(r2)
    4be0:	00025b00 	call	25b0 <mcapi_trans_access_database_post>
    4be4:	11003fcc 	andi	r4,r2,255
    4be8:	0140a984 	movi	r5,678
    4bec:	0001fc00 	call	1fc0 <MCAPI_ASSERT>
    4bf0:	88803fcc 	andi	r2,r17,255
    4bf4:	dfc00417 	ldw	ra,16(sp)
    4bf8:	dc400317 	ldw	r17,12(sp)
    4bfc:	dc000217 	ldw	r16,8(sp)
    4c00:	dec00504 	addi	sp,sp,20
    4c04:	f800283a 	ret

00004c08 <mcapi_trans_sclchan_connect_i>:
    4c08:	defff804 	addi	sp,sp,-32
    4c0c:	dd000515 	stw	r20,20(sp)
    4c10:	2029883a 	mov	r20,r4
    4c14:	d122df17 	ldw	r4,-29828(gp)
    4c18:	dc800315 	stw	r18,12(sp)
    4c1c:	04800044 	movi	r18,1
    4c20:	dc400215 	stw	r17,8(sp)
    4c24:	2823883a 	mov	r17,r5
    4c28:	900b883a 	mov	r5,r18
    4c2c:	dfc00715 	stw	ra,28(sp)
    4c30:	dd400615 	stw	r21,24(sp)
    4c34:	dcc00415 	stw	r19,16(sp)
    4c38:	3d400017 	ldw	r21,0(r7)
    4c3c:	3027883a 	mov	r19,r6
    4c40:	dc000115 	stw	r16,4(sp)
    4c44:	3821883a 	mov	r16,r7
    4c48:	00025580 	call	2558 <mcapi_trans_access_database_pre>
    4c4c:	11003fcc 	andi	r4,r2,255
    4c50:	01428904 	movi	r5,2596
    4c54:	0001fc00 	call	1fc0 <MCAPI_ASSERT>
    4c58:	d809883a 	mov	r4,sp
    4c5c:	00020b80 	call	20b8 <mcapi_trans_reserve_request_have_lock>
    4c60:	10803fcc 	andi	r2,r2,255
    4c64:	10002126 	beq	r2,zero,4cec <mcapi_trans_sclchan_connect_i+0xe4>
    4c68:	ac80041e 	bne	r21,r18,4c7c <mcapi_trans_sclchan_connect_i+0x74>
    4c6c:	a009883a 	mov	r4,r20
    4c70:	880b883a 	mov	r5,r17
    4c74:	01800084 	movi	r6,2
    4c78:	0002ea40 	call	2ea4 <mcapi_trans_connect_channel_have_lock>
    4c7c:	d8c00017 	ldw	r3,0(sp)
    4c80:	d122e117 	ldw	r4,-29820(gp)
    4c84:	81400017 	ldw	r5,0(r16)
    4c88:	18800c24 	muli	r2,r3,48
    4c8c:	18e00034 	orhi	r3,r3,32768
    4c90:	2085883a 	add	r2,r4,r2
    4c94:	013fad14 	movui	r4,65204
    4c98:	1109883a 	add	r4,r2,r4
    4c9c:	21400015 	stw	r5,0(r4)
    4ca0:	013fa414 	movui	r4,65168
    4ca4:	1109883a 	add	r4,r2,r4
    4ca8:	20000015 	stw	zero,0(r4)
    4cac:	013fab14 	movui	r4,65196
    4cb0:	1109883a 	add	r4,r2,r4
    4cb4:	01400044 	movi	r5,1
    4cb8:	21400005 	stb	r5,0(r4)
    4cbc:	20000045 	stb	zero,1(r4)
    4cc0:	98c00015 	stw	r3,0(r19)
    4cc4:	00ffa514 	movui	r3,65172
    4cc8:	10c7883a 	add	r3,r2,r3
    4ccc:	18000015 	stw	zero,0(r3)
    4cd0:	00ffac14 	movui	r3,65200
    4cd4:	10c5883a 	add	r2,r2,r3
    4cd8:	14400015 	stw	r17,0(r2)
    4cdc:	01000044 	movi	r4,1
    4ce0:	01428b44 	movi	r5,2605
    4ce4:	0001fc00 	call	1fc0 <MCAPI_ASSERT>
    4ce8:	00000206 	br	4cf4 <mcapi_trans_sclchan_connect_i+0xec>
    4cec:	00800a84 	movi	r2,42
    4cf0:	80800015 	stw	r2,0(r16)
    4cf4:	d122df17 	ldw	r4,-29828(gp)
    4cf8:	01400044 	movi	r5,1
    4cfc:	00025b00 	call	25b0 <mcapi_trans_access_database_post>
    4d00:	11003fcc 	andi	r4,r2,255
    4d04:	01428cc4 	movi	r5,2611
    4d08:	0001fc00 	call	1fc0 <MCAPI_ASSERT>
    4d0c:	dfc00717 	ldw	ra,28(sp)
    4d10:	dd400617 	ldw	r21,24(sp)
    4d14:	dd000517 	ldw	r20,20(sp)
    4d18:	dcc00417 	ldw	r19,16(sp)
    4d1c:	dc800317 	ldw	r18,12(sp)
    4d20:	dc400217 	ldw	r17,8(sp)
    4d24:	dc000117 	ldw	r16,4(sp)
    4d28:	dec00804 	addi	sp,sp,32
    4d2c:	f800283a 	ret

00004d30 <mcapi_trans_pktchan_connect_i>:
    4d30:	defff804 	addi	sp,sp,-32
    4d34:	dd400615 	stw	r21,24(sp)
    4d38:	202b883a 	mov	r21,r4
    4d3c:	d122df17 	ldw	r4,-29828(gp)
    4d40:	dcc00415 	stw	r19,16(sp)
    4d44:	04c00044 	movi	r19,1
    4d48:	dc400215 	stw	r17,8(sp)
    4d4c:	2823883a 	mov	r17,r5
    4d50:	980b883a 	mov	r5,r19
    4d54:	dfc00715 	stw	ra,28(sp)
    4d58:	dd000515 	stw	r20,20(sp)
    4d5c:	dc800315 	stw	r18,12(sp)
    4d60:	3029883a 	mov	r20,r6
    4d64:	3c800017 	ldw	r18,0(r7)
    4d68:	dc000115 	stw	r16,4(sp)
    4d6c:	3821883a 	mov	r16,r7
    4d70:	00025580 	call	2558 <mcapi_trans_access_database_pre>
    4d74:	11003fcc 	andi	r4,r2,255
    4d78:	0141fa84 	movi	r5,2026
    4d7c:	0001fc00 	call	1fc0 <MCAPI_ASSERT>
    4d80:	d809883a 	mov	r4,sp
    4d84:	00020b80 	call	20b8 <mcapi_trans_reserve_request_have_lock>
    4d88:	10803fcc 	andi	r2,r2,255
    4d8c:	10002126 	beq	r2,zero,4e14 <mcapi_trans_pktchan_connect_i+0xe4>
    4d90:	94c0041e 	bne	r18,r19,4da4 <mcapi_trans_pktchan_connect_i+0x74>
    4d94:	a809883a 	mov	r4,r21
    4d98:	880b883a 	mov	r5,r17
    4d9c:	900d883a 	mov	r6,r18
    4da0:	0002ea40 	call	2ea4 <mcapi_trans_connect_channel_have_lock>
    4da4:	d8c00017 	ldw	r3,0(sp)
    4da8:	d122e117 	ldw	r4,-29820(gp)
    4dac:	81400017 	ldw	r5,0(r16)
    4db0:	18800c24 	muli	r2,r3,48
    4db4:	18e00034 	orhi	r3,r3,32768
    4db8:	2085883a 	add	r2,r4,r2
    4dbc:	013fad14 	movui	r4,65204
    4dc0:	1109883a 	add	r4,r2,r4
    4dc4:	21400015 	stw	r5,0(r4)
    4dc8:	013fa414 	movui	r4,65168
    4dcc:	1109883a 	add	r4,r2,r4
    4dd0:	20000015 	stw	zero,0(r4)
    4dd4:	013fab14 	movui	r4,65196
    4dd8:	1109883a 	add	r4,r2,r4
    4ddc:	01400044 	movi	r5,1
    4de0:	21400005 	stb	r5,0(r4)
    4de4:	20000045 	stb	zero,1(r4)
    4de8:	a0c00015 	stw	r3,0(r20)
    4dec:	00ffa514 	movui	r3,65172
    4df0:	10c7883a 	add	r3,r2,r3
    4df4:	18000015 	stw	zero,0(r3)
    4df8:	00ffac14 	movui	r3,65200
    4dfc:	10c5883a 	add	r2,r2,r3
    4e00:	14400015 	stw	r17,0(r2)
    4e04:	01000044 	movi	r4,1
    4e08:	0141fcc4 	movi	r5,2035
    4e0c:	0001fc00 	call	1fc0 <MCAPI_ASSERT>
    4e10:	00000206 	br	4e1c <mcapi_trans_pktchan_connect_i+0xec>
    4e14:	00800a84 	movi	r2,42
    4e18:	80800015 	stw	r2,0(r16)
    4e1c:	d122df17 	ldw	r4,-29828(gp)
    4e20:	01400044 	movi	r5,1
    4e24:	00025b00 	call	25b0 <mcapi_trans_access_database_post>
    4e28:	11003fcc 	andi	r4,r2,255
    4e2c:	0141fe44 	movi	r5,2041
    4e30:	0001fc00 	call	1fc0 <MCAPI_ASSERT>
    4e34:	dfc00717 	ldw	ra,28(sp)
    4e38:	dd400617 	ldw	r21,24(sp)
    4e3c:	dd000517 	ldw	r20,20(sp)
    4e40:	dcc00417 	ldw	r19,16(sp)
    4e44:	dc800317 	ldw	r18,12(sp)
    4e48:	dc400217 	ldw	r17,8(sp)
    4e4c:	dc000117 	ldw	r16,4(sp)
    4e50:	dec00804 	addi	sp,sp,32
    4e54:	f800283a 	ret

00004e58 <mcapi_trans_sclchan_send_close_i>:
    4e58:	defff604 	addi	sp,sp,-40
    4e5c:	d9c00104 	addi	r7,sp,4
    4e60:	dd000715 	stw	r20,28(sp)
    4e64:	dc800515 	stw	r18,20(sp)
    4e68:	dc400415 	stw	r17,16(sp)
    4e6c:	34800017 	ldw	r18,0(r6)
    4e70:	2829883a 	mov	r20,r5
    4e74:	3023883a 	mov	r17,r6
    4e78:	d9400204 	addi	r5,sp,8
    4e7c:	d9800184 	addi	r6,sp,6
    4e80:	dfc00915 	stw	ra,36(sp)
    4e84:	dd400815 	stw	r21,32(sp)
    4e88:	dcc00615 	stw	r19,24(sp)
    4e8c:	dc000315 	stw	r16,12(sp)
    4e90:	2027883a 	mov	r19,r4
    4e94:	0002e580 	call	2e58 <mcapi_trans_decode_handle>
    4e98:	11003fcc 	andi	r4,r2,255
    4e9c:	0142e1c4 	movi	r5,2951
    4ea0:	0001fc00 	call	1fc0 <MCAPI_ASSERT>
    4ea4:	d122df17 	ldw	r4,-29828(gp)
    4ea8:	04000044 	movi	r16,1
    4eac:	800b883a 	mov	r5,r16
    4eb0:	00025580 	call	2558 <mcapi_trans_access_database_pre>
    4eb4:	11003fcc 	andi	r4,r2,255
    4eb8:	0142e284 	movi	r5,2954
    4ebc:	0001fc00 	call	1fc0 <MCAPI_ASSERT>
    4ec0:	d900010b 	ldhu	r4,4(sp)
    4ec4:	d880018b 	ldhu	r2,6(sp)
    4ec8:	d8c0020b 	ldhu	r3,8(sp)
    4ecc:	21007a24 	muli	r4,r4,488
    4ed0:	1083e024 	muli	r2,r2,3968
    4ed4:	18df0324 	muli	r3,r3,31756
    4ed8:	800b883a 	mov	r5,r16
    4edc:	2085883a 	add	r2,r4,r2
    4ee0:	10c5883a 	add	r2,r2,r3
    4ee4:	d0e2e117 	ldw	r3,-29820(gp)
    4ee8:	d122df17 	ldw	r4,-29828(gp)
    4eec:	1885883a 	add	r2,r3,r2
    4ef0:	15402317 	ldw	r21,140(r2)
    4ef4:	00025b00 	call	25b0 <mcapi_trans_access_database_post>
    4ef8:	11003fcc 	andi	r4,r2,255
    4efc:	0142e3c4 	movi	r5,2959
    4f00:	0001fc00 	call	1fc0 <MCAPI_ASSERT>
    4f04:	a809883a 	mov	r4,r21
    4f08:	00045700 	call	4570 <mcapi_trans_endpoint_channel_isopen>
    4f0c:	d122df17 	ldw	r4,-29828(gp)
    4f10:	800b883a 	mov	r5,r16
    4f14:	102b883a 	mov	r21,r2
    4f18:	00025580 	call	2558 <mcapi_trans_access_database_pre>
    4f1c:	11003fcc 	andi	r4,r2,255
    4f20:	0142e544 	movi	r5,2965
    4f24:	0001fc00 	call	1fc0 <MCAPI_ASSERT>
    4f28:	d809883a 	mov	r4,sp
    4f2c:	00020b80 	call	20b8 <mcapi_trans_reserve_request_have_lock>
    4f30:	10803fcc 	andi	r2,r2,255
    4f34:	10002e26 	beq	r2,zero,4ff0 <mcapi_trans_sclchan_send_close_i+0x198>
    4f38:	d1a2e117 	ldw	r6,-29820(gp)
    4f3c:	9400111e 	bne	r18,r16,4f84 <mcapi_trans_sclchan_send_close_i+0x12c>
    4f40:	d8c0018b 	ldhu	r3,6(sp)
    4f44:	d900010b 	ldhu	r4,4(sp)
    4f48:	d880020b 	ldhu	r2,8(sp)
    4f4c:	18c3e024 	muli	r3,r3,3968
    4f50:	21007a24 	muli	r4,r4,488
    4f54:	109f0324 	muli	r2,r2,31756
    4f58:	ad403fcc 	andi	r21,r21,255
    4f5c:	20c7883a 	add	r3,r4,r3
    4f60:	1887883a 	add	r3,r3,r2
    4f64:	30c7883a 	add	r3,r6,r3
    4f68:	18001485 	stb	zero,82(r3)
    4f6c:	a800041e 	bne	r21,zero,4f80 <mcapi_trans_sclchan_send_close_i+0x128>
    4f70:	180014c5 	stb	zero,83(r3)
    4f74:	18002405 	stb	zero,144(r3)
    4f78:	9021883a 	mov	r16,r18
    4f7c:	00000106 	br	4f84 <mcapi_trans_sclchan_send_close_i+0x12c>
    4f80:	0021883a 	mov	r16,zero
    4f84:	d8c00017 	ldw	r3,0(sp)
    4f88:	89400017 	ldw	r5,0(r17)
    4f8c:	013fad14 	movui	r4,65204
    4f90:	18800c24 	muli	r2,r3,48
    4f94:	18e00034 	orhi	r3,r3,32768
    4f98:	3085883a 	add	r2,r6,r2
    4f9c:	1109883a 	add	r4,r2,r4
    4fa0:	21400015 	stw	r5,0(r4)
    4fa4:	01bfab14 	movui	r6,65196
    4fa8:	013fa414 	movui	r4,65168
    4fac:	118d883a 	add	r6,r2,r6
    4fb0:	1109883a 	add	r4,r2,r4
    4fb4:	20000015 	stw	zero,0(r4)
    4fb8:	30000045 	stb	zero,1(r6)
    4fbc:	34000005 	stb	r16,0(r6)
    4fc0:	a0c00015 	stw	r3,0(r20)
    4fc4:	00ffa514 	movui	r3,65172
    4fc8:	10c7883a 	add	r3,r2,r3
    4fcc:	010001c4 	movi	r4,7
    4fd0:	19000015 	stw	r4,0(r3)
    4fd4:	00ffac14 	movui	r3,65200
    4fd8:	10c5883a 	add	r2,r2,r3
    4fdc:	14c00015 	stw	r19,0(r2)
    4fe0:	01000044 	movi	r4,1
    4fe4:	0142e9c4 	movi	r5,2983
    4fe8:	0001fc00 	call	1fc0 <MCAPI_ASSERT>
    4fec:	00000206 	br	4ff8 <mcapi_trans_sclchan_send_close_i+0x1a0>
    4ff0:	00800a84 	movi	r2,42
    4ff4:	88800015 	stw	r2,0(r17)
    4ff8:	d122df17 	ldw	r4,-29828(gp)
    4ffc:	01400044 	movi	r5,1
    5000:	00025b00 	call	25b0 <mcapi_trans_access_database_post>
    5004:	11003fcc 	andi	r4,r2,255
    5008:	0142eb44 	movi	r5,2989
    500c:	0001fc00 	call	1fc0 <MCAPI_ASSERT>
    5010:	dfc00917 	ldw	ra,36(sp)
    5014:	dd400817 	ldw	r21,32(sp)
    5018:	dd000717 	ldw	r20,28(sp)
    501c:	dcc00617 	ldw	r19,24(sp)
    5020:	dc800517 	ldw	r18,20(sp)
    5024:	dc400417 	ldw	r17,16(sp)
    5028:	dc000317 	ldw	r16,12(sp)
    502c:	dec00a04 	addi	sp,sp,40
    5030:	f800283a 	ret

00005034 <mcapi_trans_sclchan_send_open_i>:
    5034:	defff404 	addi	sp,sp,-48
    5038:	ddc00a15 	stw	r23,40(sp)
    503c:	dd400815 	stw	r21,32(sp)
    5040:	dcc00615 	stw	r19,24(sp)
    5044:	dc800515 	stw	r18,20(sp)
    5048:	dc400415 	stw	r17,16(sp)
    504c:	3cc00017 	ldw	r19,0(r7)
    5050:	202f883a 	mov	r23,r4
    5054:	2825883a 	mov	r18,r5
    5058:	2809883a 	mov	r4,r5
    505c:	302b883a 	mov	r21,r6
    5060:	d9400204 	addi	r5,sp,8
    5064:	d9800184 	addi	r6,sp,6
    5068:	3823883a 	mov	r17,r7
    506c:	d9c00104 	addi	r7,sp,4
    5070:	dfc00b15 	stw	ra,44(sp)
    5074:	dd800915 	stw	r22,36(sp)
    5078:	dd000715 	stw	r20,28(sp)
    507c:	dc000315 	stw	r16,12(sp)
    5080:	0002e580 	call	2e58 <mcapi_trans_decode_handle>
    5084:	11003fcc 	andi	r4,r2,255
    5088:	0142a344 	movi	r5,2701
    508c:	0001fc00 	call	1fc0 <MCAPI_ASSERT>
    5090:	d122df17 	ldw	r4,-29828(gp)
    5094:	04000044 	movi	r16,1
    5098:	800b883a 	mov	r5,r16
    509c:	00025580 	call	2558 <mcapi_trans_access_database_pre>
    50a0:	11003fcc 	andi	r4,r2,255
    50a4:	0142a404 	movi	r5,2704
    50a8:	0001fc00 	call	1fc0 <MCAPI_ASSERT>
    50ac:	d900010b 	ldhu	r4,4(sp)
    50b0:	d880018b 	ldhu	r2,6(sp)
    50b4:	d8c0020b 	ldhu	r3,8(sp)
    50b8:	21007a24 	muli	r4,r4,488
    50bc:	1083e024 	muli	r2,r2,3968
    50c0:	18df0324 	muli	r3,r3,31756
    50c4:	800b883a 	mov	r5,r16
    50c8:	2085883a 	add	r2,r4,r2
    50cc:	10c5883a 	add	r2,r2,r3
    50d0:	d0e2e117 	ldw	r3,-29820(gp)
    50d4:	d122df17 	ldw	r4,-29828(gp)
    50d8:	1885883a 	add	r2,r3,r2
    50dc:	15002317 	ldw	r20,140(r2)
    50e0:	00025b00 	call	25b0 <mcapi_trans_access_database_post>
    50e4:	11003fcc 	andi	r4,r2,255
    50e8:	0142a584 	movi	r5,2710
    50ec:	0001fc00 	call	1fc0 <MCAPI_ASSERT>
    50f0:	a009883a 	mov	r4,r20
    50f4:	00045700 	call	4570 <mcapi_trans_endpoint_channel_isopen>
    50f8:	d122df17 	ldw	r4,-29828(gp)
    50fc:	800b883a 	mov	r5,r16
    5100:	102d883a 	mov	r22,r2
    5104:	00025580 	call	2558 <mcapi_trans_access_database_pre>
    5108:	11003fcc 	andi	r4,r2,255
    510c:	0142a6c4 	movi	r5,2715
    5110:	0001fc00 	call	1fc0 <MCAPI_ASSERT>
    5114:	d809883a 	mov	r4,sp
    5118:	00020b80 	call	20b8 <mcapi_trans_reserve_request_have_lock>
    511c:	10803fcc 	andi	r2,r2,255
    5120:	10002c26 	beq	r2,zero,51d4 <mcapi_trans_sclchan_send_open_i+0x1a0>
    5124:	d522e117 	ldw	r20,-29820(gp)
    5128:	9c000f1e 	bne	r19,r16,5168 <mcapi_trans_sclchan_send_open_i+0x134>
    512c:	d8c0010b 	ldhu	r3,4(sp)
    5130:	d940018b 	ldhu	r5,6(sp)
    5134:	d900020b 	ldhu	r4,8(sp)
    5138:	19807a24 	muli	r6,r3,488
    513c:	2883e024 	muli	r2,r5,3968
    5140:	b4003fcc 	andi	r16,r22,255
    5144:	84000060 	cmpeqi	r16,r16,1
    5148:	3085883a 	add	r2,r6,r2
    514c:	219f0324 	muli	r6,r4,31756
    5150:	1185883a 	add	r2,r2,r6
    5154:	a085883a 	add	r2,r20,r2
    5158:	14c01485 	stb	r19,82(r2)
    515c:	180d883a 	mov	r6,r3
    5160:	00028600 	call	2860 <mcapi_trans_encode_handle>
    5164:	b8800015 	stw	r2,0(r23)
    5168:	d8c00017 	ldw	r3,0(sp)
    516c:	89400017 	ldw	r5,0(r17)
    5170:	013fad14 	movui	r4,65204
    5174:	18800c24 	muli	r2,r3,48
    5178:	18e00034 	orhi	r3,r3,32768
    517c:	a085883a 	add	r2,r20,r2
    5180:	1109883a 	add	r4,r2,r4
    5184:	21400015 	stw	r5,0(r4)
    5188:	013fa414 	movui	r4,65168
    518c:	1109883a 	add	r4,r2,r4
    5190:	20000015 	stw	zero,0(r4)
    5194:	013fab14 	movui	r4,65196
    5198:	1109883a 	add	r4,r2,r4
    519c:	24000005 	stb	r16,0(r4)
    51a0:	20000045 	stb	zero,1(r4)
    51a4:	a8c00015 	stw	r3,0(r21)
    51a8:	00ffa514 	movui	r3,65172
    51ac:	10c7883a 	add	r3,r2,r3
    51b0:	01000084 	movi	r4,2
    51b4:	19000015 	stw	r4,0(r3)
    51b8:	00ffac14 	movui	r3,65200
    51bc:	10c5883a 	add	r2,r2,r3
    51c0:	14800015 	stw	r18,0(r2)
    51c4:	01000044 	movi	r4,1
    51c8:	0142acc4 	movi	r5,2739
    51cc:	0001fc00 	call	1fc0 <MCAPI_ASSERT>
    51d0:	00000206 	br	51dc <mcapi_trans_sclchan_send_open_i+0x1a8>
    51d4:	00800a84 	movi	r2,42
    51d8:	88800015 	stw	r2,0(r17)
    51dc:	d122df17 	ldw	r4,-29828(gp)
    51e0:	01400044 	movi	r5,1
    51e4:	00025b00 	call	25b0 <mcapi_trans_access_database_post>
    51e8:	11003fcc 	andi	r4,r2,255
    51ec:	0142ae44 	movi	r5,2745
    51f0:	0001fc00 	call	1fc0 <MCAPI_ASSERT>
    51f4:	dfc00b17 	ldw	ra,44(sp)
    51f8:	ddc00a17 	ldw	r23,40(sp)
    51fc:	dd800917 	ldw	r22,36(sp)
    5200:	dd400817 	ldw	r21,32(sp)
    5204:	dd000717 	ldw	r20,28(sp)
    5208:	dcc00617 	ldw	r19,24(sp)
    520c:	dc800517 	ldw	r18,20(sp)
    5210:	dc400417 	ldw	r17,16(sp)
    5214:	dc000317 	ldw	r16,12(sp)
    5218:	dec00c04 	addi	sp,sp,48
    521c:	f800283a 	ret

00005220 <mcapi_trans_sclchan_recv_open_i>:
    5220:	defff404 	addi	sp,sp,-48
    5224:	ddc00a15 	stw	r23,40(sp)
    5228:	dd400815 	stw	r21,32(sp)
    522c:	dcc00615 	stw	r19,24(sp)
    5230:	dc800515 	stw	r18,20(sp)
    5234:	dc400415 	stw	r17,16(sp)
    5238:	3cc00017 	ldw	r19,0(r7)
    523c:	202f883a 	mov	r23,r4
    5240:	2825883a 	mov	r18,r5
    5244:	2809883a 	mov	r4,r5
    5248:	302b883a 	mov	r21,r6
    524c:	d9400204 	addi	r5,sp,8
    5250:	d9800184 	addi	r6,sp,6
    5254:	3823883a 	mov	r17,r7
    5258:	d9c00104 	addi	r7,sp,4
    525c:	dfc00b15 	stw	ra,44(sp)
    5260:	dd800915 	stw	r22,36(sp)
    5264:	dd000715 	stw	r20,28(sp)
    5268:	dc000315 	stw	r16,12(sp)
    526c:	0002e580 	call	2e58 <mcapi_trans_decode_handle>
    5270:	11003fcc 	andi	r4,r2,255
    5274:	01429284 	movi	r5,2634
    5278:	0001fc00 	call	1fc0 <MCAPI_ASSERT>
    527c:	d122df17 	ldw	r4,-29828(gp)
    5280:	04000044 	movi	r16,1
    5284:	800b883a 	mov	r5,r16
    5288:	00025580 	call	2558 <mcapi_trans_access_database_pre>
    528c:	11003fcc 	andi	r4,r2,255
    5290:	01429344 	movi	r5,2637
    5294:	0001fc00 	call	1fc0 <MCAPI_ASSERT>
    5298:	d900010b 	ldhu	r4,4(sp)
    529c:	d880018b 	ldhu	r2,6(sp)
    52a0:	d8c0020b 	ldhu	r3,8(sp)
    52a4:	21007a24 	muli	r4,r4,488
    52a8:	1083e024 	muli	r2,r2,3968
    52ac:	18df0324 	muli	r3,r3,31756
    52b0:	800b883a 	mov	r5,r16
    52b4:	2085883a 	add	r2,r4,r2
    52b8:	10c5883a 	add	r2,r2,r3
    52bc:	d0e2e117 	ldw	r3,-29820(gp)
    52c0:	d122df17 	ldw	r4,-29828(gp)
    52c4:	1885883a 	add	r2,r3,r2
    52c8:	15002217 	ldw	r20,136(r2)
    52cc:	00025b00 	call	25b0 <mcapi_trans_access_database_post>
    52d0:	11003fcc 	andi	r4,r2,255
    52d4:	014294c4 	movi	r5,2643
    52d8:	0001fc00 	call	1fc0 <MCAPI_ASSERT>
    52dc:	a009883a 	mov	r4,r20
    52e0:	00045700 	call	4570 <mcapi_trans_endpoint_channel_isopen>
    52e4:	d122df17 	ldw	r4,-29828(gp)
    52e8:	800b883a 	mov	r5,r16
    52ec:	102d883a 	mov	r22,r2
    52f0:	00025580 	call	2558 <mcapi_trans_access_database_pre>
    52f4:	11003fcc 	andi	r4,r2,255
