Archive member included because of file (symbol)

c:/altera/13.1/nios2eds/bin/gnu/h-i686-mingw32/bin/../lib/gcc/nios2-elf/4.7.3\libgcc.a(lib2-divmod.o)
                              obj/default/MCAPI_Transport/mcapi_trans_nios.o (__modsi3)
c:/altera/13.1/nios2eds/bin/gnu/h-i686-mingw32/bin/../lib/gcc/nios2-elf/4.7.3/../../../../../H-i686-mingw32/nios2-elf/lib\libc.a(lib_a-exit.o)
                              obj/default/MCAPI_Transport/mcapi_trans_nios.o (exit)
c:/altera/13.1/nios2eds/bin/gnu/h-i686-mingw32/bin/../lib/gcc/nios2-elf/4.7.3/../../../../../H-i686-mingw32/nios2-elf/lib\libc.a(lib_a-fflush.o)
                              obj/default/MCAPI_Transport/mcapi_trans_nios.o (fflush)
c:/altera/13.1/nios2eds/bin/gnu/h-i686-mingw32/bin/../lib/gcc/nios2-elf/4.7.3/../../../../../H-i686-mingw32/nios2-elf/lib\libc.a(lib_a-findfp.o)
                              c:/altera/13.1/nios2eds/bin/gnu/h-i686-mingw32/bin/../lib/gcc/nios2-elf/4.7.3/../../../../../H-i686-mingw32/nios2-elf/lib\libc.a(lib_a-fflush.o) (__sinit)
c:/altera/13.1/nios2eds/bin/gnu/h-i686-mingw32/bin/../lib/gcc/nios2-elf/4.7.3/../../../../../H-i686-mingw32/nios2-elf/lib\libc.a(lib_a-fprintf.o)
                              obj/default/MCAPI_Top/mcapi.o (fprintf)
c:/altera/13.1/nios2eds/bin/gnu/h-i686-mingw32/bin/../lib/gcc/nios2-elf/4.7.3/../../../../../H-i686-mingw32/nios2-elf/lib\libc.a(lib_a-fputs.o)
                              obj/default/MCAPI_Transport/mcapi_trans_nios.o (fputs)
c:/altera/13.1/nios2eds/bin/gnu/h-i686-mingw32/bin/../lib/gcc/nios2-elf/4.7.3/../../../../../H-i686-mingw32/nios2-elf/lib\libc.a(lib_a-fvwrite.o)
                              c:/altera/13.1/nios2eds/bin/gnu/h-i686-mingw32/bin/../lib/gcc/nios2-elf/4.7.3/../../../../../H-i686-mingw32/nios2-elf/lib\libc.a(lib_a-fputs.o) (__sfvwrite_r)
c:/altera/13.1/nios2eds/bin/gnu/h-i686-mingw32/bin/../lib/gcc/nios2-elf/4.7.3/../../../../../H-i686-mingw32/nios2-elf/lib\libc.a(lib_a-fwalk.o)
                              c:/altera/13.1/nios2eds/bin/gnu/h-i686-mingw32/bin/../lib/gcc/nios2-elf/4.7.3/../../../../../H-i686-mingw32/nios2-elf/lib\libc.a(lib_a-findfp.o) (_fwalk)
c:/altera/13.1/nios2eds/bin/gnu/h-i686-mingw32/bin/../lib/gcc/nios2-elf/4.7.3/../../../../../H-i686-mingw32/nios2-elf/lib\libc.a(lib_a-impure.o)
                              c:/altera/13.1/nios2eds/bin/gnu/h-i686-mingw32/bin/../lib/gcc/nios2-elf/4.7.3/../../../../../H-i686-mingw32/nios2-elf/lib\libc.a(lib_a-exit.o) (_global_impure_ptr)
c:/altera/13.1/nios2eds/bin/gnu/h-i686-mingw32/bin/../lib/gcc/nios2-elf/4.7.3/../../../../../H-i686-mingw32/nios2-elf/lib\libc.a(lib_a-mallocr.o)
                              c:/altera/13.1/nios2eds/bin/gnu/h-i686-mingw32/bin/../lib/gcc/nios2-elf/4.7.3/../../../../../H-i686-mingw32/nios2-elf/lib\libc.a(lib_a-findfp.o) (_malloc_r)
c:/altera/13.1/nios2eds/bin/gnu/h-i686-mingw32/bin/../lib/gcc/nios2-elf/4.7.3/../../../../../H-i686-mingw32/nios2-elf/lib\libc.a(lib_a-memchr.o)
                              c:/altera/13.1/nios2eds/bin/gnu/h-i686-mingw32/bin/../lib/gcc/nios2-elf/4.7.3/../../../../../H-i686-mingw32/nios2-elf/lib\libc.a(lib_a-fvwrite.o) (memchr)
c:/altera/13.1/nios2eds/bin/gnu/h-i686-mingw32/bin/../lib/gcc/nios2-elf/4.7.3/../../../../../H-i686-mingw32/nios2-elf/lib\libc.a(lib_a-memcpy.o)
                              obj/default/MCAPI_Transport/mcapi_trans_nios.o (memcpy)
c:/altera/13.1/nios2eds/bin/gnu/h-i686-mingw32/bin/../lib/gcc/nios2-elf/4.7.3/../../../../../H-i686-mingw32/nios2-elf/lib\libc.a(lib_a-memmove.o)
                              c:/altera/13.1/nios2eds/bin/gnu/h-i686-mingw32/bin/../lib/gcc/nios2-elf/4.7.3/../../../../../H-i686-mingw32/nios2-elf/lib\libc.a(lib_a-fvwrite.o) (memmove)
c:/altera/13.1/nios2eds/bin/gnu/h-i686-mingw32/bin/../lib/gcc/nios2-elf/4.7.3/../../../../../H-i686-mingw32/nios2-elf/lib\libc.a(lib_a-memset.o)
                              obj/default/MCAPI_Top/mcapi.o (memset)
c:/altera/13.1/nios2eds/bin/gnu/h-i686-mingw32/bin/../lib/gcc/nios2-elf/4.7.3/../../../../../H-i686-mingw32/nios2-elf/lib\libc.a(lib_a-printf.o)
                              obj/default/MCAPI_Transport/mcapi_trans_nios.o (printf)
c:/altera/13.1/nios2eds/bin/gnu/h-i686-mingw32/bin/../lib/gcc/nios2-elf/4.7.3/../../../../../H-i686-mingw32/nios2-elf/lib\libc.a(lib_a-puts.o)
                              obj/default/MCAPI_Transport/mcapi_trans_nios.o (puts)
c:/altera/13.1/nios2eds/bin/gnu/h-i686-mingw32/bin/../lib/gcc/nios2-elf/4.7.3/../../../../../H-i686-mingw32/nios2-elf/lib\libc.a(lib_a-rand.o)
                              obj/default/SysTestNode2.o (rand)
c:/altera/13.1/nios2eds/bin/gnu/h-i686-mingw32/bin/../lib/gcc/nios2-elf/4.7.3/../../../../../H-i686-mingw32/nios2-elf/lib\libc.a(lib_a-reallocr.o)
                              c:/altera/13.1/nios2eds/bin/gnu/h-i686-mingw32/bin/../lib/gcc/nios2-elf/4.7.3/../../../../../H-i686-mingw32/nios2-elf/lib\libc.a(lib_a-fvwrite.o) (_realloc_r)
c:/altera/13.1/nios2eds/bin/gnu/h-i686-mingw32/bin/../lib/gcc/nios2-elf/4.7.3/../../../../../H-i686-mingw32/nios2-elf/lib\libc.a(lib_a-sbrkr.o)
                              c:/altera/13.1/nios2eds/bin/gnu/h-i686-mingw32/bin/../lib/gcc/nios2-elf/4.7.3/../../../../../H-i686-mingw32/nios2-elf/lib\libc.a(lib_a-mallocr.o) (_sbrk_r)
c:/altera/13.1/nios2eds/bin/gnu/h-i686-mingw32/bin/../lib/gcc/nios2-elf/4.7.3/../../../../../H-i686-mingw32/nios2-elf/lib\libc.a(lib_a-stdio.o)
                              c:/altera/13.1/nios2eds/bin/gnu/h-i686-mingw32/bin/../lib/gcc/nios2-elf/4.7.3/../../../../../H-i686-mingw32/nios2-elf/lib\libc.a(lib_a-findfp.o) (__sread)
c:/altera/13.1/nios2eds/bin/gnu/h-i686-mingw32/bin/../lib/gcc/nios2-elf/4.7.3/../../../../../H-i686-mingw32/nios2-elf/lib\libc.a(lib_a-strcpy.o)
                              obj/default/MCAPI_Top/mcapi.o (strcpy)
c:/altera/13.1/nios2eds/bin/gnu/h-i686-mingw32/bin/../lib/gcc/nios2-elf/4.7.3/../../../../../H-i686-mingw32/nios2-elf/lib\libc.a(lib_a-strlen.o)
                              c:/altera/13.1/nios2eds/bin/gnu/h-i686-mingw32/bin/../lib/gcc/nios2-elf/4.7.3/../../../../../H-i686-mingw32/nios2-elf/lib\libc.a(lib_a-fputs.o) (strlen)
c:/altera/13.1/nios2eds/bin/gnu/h-i686-mingw32/bin/../lib/gcc/nios2-elf/4.7.3/../../../../../H-i686-mingw32/nios2-elf/lib\libc.a(lib_a-vfprintf.o)
                              c:/altera/13.1/nios2eds/bin/gnu/h-i686-mingw32/bin/../lib/gcc/nios2-elf/4.7.3/../../../../../H-i686-mingw32/nios2-elf/lib\libc.a(lib_a-printf.o) (___vfprintf_internal_r)
c:/altera/13.1/nios2eds/bin/gnu/h-i686-mingw32/bin/../lib/gcc/nios2-elf/4.7.3/../../../../../H-i686-mingw32/nios2-elf/lib\libc.a(lib_a-writer.o)
                              c:/altera/13.1/nios2eds/bin/gnu/h-i686-mingw32/bin/../lib/gcc/nios2-elf/4.7.3/../../../../../H-i686-mingw32/nios2-elf/lib\libc.a(lib_a-stdio.o) (_write_r)
c:/altera/13.1/nios2eds/bin/gnu/h-i686-mingw32/bin/../lib/gcc/nios2-elf/4.7.3/../../../../../H-i686-mingw32/nios2-elf/lib\libc.a(lib_a-wsetup.o)
                              c:/altera/13.1/nios2eds/bin/gnu/h-i686-mingw32/bin/../lib/gcc/nios2-elf/4.7.3/../../../../../H-i686-mingw32/nios2-elf/lib\libc.a(lib_a-fvwrite.o) (__swsetup_r)
c:/altera/13.1/nios2eds/bin/gnu/h-i686-mingw32/bin/../lib/gcc/nios2-elf/4.7.3/../../../../../H-i686-mingw32/nios2-elf/lib\libc.a(lib_a-__call_atexit.o)
                              c:/altera/13.1/nios2eds/bin/gnu/h-i686-mingw32/bin/../lib/gcc/nios2-elf/4.7.3/../../../../../H-i686-mingw32/nios2-elf/lib\libc.a(lib_a-exit.o) (__call_exitprocs)
c:/altera/13.1/nios2eds/bin/gnu/h-i686-mingw32/bin/../lib/gcc/nios2-elf/4.7.3/../../../../../H-i686-mingw32/nios2-elf/lib\libc.a(lib_a-closer.o)
                              c:/altera/13.1/nios2eds/bin/gnu/h-i686-mingw32/bin/../lib/gcc/nios2-elf/4.7.3/../../../../../H-i686-mingw32/nios2-elf/lib\libc.a(lib_a-stdio.o) (_close_r)
c:/altera/13.1/nios2eds/bin/gnu/h-i686-mingw32/bin/../lib/gcc/nios2-elf/4.7.3/../../../../../H-i686-mingw32/nios2-elf/lib\libc.a(lib_a-dtoa.o)
                              c:/altera/13.1/nios2eds/bin/gnu/h-i686-mingw32/bin/../lib/gcc/nios2-elf/4.7.3/../../../../../H-i686-mingw32/nios2-elf/lib\libc.a(lib_a-vfprintf.o) (_dtoa_r)
c:/altera/13.1/nios2eds/bin/gnu/h-i686-mingw32/bin/../lib/gcc/nios2-elf/4.7.3/../../../../../H-i686-mingw32/nios2-elf/lib\libc.a(lib_a-fclose.o)
                              c:/altera/13.1/nios2eds/bin/gnu/h-i686-mingw32/bin/../lib/gcc/nios2-elf/4.7.3/../../../../../H-i686-mingw32/nios2-elf/lib\libc.a(lib_a-findfp.o) (fclose)
c:/altera/13.1/nios2eds/bin/gnu/h-i686-mingw32/bin/../lib/gcc/nios2-elf/4.7.3/../../../../../H-i686-mingw32/nios2-elf/lib\libc.a(lib_a-freer.o)
                              c:/altera/13.1/nios2eds/bin/gnu/h-i686-mingw32/bin/../lib/gcc/nios2-elf/4.7.3/../../../../../H-i686-mingw32/nios2-elf/lib\libc.a(lib_a-fvwrite.o) (_free_r)
c:/altera/13.1/nios2eds/bin/gnu/h-i686-mingw32/bin/../lib/gcc/nios2-elf/4.7.3/../../../../../H-i686-mingw32/nios2-elf/lib\libc.a(lib_a-int_errno.o)
                              c:/altera/13.1/nios2eds/bin/gnu/h-i686-mingw32/bin/../lib/gcc/nios2-elf/4.7.3/../../../../../H-i686-mingw32/nios2-elf/lib\libc.a(lib_a-sbrkr.o) (errno)
c:/altera/13.1/nios2eds/bin/gnu/h-i686-mingw32/bin/../lib/gcc/nios2-elf/4.7.3/../../../../../H-i686-mingw32/nios2-elf/lib\libc.a(lib_a-locale.o)
                              c:/altera/13.1/nios2eds/bin/gnu/h-i686-mingw32/bin/../lib/gcc/nios2-elf/4.7.3/../../../../../H-i686-mingw32/nios2-elf/lib\libc.a(lib_a-vfprintf.o) (_localeconv_r)
c:/altera/13.1/nios2eds/bin/gnu/h-i686-mingw32/bin/../lib/gcc/nios2-elf/4.7.3/../../../../../H-i686-mingw32/nios2-elf/lib\libc.a(lib_a-lseekr.o)
                              c:/altera/13.1/nios2eds/bin/gnu/h-i686-mingw32/bin/../lib/gcc/nios2-elf/4.7.3/../../../../../H-i686-mingw32/nios2-elf/lib\libc.a(lib_a-stdio.o) (_lseek_r)
c:/altera/13.1/nios2eds/bin/gnu/h-i686-mingw32/bin/../lib/gcc/nios2-elf/4.7.3/../../../../../H-i686-mingw32/nios2-elf/lib\libc.a(lib_a-makebuf.o)
                              c:/altera/13.1/nios2eds/bin/gnu/h-i686-mingw32/bin/../lib/gcc/nios2-elf/4.7.3/../../../../../H-i686-mingw32/nios2-elf/lib\libc.a(lib_a-wsetup.o) (__smakebuf_r)
c:/altera/13.1/nios2eds/bin/gnu/h-i686-mingw32/bin/../lib/gcc/nios2-elf/4.7.3/../../../../../H-i686-mingw32/nios2-elf/lib\libc.a(lib_a-mprec.o)
                              c:/altera/13.1/nios2eds/bin/gnu/h-i686-mingw32/bin/../lib/gcc/nios2-elf/4.7.3/../../../../../H-i686-mingw32/nios2-elf/lib\libc.a(lib_a-dtoa.o) (_Balloc)
c:/altera/13.1/nios2eds/bin/gnu/h-i686-mingw32/bin/../lib/gcc/nios2-elf/4.7.3/../../../../../H-i686-mingw32/nios2-elf/lib\libc.a(lib_a-readr.o)
                              c:/altera/13.1/nios2eds/bin/gnu/h-i686-mingw32/bin/../lib/gcc/nios2-elf/4.7.3/../../../../../H-i686-mingw32/nios2-elf/lib\libc.a(lib_a-stdio.o) (_read_r)
c:/altera/13.1/nios2eds/bin/gnu/h-i686-mingw32/bin/../lib/gcc/nios2-elf/4.7.3/../../../../../H-i686-mingw32/nios2-elf/lib\libc.a(lib_a-s_isinfd.o)
                              c:/altera/13.1/nios2eds/bin/gnu/h-i686-mingw32/bin/../lib/gcc/nios2-elf/4.7.3/../../../../../H-i686-mingw32/nios2-elf/lib\libc.a(lib_a-vfprintf.o) (__isinfd)
c:/altera/13.1/nios2eds/bin/gnu/h-i686-mingw32/bin/../lib/gcc/nios2-elf/4.7.3/../../../../../H-i686-mingw32/nios2-elf/lib\libc.a(lib_a-s_isnand.o)
                              c:/altera/13.1/nios2eds/bin/gnu/h-i686-mingw32/bin/../lib/gcc/nios2-elf/4.7.3/../../../../../H-i686-mingw32/nios2-elf/lib\libc.a(lib_a-vfprintf.o) (__isnand)
c:/altera/13.1/nios2eds/bin/gnu/h-i686-mingw32/bin/../lib/gcc/nios2-elf/4.7.3/../../../../../H-i686-mingw32/nios2-elf/lib\libc.a(lib_a-strcmp.o)
                              c:/altera/13.1/nios2eds/bin/gnu/h-i686-mingw32/bin/../lib/gcc/nios2-elf/4.7.3/../../../../../H-i686-mingw32/nios2-elf/lib\libc.a(lib_a-locale.o) (strcmp)
c:/altera/13.1/nios2eds/bin/gnu/h-i686-mingw32/bin/../lib/gcc/nios2-elf/4.7.3/../../../../../H-i686-mingw32/nios2-elf/lib\libc.a(lib_a-callocr.o)
                              c:/altera/13.1/nios2eds/bin/gnu/h-i686-mingw32/bin/../lib/gcc/nios2-elf/4.7.3/../../../../../H-i686-mingw32/nios2-elf/lib\libc.a(lib_a-mprec.o) (_calloc_r)
c:/altera/13.1/nios2eds/bin/gnu/h-i686-mingw32/bin/../lib/gcc/nios2-elf/4.7.3/../../../../../H-i686-mingw32/nios2-elf/lib\libc.a(lib_a-fstatr.o)
                              c:/altera/13.1/nios2eds/bin/gnu/h-i686-mingw32/bin/../lib/gcc/nios2-elf/4.7.3/../../../../../H-i686-mingw32/nios2-elf/lib\libc.a(lib_a-makebuf.o) (_fstat_r)
c:/altera/13.1/nios2eds/bin/gnu/h-i686-mingw32/bin/../lib/gcc/nios2-elf/4.7.3/../../../../../H-i686-mingw32/nios2-elf/lib\libc.a(lib_a-isattyr.o)
                              c:/altera/13.1/nios2eds/bin/gnu/h-i686-mingw32/bin/../lib/gcc/nios2-elf/4.7.3/../../../../../H-i686-mingw32/nios2-elf/lib\libc.a(lib_a-makebuf.o) (_isatty_r)
c:/altera/13.1/nios2eds/bin/gnu/h-i686-mingw32/bin/../lib/gcc/nios2-elf/4.7.3\libgcc.a(_muldi3.o)
                              c:/altera/13.1/nios2eds/bin/gnu/h-i686-mingw32/bin/../lib/gcc/nios2-elf/4.7.3/../../../../../H-i686-mingw32/nios2-elf/lib\libc.a(lib_a-rand.o) (__muldi3)
c:/altera/13.1/nios2eds/bin/gnu/h-i686-mingw32/bin/../lib/gcc/nios2-elf/4.7.3\libgcc.a(_udivdi3.o)
                              c:/altera/13.1/nios2eds/bin/gnu/h-i686-mingw32/bin/../lib/gcc/nios2-elf/4.7.3/../../../../../H-i686-mingw32/nios2-elf/lib\libc.a(lib_a-vfprintf.o) (__udivdi3)
c:/altera/13.1/nios2eds/bin/gnu/h-i686-mingw32/bin/../lib/gcc/nios2-elf/4.7.3\libgcc.a(_umoddi3.o)
                              c:/altera/13.1/nios2eds/bin/gnu/h-i686-mingw32/bin/../lib/gcc/nios2-elf/4.7.3/../../../../../H-i686-mingw32/nios2-elf/lib\libc.a(lib_a-vfprintf.o) (__umoddi3)
c:/altera/13.1/nios2eds/bin/gnu/h-i686-mingw32/bin/../lib/gcc/nios2-elf/4.7.3\libgcc.a(_addsub_df.o)
                              c:/altera/13.1/nios2eds/bin/gnu/h-i686-mingw32/bin/../lib/gcc/nios2-elf/4.7.3/../../../../../H-i686-mingw32/nios2-elf/lib\libc.a(lib_a-dtoa.o) (__adddf3)
c:/altera/13.1/nios2eds/bin/gnu/h-i686-mingw32/bin/../lib/gcc/nios2-elf/4.7.3\libgcc.a(_mul_df.o)
                              c:/altera/13.1/nios2eds/bin/gnu/h-i686-mingw32/bin/../lib/gcc/nios2-elf/4.7.3/../../../../../H-i686-mingw32/nios2-elf/lib\libc.a(lib_a-dtoa.o) (__muldf3)
c:/altera/13.1/nios2eds/bin/gnu/h-i686-mingw32/bin/../lib/gcc/nios2-elf/4.7.3\libgcc.a(_div_df.o)
                              c:/altera/13.1/nios2eds/bin/gnu/h-i686-mingw32/bin/../lib/gcc/nios2-elf/4.7.3/../../../../../H-i686-mingw32/nios2-elf/lib\libc.a(lib_a-dtoa.o) (__divdf3)
c:/altera/13.1/nios2eds/bin/gnu/h-i686-mingw32/bin/../lib/gcc/nios2-elf/4.7.3\libgcc.a(_eq_df.o)
                              c:/altera/13.1/nios2eds/bin/gnu/h-i686-mingw32/bin/../lib/gcc/nios2-elf/4.7.3/../../../../../H-i686-mingw32/nios2-elf/lib\libc.a(lib_a-vfprintf.o) (__eqdf2)
c:/altera/13.1/nios2eds/bin/gnu/h-i686-mingw32/bin/../lib/gcc/nios2-elf/4.7.3\libgcc.a(_ne_df.o)
                              c:/altera/13.1/nios2eds/bin/gnu/h-i686-mingw32/bin/../lib/gcc/nios2-elf/4.7.3/../../../../../H-i686-mingw32/nios2-elf/lib\libc.a(lib_a-vfprintf.o) (__nedf2)
c:/altera/13.1/nios2eds/bin/gnu/h-i686-mingw32/bin/../lib/gcc/nios2-elf/4.7.3\libgcc.a(_gt_df.o)
                              c:/altera/13.1/nios2eds/bin/gnu/h-i686-mingw32/bin/../lib/gcc/nios2-elf/4.7.3/../../../../../H-i686-mingw32/nios2-elf/lib\libc.a(lib_a-dtoa.o) (__gtdf2)
c:/altera/13.1/nios2eds/bin/gnu/h-i686-mingw32/bin/../lib/gcc/nios2-elf/4.7.3\libgcc.a(_ge_df.o)
                              c:/altera/13.1/nios2eds/bin/gnu/h-i686-mingw32/bin/../lib/gcc/nios2-elf/4.7.3/../../../../../H-i686-mingw32/nios2-elf/lib\libc.a(lib_a-dtoa.o) (__gedf2)
c:/altera/13.1/nios2eds/bin/gnu/h-i686-mingw32/bin/../lib/gcc/nios2-elf/4.7.3\libgcc.a(_lt_df.o)
                              c:/altera/13.1/nios2eds/bin/gnu/h-i686-mingw32/bin/../lib/gcc/nios2-elf/4.7.3/../../../../../H-i686-mingw32/nios2-elf/lib\libc.a(lib_a-vfprintf.o) (__ltdf2)
c:/altera/13.1/nios2eds/bin/gnu/h-i686-mingw32/bin/../lib/gcc/nios2-elf/4.7.3\libgcc.a(_si_to_df.o)
                              c:/altera/13.1/nios2eds/bin/gnu/h-i686-mingw32/bin/../lib/gcc/nios2-elf/4.7.3/../../../../../H-i686-mingw32/nios2-elf/lib\libc.a(lib_a-dtoa.o) (__floatsidf)
c:/altera/13.1/nios2eds/bin/gnu/h-i686-mingw32/bin/../lib/gcc/nios2-elf/4.7.3\libgcc.a(_df_to_si.o)
                              c:/altera/13.1/nios2eds/bin/gnu/h-i686-mingw32/bin/../lib/gcc/nios2-elf/4.7.3/../../../../../H-i686-mingw32/nios2-elf/lib\libc.a(lib_a-dtoa.o) (__fixdfsi)
c:/altera/13.1/nios2eds/bin/gnu/h-i686-mingw32/bin/../lib/gcc/nios2-elf/4.7.3\libgcc.a(_thenan_df.o)
                              c:/altera/13.1/nios2eds/bin/gnu/h-i686-mingw32/bin/../lib/gcc/nios2-elf/4.7.3\libgcc.a(_addsub_df.o) (__thenan_df)
c:/altera/13.1/nios2eds/bin/gnu/h-i686-mingw32/bin/../lib/gcc/nios2-elf/4.7.3\libgcc.a(_usi_to_df.o)
                              c:/altera/13.1/nios2eds/bin/gnu/h-i686-mingw32/bin/../lib/gcc/nios2-elf/4.7.3/../../../../../H-i686-mingw32/nios2-elf/lib\libc.a(lib_a-dtoa.o) (__floatunsidf)
c:/altera/13.1/nios2eds/bin/gnu/h-i686-mingw32/bin/../lib/gcc/nios2-elf/4.7.3\libgcc.a(_clz.o)
                              c:/altera/13.1/nios2eds/bin/gnu/h-i686-mingw32/bin/../lib/gcc/nios2-elf/4.7.3\libgcc.a(_udivdi3.o) (__clz_tab)
c:/altera/13.1/nios2eds/bin/gnu/h-i686-mingw32/bin/../lib/gcc/nios2-elf/4.7.3\libgcc.a(_clzsi2.o)
                              c:/altera/13.1/nios2eds/bin/gnu/h-i686-mingw32/bin/../lib/gcc/nios2-elf/4.7.3\libgcc.a(_si_to_df.o) (__clzsi2)
c:/altera/13.1/nios2eds/bin/gnu/h-i686-mingw32/bin/../lib/gcc/nios2-elf/4.7.3\libgcc.a(_pack_df.o)
                              c:/altera/13.1/nios2eds/bin/gnu/h-i686-mingw32/bin/../lib/gcc/nios2-elf/4.7.3\libgcc.a(_addsub_df.o) (__pack_d)
c:/altera/13.1/nios2eds/bin/gnu/h-i686-mingw32/bin/../lib/gcc/nios2-elf/4.7.3\libgcc.a(_unpack_df.o)
                              c:/altera/13.1/nios2eds/bin/gnu/h-i686-mingw32/bin/../lib/gcc/nios2-elf/4.7.3\libgcc.a(_addsub_df.o) (__unpack_d)
c:/altera/13.1/nios2eds/bin/gnu/h-i686-mingw32/bin/../lib/gcc/nios2-elf/4.7.3\libgcc.a(_fpcmp_parts_df.o)
                              c:/altera/13.1/nios2eds/bin/gnu/h-i686-mingw32/bin/../lib/gcc/nios2-elf/4.7.3\libgcc.a(_eq_df.o) (__fpcmp_parts_d)
c:/altera/13.1/nios2eds/bin/gnu/h-i686-mingw32/bin/../lib/gcc/nios2-elf/4.7.3\libgcc.a(_lshrdi3.o)
                              c:/altera/13.1/nios2eds/bin/gnu/h-i686-mingw32/bin/../lib/gcc/nios2-elf/4.7.3\libgcc.a(_pack_df.o) (__lshrdi3)
c:/altera/13.1/nios2eds/bin/gnu/h-i686-mingw32/bin/../lib/gcc/nios2-elf/4.7.3\libgcc.a(_ashldi3.o)
                              c:/altera/13.1/nios2eds/bin/gnu/h-i686-mingw32/bin/../lib/gcc/nios2-elf/4.7.3\libgcc.a(_pack_df.o) (__ashldi3)
../UcosiiBSP_for_cpu_s1/\libucosii_bsp.a(alt_close.o)
                              c:/altera/13.1/nios2eds/bin/gnu/h-i686-mingw32/bin/../lib/gcc/nios2-elf/4.7.3/../../../../../H-i686-mingw32/nios2-elf/lib\libc.a(lib_a-closer.o) (close)
../UcosiiBSP_for_cpu_s1/\libucosii_bsp.a(alt_dev.o)
                              ../UcosiiBSP_for_cpu_s1/\libucosii_bsp.a(alt_close.o) (alt_fd_list)
../UcosiiBSP_for_cpu_s1/\libucosii_bsp.a(alt_errno.o)
                              ../UcosiiBSP_for_cpu_s1/\libucosii_bsp.a(alt_close.o) (alt_errno)
../UcosiiBSP_for_cpu_s1/\libucosii_bsp.a(alt_exit.o)
                              c:/altera/13.1/nios2eds/bin/gnu/h-i686-mingw32/bin/../lib/gcc/nios2-elf/4.7.3/../../../../../H-i686-mingw32/nios2-elf/lib\libc.a(lib_a-exit.o) (_exit)
../UcosiiBSP_for_cpu_s1/\libucosii_bsp.a(alt_fstat.o)
                              c:/altera/13.1/nios2eds/bin/gnu/h-i686-mingw32/bin/../lib/gcc/nios2-elf/4.7.3/../../../../../H-i686-mingw32/nios2-elf/lib\libc.a(lib_a-fstatr.o) (fstat)
../UcosiiBSP_for_cpu_s1/\libucosii_bsp.a(alt_irq_register.o)
                              obj/default/PH_FifoDriver_UCOSII/PH_layer.o (alt_irq_register)
../UcosiiBSP_for_cpu_s1/\libucosii_bsp.a(alt_irq_vars.o)
                              obj/default/PH_FifoDriver_UCOSII/PH_layer.o (alt_irq_active)
../UcosiiBSP_for_cpu_s1/\libucosii_bsp.a(alt_isatty.o)
                              c:/altera/13.1/nios2eds/bin/gnu/h-i686-mingw32/bin/../lib/gcc/nios2-elf/4.7.3/../../../../../H-i686-mingw32/nios2-elf/lib\libc.a(lib_a-isattyr.o) (isatty)
../UcosiiBSP_for_cpu_s1/\libucosii_bsp.a(alt_load.o)
                              ../UcosiiBSP_for_cpu_s1//obj/HAL/src/crt0.o (alt_load)
../UcosiiBSP_for_cpu_s1/\libucosii_bsp.a(alt_lseek.o)
                              c:/altera/13.1/nios2eds/bin/gnu/h-i686-mingw32/bin/../lib/gcc/nios2-elf/4.7.3/../../../../../H-i686-mingw32/nios2-elf/lib\libc.a(lib_a-lseekr.o) (lseek)
../UcosiiBSP_for_cpu_s1/\libucosii_bsp.a(alt_main.o)
                              ../UcosiiBSP_for_cpu_s1//obj/HAL/src/crt0.o (alt_main)
../UcosiiBSP_for_cpu_s1/\libucosii_bsp.a(alt_read.o)
                              c:/altera/13.1/nios2eds/bin/gnu/h-i686-mingw32/bin/../lib/gcc/nios2-elf/4.7.3/../../../../../H-i686-mingw32/nios2-elf/lib\libc.a(lib_a-readr.o) (read)
../UcosiiBSP_for_cpu_s1/\libucosii_bsp.a(alt_release_fd.o)
                              ../UcosiiBSP_for_cpu_s1/\libucosii_bsp.a(alt_close.o) (alt_release_fd)
../UcosiiBSP_for_cpu_s1/\libucosii_bsp.a(alt_sbrk.o)
                              c:/altera/13.1/nios2eds/bin/gnu/h-i686-mingw32/bin/../lib/gcc/nios2-elf/4.7.3/../../../../../H-i686-mingw32/nios2-elf/lib\libc.a(lib_a-sbrkr.o) (sbrk)
../UcosiiBSP_for_cpu_s1/\libucosii_bsp.a(alt_usleep.o)
                              obj/default/NS_Layer/NS_layer.o (usleep)
../UcosiiBSP_for_cpu_s1/\libucosii_bsp.a(alt_write.o)
                              c:/altera/13.1/nios2eds/bin/gnu/h-i686-mingw32/bin/../lib/gcc/nios2-elf/4.7.3/../../../../../H-i686-mingw32/nios2-elf/lib\libc.a(lib_a-writer.o) (write)
../UcosiiBSP_for_cpu_s1/\libucosii_bsp.a(alt_env_lock.o)
                              ../UcosiiBSP_for_cpu_s1/\libucosii_bsp.a(alt_main.o) (alt_envsem)
../UcosiiBSP_for_cpu_s1/\libucosii_bsp.a(alt_malloc_lock.o)
                              c:/altera/13.1/nios2eds/bin/gnu/h-i686-mingw32/bin/../lib/gcc/nios2-elf/4.7.3/../../../../../H-i686-mingw32/nios2-elf/lib\libc.a(lib_a-mallocr.o) (__malloc_lock)
../UcosiiBSP_for_cpu_s1/\libucosii_bsp.a(os_core.o)
                              ../UcosiiBSP_for_cpu_s1/\libucosii_bsp.a(alt_exit.o) (OSRunning)
../UcosiiBSP_for_cpu_s1/\libucosii_bsp.a(os_dbg.o)
                              ../UcosiiBSP_for_cpu_s1/\libucosii_bsp.a(os_core.o) (OSDebugInit)
../UcosiiBSP_for_cpu_s1/\libucosii_bsp.a(os_flag.o)
                              ../UcosiiBSP_for_cpu_s1/\libucosii_bsp.a(os_core.o) (OS_FlagInit)
../UcosiiBSP_for_cpu_s1/\libucosii_bsp.a(os_mem.o)
                              ../UcosiiBSP_for_cpu_s1/\libucosii_bsp.a(os_core.o) (OS_MemInit)
../UcosiiBSP_for_cpu_s1/\libucosii_bsp.a(os_mutex.o)
                              obj/default/MCAPI_Transport/mcapi_trans_nios.o (OSMutexCreate)
../UcosiiBSP_for_cpu_s1/\libucosii_bsp.a(os_q.o)
                              ../UcosiiBSP_for_cpu_s1/\libucosii_bsp.a(os_core.o) (OS_QInit)
../UcosiiBSP_for_cpu_s1/\libucosii_bsp.a(os_sem.o)
                              obj/default/NS_Layer/NS_layer.o (OSSemCreate)
../UcosiiBSP_for_cpu_s1/\libucosii_bsp.a(os_task.o)
                              ../UcosiiBSP_for_cpu_s1/\libucosii_bsp.a(os_core.o) (OSTaskNameSet)
../UcosiiBSP_for_cpu_s1/\libucosii_bsp.a(os_time.o)
                              obj/default/MCAPI_Transport/mcapi_trans_nios.o (OSTimeDly)
../UcosiiBSP_for_cpu_s1/\libucosii_bsp.a(alt_sys_init.o)
                              ../UcosiiBSP_for_cpu_s1/\libucosii_bsp.a(alt_main.o) (alt_irq_init)
../UcosiiBSP_for_cpu_s1/\libucosii_bsp.a(altera_avalon_jtag_uart_fd.o)
                              ../UcosiiBSP_for_cpu_s1/\libucosii_bsp.a(alt_sys_init.o) (altera_avalon_jtag_uart_read_fd)
../UcosiiBSP_for_cpu_s1/\libucosii_bsp.a(altera_avalon_jtag_uart_read.o)
                              ../UcosiiBSP_for_cpu_s1/\libucosii_bsp.a(altera_avalon_jtag_uart_fd.o) (altera_avalon_jtag_uart_read)
../UcosiiBSP_for_cpu_s1/\libucosii_bsp.a(altera_avalon_jtag_uart_write.o)
                              ../UcosiiBSP_for_cpu_s1/\libucosii_bsp.a(altera_avalon_jtag_uart_fd.o) (altera_avalon_jtag_uart_write)
../UcosiiBSP_for_cpu_s1/\libucosii_bsp.a(altera_avalon_timer_sc.o)
                              ../UcosiiBSP_for_cpu_s1/\libucosii_bsp.a(alt_sys_init.o) (alt_avalon_timer_sc_init)
../UcosiiBSP_for_cpu_s1/\libucosii_bsp.a(alt_busy_sleep.o)
                              ../UcosiiBSP_for_cpu_s1/\libucosii_bsp.a(alt_usleep.o) (alt_busy_sleep)
../UcosiiBSP_for_cpu_s1/\libucosii_bsp.a(alt_dcache_flush_all.o)
                              ../UcosiiBSP_for_cpu_s1/\libucosii_bsp.a(alt_load.o) (alt_dcache_flush_all)
../UcosiiBSP_for_cpu_s1/\libucosii_bsp.a(alt_dev_llist_insert.o)
                              ../UcosiiBSP_for_cpu_s1/\libucosii_bsp.a(alt_sys_init.o) (alt_dev_llist_insert)
../UcosiiBSP_for_cpu_s1/\libucosii_bsp.a(alt_icache_flush_all.o)
                              ../UcosiiBSP_for_cpu_s1/\libucosii_bsp.a(alt_load.o) (alt_icache_flush_all)
../UcosiiBSP_for_cpu_s1/\libucosii_bsp.a(alt_io_redirect.o)
                              ../UcosiiBSP_for_cpu_s1/\libucosii_bsp.a(alt_main.o) (alt_io_redirect)
../UcosiiBSP_for_cpu_s1/\libucosii_bsp.a(alt_irq_entry.o)
                              ../UcosiiBSP_for_cpu_s1/\libucosii_bsp.a(alt_irq_register.o) (alt_irq_entry)
../UcosiiBSP_for_cpu_s1/\libucosii_bsp.a(alt_irq_handler.o)
                              ../UcosiiBSP_for_cpu_s1/\libucosii_bsp.a(alt_irq_register.o) (alt_irq_handler)
../UcosiiBSP_for_cpu_s1/\libucosii_bsp.a(alt_open.o)
                              ../UcosiiBSP_for_cpu_s1/\libucosii_bsp.a(alt_io_redirect.o) (open)
../UcosiiBSP_for_cpu_s1/\libucosii_bsp.a(alt_tick.o)
                              ../UcosiiBSP_for_cpu_s1/\libucosii_bsp.a(altera_avalon_timer_sc.o) (alt_tick)
../UcosiiBSP_for_cpu_s1/\libucosii_bsp.a(altera_nios2_qsys_irq.o)
                              ../UcosiiBSP_for_cpu_s1/\libucosii_bsp.a(alt_sys_init.o) (altera_nios2_qsys_irq_init)
../UcosiiBSP_for_cpu_s1/\libucosii_bsp.a(os_cpu_a.o)
                              ../UcosiiBSP_for_cpu_s1/\libucosii_bsp.a(os_core.o) (OSIntCtxSw)
../UcosiiBSP_for_cpu_s1/\libucosii_bsp.a(os_cpu_c.o)
                              ../UcosiiBSP_for_cpu_s1/\libucosii_bsp.a(os_task.o) (OSTaskStkInit)
../UcosiiBSP_for_cpu_s1/\libucosii_bsp.a(alt_exception_entry.o)
                              ../UcosiiBSP_for_cpu_s1/\libucosii_bsp.a(alt_irq_entry.o) (alt_exception)
../UcosiiBSP_for_cpu_s1/\libucosii_bsp.a(alt_find_dev.o)
                              ../UcosiiBSP_for_cpu_s1/\libucosii_bsp.a(alt_open.o) (alt_find_dev)
../UcosiiBSP_for_cpu_s1/\libucosii_bsp.a(alt_find_file.o)
                              ../UcosiiBSP_for_cpu_s1/\libucosii_bsp.a(alt_open.o) (alt_find_file)
../UcosiiBSP_for_cpu_s1/\libucosii_bsp.a(alt_get_fd.o)
                              ../UcosiiBSP_for_cpu_s1/\libucosii_bsp.a(alt_open.o) (alt_get_fd)
../UcosiiBSP_for_cpu_s1/\libucosii_bsp.a(alt_icache_flush.o)
                              ../UcosiiBSP_for_cpu_s1/\libucosii_bsp.a(alt_icache_flush_all.o) (alt_icache_flush)
c:/altera/13.1/nios2eds/bin/gnu/h-i686-mingw32/bin/../lib/gcc/nios2-elf/4.7.3/../../../../../H-i686-mingw32/nios2-elf/lib\libc.a(lib_a-memcmp.o)
                              ../UcosiiBSP_for_cpu_s1/\libucosii_bsp.a(alt_find_dev.o) (memcmp)
c:/altera/13.1/nios2eds/bin/gnu/h-i686-mingw32/bin/../lib/gcc/nios2-elf/4.7.3\libgcc.a(_fixunsdfsi.o)
                              ../UcosiiBSP_for_cpu_s1/\libucosii_bsp.a(os_time.o) (__fixunsdfsi)

Allocating common symbols
Common symbol       size              file

mcapi_db_impl       0x13ea0           obj/default/MCAPI_Transport/mcapi_trans_nios.o
PH_FIFO2_RcvTask_stk
                    0x2000            obj/default/PH_FifoDriver_UCOSII/PH_layer.o
alt_irq             0x100             ../UcosiiBSP_for_cpu_s1/\libucosii_bsp.a(alt_irq_handler.o)
semAlmostFull_fifo_1
                    0x4               obj/default/PH_FifoDriver_UCOSII/PH_layer.o
PH_FIFO1_RcvTask_stk
                    0x2000            obj/default/PH_FifoDriver_UCOSII/PH_layer.o
OSLockNesting       0x1               ../UcosiiBSP_for_cpu_s1/\libucosii_bsp.a(os_core.o)
OSRunning           0x1               ../UcosiiBSP_for_cpu_s1/\libucosii_bsp.a(os_core.o)
node2_recvMSG_from_node1_task_stk
                    0x2000            obj/default/SysTestNode2.o
bridge_base_fifo_2  0x4               obj/default/PH_FifoDriver_UCOSII/PH_layer.o
callIDs             0x20              obj/default/NS_Layer/NS_layer.o
OSIdleCtr           0x4               ../UcosiiBSP_for_cpu_s1/\libucosii_bsp.a(os_core.o)
prio                0x4               obj/default/SysTestNode2.o
OSPrioHighRdy       0x1               ../UcosiiBSP_for_cpu_s1/\libucosii_bsp.a(os_core.o)
errno               0x4               c:/altera/13.1/nios2eds/bin/gnu/h-i686-mingw32/bin/../lib/gcc/nios2-elf/4.7.3/../../../../../H-i686-mingw32/nios2-elf/lib\libc.a(lib_a-int_errno.o)
init_task_stk       0x2000            obj/default/SysTestNode2.o
alt_heapsem         0x4               ../UcosiiBSP_for_cpu_s1/\libucosii_bsp.a(alt_malloc_lock.o)
OSFlagTbl           0x370             ../UcosiiBSP_for_cpu_s1/\libucosii_bsp.a(os_core.o)
node2_recvEP_from_node0
                    0x4               obj/default/SysTestNode2.o
OSPrioCur           0x1               ../UcosiiBSP_for_cpu_s1/\libucosii_bsp.a(os_core.o)
node0_sendEP_to_node1
                    0x4               obj/default/SysTestNode2.o
node0_recvEP_from_node2
                    0x4               obj/default/SysTestNode2.o
node1_sendEP_to_node0
                    0x4               obj/default/SysTestNode2.o
node2_sendEP_to_node1
                    0x4               obj/default/SysTestNode2.o
OSTCBList           0x4               ../UcosiiBSP_for_cpu_s1/\libucosii_bsp.a(os_core.o)
alt_fd_list_lock    0x4               ../UcosiiBSP_for_cpu_s1/\libucosii_bsp.a(alt_dev.o)
OSMemTbl            0xc30             ../UcosiiBSP_for_cpu_s1/\libucosii_bsp.a(os_core.o)
OSTickStepState     0x1               ../UcosiiBSP_for_cpu_s1/\libucosii_bsp.a(os_core.o)
OSTaskStatStk       0x800             ../UcosiiBSP_for_cpu_s1/\libucosii_bsp.a(os_core.o)
node2_recvMSG_from_node0_task_stk
                    0x2000            obj/default/SysTestNode2.o
mutexSend           0x4               obj/default/PH_FifoDriver_UCOSII/PH_layer.o
OSCtxSwCtr          0x4               ../UcosiiBSP_for_cpu_s1/\libucosii_bsp.a(os_core.o)
sem_serviceRequest  0x20              obj/default/NS_Layer/NS_layer.o
OSIdleCtrMax        0x4               ../UcosiiBSP_for_cpu_s1/\libucosii_bsp.a(os_core.o)
OSTCBFreeList       0x4               ../UcosiiBSP_for_cpu_s1/\libucosii_bsp.a(os_core.o)
node1_recvEP_from_node2
                    0x4               obj/default/SysTestNode2.o
node1_recvEP_from_node0
                    0x4               obj/default/SysTestNode2.o
reentMutex          0x4               obj/default/NS_Layer/NS_layer.o
OSCPUUsage          0x1               ../UcosiiBSP_for_cpu_s1/\libucosii_bsp.a(os_core.o)
OSTaskCtr           0x1               ../UcosiiBSP_for_cpu_s1/\libucosii_bsp.a(os_core.o)
DatabaseMutex       0x4               obj/default/MCAPI_Transport/mcapi_trans_nios.o
OSMemFreeList       0x4               ../UcosiiBSP_for_cpu_s1/\libucosii_bsp.a(os_core.o)
node1_sendEP_to_node2
                    0x4               obj/default/SysTestNode2.o
node2_sendMSG_to_node0_task_stk
                    0x2000            obj/default/SysTestNode2.o
OSQTbl              0x1e0             ../UcosiiBSP_for_cpu_s1/\libucosii_bsp.a(os_core.o)
OSTCBHighRdy        0x4               ../UcosiiBSP_for_cpu_s1/\libucosii_bsp.a(os_core.o)
OSQFreeList         0x4               ../UcosiiBSP_for_cpu_s1/\libucosii_bsp.a(os_core.o)
OSRdyGrp            0x1               ../UcosiiBSP_for_cpu_s1/\libucosii_bsp.a(os_core.o)
node2_sendMSG_to_node1_task_stk
                    0x2000            obj/default/SysTestNode2.o
OSRdyTbl            0x6               ../UcosiiBSP_for_cpu_s1/\libucosii_bsp.a(os_core.o)
semAlmostFull_fifo_2
                    0x4               obj/default/PH_FifoDriver_UCOSII/PH_layer.o
bridge_base_fifo_1  0x4               obj/default/PH_FifoDriver_UCOSII/PH_layer.o
node2_recvEP_from_node1
                    0x4               obj/default/SysTestNode2.o
node2_sendEP_to_node0
                    0x4               obj/default/SysTestNode2.o
OSEventFreeList     0x4               ../UcosiiBSP_for_cpu_s1/\libucosii_bsp.a(os_core.o)
node0_recvEP_from_node1
                    0x4               obj/default/SysTestNode2.o
bridge_irq_fifo_1   0x4               obj/default/PH_FifoDriver_UCOSII/PH_layer.o
OSIntNesting        0x1               ../UcosiiBSP_for_cpu_s1/\libucosii_bsp.a(os_core.o)
OSTCBCur            0x4               ../UcosiiBSP_for_cpu_s1/\libucosii_bsp.a(os_core.o)
node0_sendEP_to_node2
                    0x4               obj/default/SysTestNode2.o
OSTime              0x4               ../UcosiiBSP_for_cpu_s1/\libucosii_bsp.a(os_core.o)
OSTaskIdleStk       0x800             ../UcosiiBSP_for_cpu_s1/\libucosii_bsp.a(os_core.o)
serviceRequest      0x1e0             obj/default/NS_Layer/NS_layer.o
OSEventTbl          0xc30             ../UcosiiBSP_for_cpu_s1/\libucosii_bsp.a(os_core.o)
OSTCBTbl            0xd80             ../UcosiiBSP_for_cpu_s1/\libucosii_bsp.a(os_core.o)
OSFlagFreeList      0x4               ../UcosiiBSP_for_cpu_s1/\libucosii_bsp.a(os_core.o)
OSStatRdy           0x1               ../UcosiiBSP_for_cpu_s1/\libucosii_bsp.a(os_core.o)
OSTCBPrioTbl        0xa4              ../UcosiiBSP_for_cpu_s1/\libucosii_bsp.a(os_core.o)
bridge_irq_fifo_2   0x4               obj/default/PH_FifoDriver_UCOSII/PH_layer.o
alt_envsem          0x4               ../UcosiiBSP_for_cpu_s1/\libucosii_bsp.a(alt_env_lock.o)
OSIdleCtrRun        0x4               ../UcosiiBSP_for_cpu_s1/\libucosii_bsp.a(os_core.o)
mcapi_db            0x4               obj/default/MCAPI_Transport/mcapi_trans_nios.o

Memory Configuration

Name             Origin             Length             Attributes
reset            0x00000000         0x00000020
onchip_sram      0x00000020         0x00057fe0
*default*        0x00000000         0xffffffff

Linker script and memory map

LOAD ../UcosiiBSP_for_cpu_s1//obj/HAL/src/crt0.o
LOAD obj/default/MCAPI_Top/mcapi.o
LOAD obj/default/MCAPI_Transport/mcapi_trans_nios.o
LOAD obj/default/NS_Layer/NS_layer.o
LOAD obj/default/PH_FifoDriver_UCOSII/PH_layer.o
LOAD obj/default/SysTestNode2.o
LOAD obj/default/UTILS/util_packet_handling.o
LOAD c:/altera/13.1/nios2eds/bin/gnu/h-i686-mingw32/bin/../lib/gcc/nios2-elf/4.7.3/../../../../../H-i686-mingw32/nios2-elf/lib\libstdc++.a
LOAD c:/altera/13.1/nios2eds/bin/gnu/h-i686-mingw32/bin/../lib/gcc/nios2-elf/4.7.3/../../../../../H-i686-mingw32/nios2-elf/lib\libm.a
LOAD c:/altera/13.1/nios2eds/bin/gnu/h-i686-mingw32/bin/../lib/gcc/nios2-elf/4.7.3\libgcc.a
START GROUP
LOAD c:/altera/13.1/nios2eds/bin/gnu/h-i686-mingw32/bin/../lib/gcc/nios2-elf/4.7.3/../../../../../H-i686-mingw32/nios2-elf/lib\libc.a
LOAD c:/altera/13.1/nios2eds/bin/gnu/h-i686-mingw32/bin/../lib/gcc/nios2-elf/4.7.3\libgcc.a
LOAD ../UcosiiBSP_for_cpu_s1/\libucosii_bsp.a
END GROUP
LOAD c:/altera/13.1/nios2eds/bin/gnu/h-i686-mingw32/bin/../lib/gcc/nios2-elf/4.7.3\libgcc.a
                0x00000000                __alt_mem_onchip_sram = 0x0

.entry          0x00000000       0x20
 *(.entry)
 .entry         0x00000000       0x20 ../UcosiiBSP_for_cpu_s1//obj/HAL/src/crt0.o
                0x00000000                __reset

.exceptions     0x00000020      0x134
                0x00000020                PROVIDE (__ram_exceptions_start, ABSOLUTE (.))
                0x00000020                . = ALIGN (0x20)
 *(.irq)
 *(.exceptions.entry.label)
 .exceptions.entry.label
                0x00000020        0x0 ../UcosiiBSP_for_cpu_s1/\libucosii_bsp.a(alt_irq_entry.o)
                0x00000020                alt_irq_entry
 .exceptions.entry.label
                0x00000020        0x0 ../UcosiiBSP_for_cpu_s1/\libucosii_bsp.a(alt_exception_entry.o)
                0x00000020                alt_exception
 *(.exceptions.entry.user)
 *(.exceptions.entry.ecc_fatal)
 *(.exceptions.entry)
 .exceptions.entry
                0x00000020       0x54 ../UcosiiBSP_for_cpu_s1/\libucosii_bsp.a(alt_exception_entry.o)
 *(.exceptions.irqtest.user)
 *(.exceptions.irqtest)
 .exceptions.irqtest
                0x00000074       0x10 ../UcosiiBSP_for_cpu_s1/\libucosii_bsp.a(alt_irq_entry.o)
 *(.exceptions.irqhandler.user)
 *(.exceptions.irqhandler)
 .exceptions.irqhandler
                0x00000084        0x4 ../UcosiiBSP_for_cpu_s1/\libucosii_bsp.a(alt_irq_entry.o)
 *(.exceptions.irqreturn.user)
 *(.exceptions.irqreturn)
 .exceptions.irqreturn
                0x00000088        0x4 ../UcosiiBSP_for_cpu_s1/\libucosii_bsp.a(alt_irq_entry.o)
 *(.exceptions.notirq.label)
 .exceptions.notirq.label
                0x0000008c        0x0 ../UcosiiBSP_for_cpu_s1/\libucosii_bsp.a(alt_irq_entry.o)
 *(.exceptions.notirq.user)
 *(.exceptions.notirq)
 .exceptions.notirq
                0x0000008c        0x8 ../UcosiiBSP_for_cpu_s1/\libucosii_bsp.a(alt_exception_entry.o)
 *(.exceptions.soft.user)
 *(.exceptions.soft)
 *(.exceptions.unknown.user)
 *(.exceptions.unknown)
 .exceptions.unknown
                0x00000094        0x4 ../UcosiiBSP_for_cpu_s1/\libucosii_bsp.a(alt_exception_entry.o)
 *(.exceptions.exit.label)
 .exceptions.exit.label
                0x00000098        0x0 ../UcosiiBSP_for_cpu_s1/\libucosii_bsp.a(alt_irq_entry.o)
 .exceptions.exit.label
                0x00000098        0x0 ../UcosiiBSP_for_cpu_s1/\libucosii_bsp.a(alt_exception_entry.o)
 *(.exceptions.exit.user)
 *(.exceptions.exit)
 .exceptions.exit
                0x00000098       0x54 ../UcosiiBSP_for_cpu_s1/\libucosii_bsp.a(alt_exception_entry.o)
 *(.exceptions)
 .exceptions    0x000000ec       0x68 ../UcosiiBSP_for_cpu_s1/\libucosii_bsp.a(alt_irq_handler.o)
                0x000000ec                alt_irq_handler
                0x00000154                PROVIDE (__ram_exceptions_end, ABSOLUTE (.))
                0x00000020                PROVIDE (__flash_exceptions_start, LOADADDR (.exceptions))

.text           0x00000154    0x19c20
                0x00000154                PROVIDE (stext, ABSOLUTE (.))
 *(.interp)
 *(.hash)
 *(.dynsym)
 *(.dynstr)
 *(.gnu.version)
 *(.gnu.version_d)
 *(.gnu.version_r)
 *(.rel.init)
 *(.rela.init)
 *(.rel.text .rel.text.* .rel.gnu.linkonce.t.*)
 *(.rela.text .rela.text.* .rela.gnu.linkonce.t.*)
 *(.rel.fini)
 *(.rela.fini)
 *(.rel.rodata .rel.rodata.* .rel.gnu.linkonce.r.*)
 *(.rela.rodata .rela.rodata.* .rela.gnu.linkonce.r.*)
 *(.rel.data .rel.data.* .rel.gnu.linkonce.d.*)
 *(.rela.data .rela.data.* .rela.gnu.linkonce.d.*)
 *(.rel.tdata .rel.tdata.* .rel.gnu.linkonce.td.*)
 *(.rela.tdata .rela.tdata.* .rela.gnu.linkonce.td.*)
 *(.rel.tbss .rel.tbss.* .rel.gnu.linkonce.tb.*)
 *(.rela.tbss .rela.tbss.* .rela.gnu.linkonce.tb.*)
 *(.rel.ctors)
 *(.rela.ctors)
 *(.rel.dtors)
 *(.rela.dtors)
 *(.rel.got)
 *(.rela.got)
 *(.rel.sdata .rel.sdata.* .rel.gnu.linkonce.s.*)
 *(.rela.sdata .rela.sdata.* .rela.gnu.linkonce.s.*)
 *(.rel.sbss .rel.sbss.* .rel.gnu.linkonce.sb.*)
 *(.rela.sbss .rela.sbss.* .rela.gnu.linkonce.sb.*)
 *(.rel.sdata2 .rel.sdata2.* .rel.gnu.linkonce.s2.*)
 *(.rela.sdata2 .rela.sdata2.* .rela.gnu.linkonce.s2.*)
 *(.rel.sbss2 .rel.sbss2.* .rel.gnu.linkonce.sb2.*)
 *(.rela.sbss2 .rela.sbss2.* .rela.gnu.linkonce.sb2.*)
 *(.rel.bss .rel.bss.* .rel.gnu.linkonce.b.*)
 *(.rela.bss .rela.bss.* .rela.gnu.linkonce.b.*)
 *(.rel.plt)
 *(.rela.plt)
 *(.rel.dyn)
 *(.init)
 *(.plt)
 *(.text .stub .text.* .gnu.linkonce.t.*)
 .text          0x00000154       0x3c ../UcosiiBSP_for_cpu_s1//obj/HAL/src/crt0.o
                0x00000154                _start
 .text          0x00000190     0x1e30 obj/default/MCAPI_Top/mcapi.o
                0x00000190                mcapi_display_status
                0x000005ac                mcapi_set_debug_level
                0x000005b0                mcapi_display_state
                0x000005b4                mcapi_initialize
                0x00000654                mcapi_node_init_attributes
                0x0000069c                mcapi_node_set_attribute
                0x000006ec                mcapi_node_get_attribute
                0x00000740                mcapi_finalize
                0x0000077c                mcapi_domain_id_get
                0x000007c8                mcapi_node_id_get
                0x00000814                mcapi_endpoint_create
                0x000008e4                mcapi_endpoint_get_i
                0x00000990                mcapi_endpoint_get
                0x00000a28                mcapi_endpoint_delete
                0x00000abc                mcapi_endpoint_get_attribute
                0x00000b3c                mcapi_msg_send_i
                0x00000bfc                mcapi_msg_send
                0x00000cbc                mcapi_msg_recv_i
                0x00000d88                mcapi_msg_recv
                0x00000e38                mcapi_msg_available
                0x00000e9c                mcapi_pktchan_connect_i
                0x00000f50                mcapi_pktchan_recv_open_i
                0x00001020                mcapi_pktchan_send_open_i
                0x000010f0                mcapi_pktchan_send_i
                0x0000118c                mcapi_pktchan_send
                0x0000120c                mcapi_pktchan_recv_i
                0x000012c4                mcapi_pktchan_recv
                0x00001374                mcapi_pktchan_available
                0x000013d8                mcapi_pktchan_release
                0x00001414                mcapi_pktchan_recv_close_i
                0x000014b4                mcapi_pktchan_send_close_i
                0x00001554                mcapi_sclchan_connect_i
                0x00001634                mcapi_sclchan_recv_open_i
                0x0000170c                mcapi_sclchan_send_open_i
                0x000017e4                mcapi_sclchan_send_uint64
                0x00001858                mcapi_sclchan_send_uint32
                0x000018f0                mcapi_sclchan_send_uint16
                0x00001968                mcapi_sclchan_send_uint8
                0x000019e8                mcapi_sclchan_recv_uint64
                0x00001a60                mcapi_sclchan_recv_uint32
                0x00001ad4                mcapi_sclchan_recv_uint16
                0x00001b48                mcapi_sclchan_recv_uint8
                0x00001bc4                mcapi_sclchan_available
                0x00001c28                mcapi_sclchan_recv_close_i
                0x00001cc8                mcapi_sclchan_send_close_i
                0x00001d68                mcapi_test
                0x00001e04                mcapi_wait
                0x00001ec8                mcapi_wait_any
                0x00001f64                mcapi_cancel
 .text          0x00001fc0     0x67b0 obj/default/MCAPI_Transport/mcapi_trans_nios.o
                0x00001fc0                MCAPI_ASSERT
                0x00001fe4                mca_dprintf
                0x00001ff8                mcapi_trans_remove_request_have_lock
                0x000020b8                mcapi_trans_reserve_request_have_lock
                0x00002154                mcapi_trans_init_indexed_array_have_lock
                0x00002200                mcapi_trans_initialize_database
                0x00002248                mcapi_trans_node_init_attributes
                0x0000226c                mcapi_trans_node_set_attribute
                0x000022bc                mcapi_trans_valid_port
                0x000022c4                mcapi_trans_valid_node
                0x000022cc                mcapi_trans_valid_domain
                0x000022d4                mcapi_trans_compatible_endpoint_attributes
                0x000022dc                mcapi_trans_valid_priority
                0x000022e4                mcapi_trans_valid_status_param
                0x000022ec                mcapi_trans_valid_version_param
                0x000022f4                mcapi_trans_valid_buffer_param
                0x000022fc                mcapi_trans_valid_size_param
                0x00002304                mcapi_trans_endpoint_set_attribute
                0x00002320                mcapi_trans_signal_handler
                0x00002324                mcapi_trans_decode_request_handle
                0x00002348                mcapi_trans_valid_request_handle
                0x00002364                mcapi_trans_recv_have_lock_
                0x000024f4                mcapi_trans_open_channel_have_lock
                0x00002528                mcapi_trans_close_channel_have_lock
                0x00002558                mcapi_trans_access_database_pre
                0x000025b0                mcapi_trans_access_database_post
                0x00002604                mcapi_trans_yield_have_lock
                0x00002640                mcapi_trans_pktchan_free
                0x000026c0                mcapi_trans_finalize
                0x0000272c                mcapi_trans_add_domain_and_node
                0x00002860                mcapi_trans_encode_handle
                0x000028e0                mcapi_trans_endpoint_get_
                0x00002a48                mcapi_trans_endpoint_get_have_lock
                0x00002af4                check_get_endpt_request_have_lock
                0x00002cf8                mcapi_trans_endpoint_create_
                0x00002e58                mcapi_trans_decode_handle
                0x00002ea4                mcapi_trans_connect_channel_have_lock
                0x00003004                cancel_receive_request_have_lock
                0x000031dc                mcapi_trans_cancel
                0x000032f0                mcapi_trans_display_state_have_lock
                0x0000393c                mcapi_trans_display_state
                0x0000399c                setup_request_have_lock
                0x00003c14                mcapi_trans_endpoint_get_i
                0x00003d88                mcapi_trans_sclchan_available_i
                0x00003e34                mcapi_trans_pktchan_available
                0x00003ee0                mcapi_trans_msg_available
                0x00003f8c                mcapi_trans_endpoint_delete
                0x00004058                mcapi_trans_endpoint_get_attribute
                0x00004158                mcapi_trans_connected
                0x00004200                mcapi_trans_valid_sclchan_recv_handle
                0x000042a8                mcapi_trans_valid_sclchan_send_handle
                0x00004350                mcapi_trans_valid_pktchan_recv_handle
                0x000043f8                mcapi_trans_valid_pktchan_send_handle
                0x000044a0                mcapi_trans_channel_connected
                0x00004570                mcapi_trans_endpoint_channel_isopen
                0x00004638                mcapi_trans_sclchan_send_isopen
                0x0000463c                mcapi_trans_sclchan_recv_isopen
                0x00004640                mcapi_trans_pktchan_send_isopen
                0x00004644                mcapi_trans_pktchan_recv_isopen
                0x00004648                check_close_channel_request_have_lock
                0x00004790                check_open_channel_request_have_lock
                0x000048ac                mcapi_trans_valid_endpoints
                0x0000494c                mcapi_trans_valid_endpoint
                0x000049f4                mcapi_trans_recv_endpoint
                0x00004aa8                mcapi_trans_send_endpoint
                0x00004b5c                mcapi_trans_channel_type
                0x00004c08                mcapi_trans_sclchan_connect_i
                0x00004d30                mcapi_trans_pktchan_connect_i
                0x00004e58                mcapi_trans_sclchan_send_close_i
                0x00005034                mcapi_trans_sclchan_send_open_i
                0x00005220                mcapi_trans_sclchan_recv_open_i
                0x0000540c                mcapi_trans_pktchan_send_close_i
                0x000055e8                mcapi_trans_pktchan_send_open_i
                0x000057d0                mcapi_trans_pktchan_recv_open_i
                0x000059b8                mcapi_trans_get_database_indices
                0x00005a10                mcapi_trans_initialize
                0x00005b28                mcapi_trans_whoami
                0x00005b60                mcapi_trans_endpoint_create
                0x00005cd0                mcapi_trans_num_endpoints
                0x00005d7c                mcapi_trans_initialized
                0x00005de8                mcapi_trans_endpoint_exists_
                0x00005e90                mcapi_trans_endpoint_exists
                0x00005f6c                mcapi_trans_node_get_attribute
                0x0000615c                mcapi_trans_get_domain_num
                0x00006184                mcapi_trans_get_node_num
                0x000061a8                mcapi_trans_endpoint_isowner
                0x00006280                print_queue
                0x00006594                mcapi_trans_push_queue
                0x00006624                mcapi_trans_compact_queue
                0x000066e8                mcapi_trans_pop_queue
                0x00006810                check_receive_request_have_lock
                0x00006a48                mcapi_trans_test_i
                0x00006c20                mcapi_trans_wait_any
                0x00006cf8                mcapi_trans_wait
                0x00006da8                mcapi_trans_endpoint_get
                0x00006dfc                mcapi_trans_send_have_lock
                0x00006fbc                mcapi_trans_sclchan_send
                0x00007158                mcapi_trans_pktchan_send_i
                0x00007438                mcapi_trans_pktchan_send
                0x000074bc                mcapi_trans_msg_send_i
                0x000077b8                mcapi_trans_msg_send
                0x000078a8                mcapi_trans_send
                0x00007a84                mcapi_trans_empty_queue
                0x00007b14                mcapi_trans_recv_have_lock
                0x00007c7c                mcapi_trans_sclchan_recv
                0x00007d54                mcapi_trans_pktchan_recv_i
                0x00007ea4                mcapi_trans_pktchan_recv
                0x00007f28                mcapi_trans_msg_recv_i
                0x000080d4                mcapi_trans_msg_recv
                0x0000816c                mcapi_trans_sclchan_recv_close_i
                0x00008454                mcapi_trans_pktchan_recv_close_i
                0x00008734                mcapi_trans_full_queue
 .text.unlikely
                0x00008770       0x30 obj/default/MCAPI_Transport/mcapi_trans_nios.o
 .text          0x000087a0      0xe74 obj/default/NS_Layer/NS_layer.o
                0x000087a0                getIndex
                0x000087cc                NS_get_serviceRequestID
                0x00008890                NS_getCallID
                0x000089a8                NS_releaseCallID
                0x00008a80                NS_layer_exit
                0x00008a88                NS_init
                0x00008b9c                NS_getRemoteEndpoint_request
                0x00008dcc                NS_getRemoteEndpoint_response
                0x00008f08                NS_endpointChannelIsopen_request
                0x00009108                NS_endpointChannelIsopen_response
                0x000091f4                NS_sendDataToRemote_request
                0x0000936c                NS_sendDataToRemote_indication
                0x00009470                NS_unlock_waiting_request
                0x00009518                NS_layer_receive
 .text          0x00009614      0x680 obj/default/PH_FifoDriver_UCOSII/PH_layer.o
                0x00009614                PH_FIFO2_RcvTask
                0x000096c0                PH_FIFO1_RcvTask
                0x0000976c                PH_FIFO2_ISR
                0x000097e0                PH_FIFO1_ISR
                0x00009854                PH_send_request
                0x000099ec                cpu_fifo_bridge_init
                0x00009a14                PH_init
 .text          0x00009c94      0x810 obj/default/SysTestNode2.o
                0x00009c94                sys_stop
                0x00009c98                check_status
                0x00009ce4                init_task
                0x00009f5c                node2_sendMSG_to_node1_task
                0x0000a0a4                node2_recvMSG_from_node1_task
                0x0000a1f8                node2_recvMSG_from_node0_task
                0x0000a34c                node2_sendMSG_to_node0_task
 .text.startup  0x0000a4a4       0xa8 obj/default/SysTestNode2.o
                0x0000a4a4                main
 .text          0x0000a54c      0x33c obj/default/UTILS/util_packet_handling.o
                0x0000a54c                pack_add_8
                0x0000a558                pack_add_u8
                0x0000a564                pack_add_16
                0x0000a578                pack_add_u16
                0x0000a58c                pack_add_32
                0x0000a5b0                pack_add_u32
                0x0000a5d4                pack_add_64
                0x0000a614                pack_add_u64
                0x0000a654                pack_add_flt
                0x0000a688                pack_add_adr
                0x0000a6ac                pack_get_8
                0x0000a6b8                pack_get_u8
                0x0000a6c4                pack_get_16
                0x0000a6e8                pack_get_u16
                0x0000a70c                pack_get_32
                0x0000a740                pack_get_u32
                0x0000a774                pack_get_64
                0x0000a7cc                pack_get_u64
                0x0000a824                pack_get_flt
                0x0000a858                pack_get_adr
 .text          0x0000a888      0x130 c:/altera/13.1/nios2eds/bin/gnu/h-i686-mingw32/bin/../lib/gcc/nios2-elf/4.7.3\libgcc.a(lib2-divmod.o)
                0x0000a8fc                __divsi3
                0x0000a94c                __modsi3
                0x0000a9a8                __udivsi3
                0x0000a9b0                __umodsi3
 .text          0x0000a9b8       0x38 c:/altera/13.1/nios2eds/bin/gnu/h-i686-mingw32/bin/../lib/gcc/nios2-elf/4.7.3/../../../../../H-i686-mingw32/nios2-elf/lib\libc.a(lib_a-exit.o)
                0x0000a9b8                exit
 .text          0x0000a9f0      0x218 c:/altera/13.1/nios2eds/bin/gnu/h-i686-mingw32/bin/../lib/gcc/nios2-elf/4.7.3/../../../../../H-i686-mingw32/nios2-elf/lib\libc.a(lib_a-fflush.o)
                0x0000a9f0                _fflush_r
                0x0000abd8                fflush
 .text          0x0000ac08      0x2d8 c:/altera/13.1/nios2eds/bin/gnu/h-i686-mingw32/bin/../lib/gcc/nios2-elf/4.7.3/../../../../../H-i686-mingw32/nios2-elf/lib\libc.a(lib_a-findfp.o)
                0x0000ac18                _cleanup_r
                0x0000ac24                __sfmoreglue
                0x0000ac88                _cleanup
                0x0000ac98                __sinit
                0x0000ada4                __sfp
                0x0000aea0                __sfp_lock_acquire
                0x0000aea4                __sfp_lock_release
                0x0000aea8                __sinit_lock_acquire
                0x0000aeac                __sinit_lock_release
                0x0000aeb0                __fp_lock_all
                0x0000aec8                __fp_unlock_all
 .text          0x0000aee0       0x4c c:/altera/13.1/nios2eds/bin/gnu/h-i686-mingw32/bin/../lib/gcc/nios2-elf/4.7.3/../../../../../H-i686-mingw32/nios2-elf/lib\libc.a(lib_a-fprintf.o)
                0x0000aee0                _fprintf_r
                0x0000af08                fprintf
 .text          0x0000af2c       0x90 c:/altera/13.1/nios2eds/bin/gnu/h-i686-mingw32/bin/../lib/gcc/nios2-elf/4.7.3/../../../../../H-i686-mingw32/nios2-elf/lib\libc.a(lib_a-fputs.o)
                0x0000af2c                _fputs_r
                0x0000afa0                fputs
 .text          0x0000afbc      0x4e4 c:/altera/13.1/nios2eds/bin/gnu/h-i686-mingw32/bin/../lib/gcc/nios2-elf/4.7.3/../../../../../H-i686-mingw32/nios2-elf/lib\libc.a(lib_a-fvwrite.o)
                0x0000afbc                __sfvwrite_r
 .text          0x0000b4a0      0x160 c:/altera/13.1/nios2eds/bin/gnu/h-i686-mingw32/bin/../lib/gcc/nios2-elf/4.7.3/../../../../../H-i686-mingw32/nios2-elf/lib\libc.a(lib_a-fwalk.o)
                0x0000b4a0                _fwalk
                0x0000b548                _fwalk_reent
 .text          0x0000b600        0x0 c:/altera/13.1/nios2eds/bin/gnu/h-i686-mingw32/bin/../lib/gcc/nios2-elf/4.7.3/../../../../../H-i686-mingw32/nios2-elf/lib\libc.a(lib_a-impure.o)
 .text          0x0000b600      0x784 c:/altera/13.1/nios2eds/bin/gnu/h-i686-mingw32/bin/../lib/gcc/nios2-elf/4.7.3/../../../../../H-i686-mingw32/nios2-elf/lib\libc.a(lib_a-mallocr.o)
                0x0000b600                _malloc_r
 .text          0x0000bd84       0xf8 c:/altera/13.1/nios2eds/bin/gnu/h-i686-mingw32/bin/../lib/gcc/nios2-elf/4.7.3/../../../../../H-i686-mingw32/nios2-elf/lib\libc.a(lib_a-memchr.o)
                0x0000bd84                memchr
 .text          0x0000be7c       0xf8 c:/altera/13.1/nios2eds/bin/gnu/h-i686-mingw32/bin/../lib/gcc/nios2-elf/4.7.3/../../../../../H-i686-mingw32/nios2-elf/lib\libc.a(lib_a-memcpy.o)
                0x0000be7c                memcpy
 .text          0x0000bf74      0x128 c:/altera/13.1/nios2eds/bin/gnu/h-i686-mingw32/bin/../lib/gcc/nios2-elf/4.7.3/../../../../../H-i686-mingw32/nios2-elf/lib\libc.a(lib_a-memmove.o)
                0x0000bf74                memmove
 .text          0x0000c09c       0xdc c:/altera/13.1/nios2eds/bin/gnu/h-i686-mingw32/bin/../lib/gcc/nios2-elf/4.7.3/../../../../../H-i686-mingw32/nios2-elf/lib\libc.a(lib_a-memset.o)
                0x0000c09c                memset
 .text          0x0000c178       0x68 c:/altera/13.1/nios2eds/bin/gnu/h-i686-mingw32/bin/../lib/gcc/nios2-elf/4.7.3/../../../../../H-i686-mingw32/nios2-elf/lib\libc.a(lib_a-printf.o)
                0x0000c178                _printf_r
                0x0000c1a4                printf
 .text          0x0000c1e0       0x98 c:/altera/13.1/nios2eds/bin/gnu/h-i686-mingw32/bin/../lib/gcc/nios2-elf/4.7.3/../../../../../H-i686-mingw32/nios2-elf/lib\libc.a(lib_a-puts.o)
                0x0000c1e0                _puts_r
                0x0000c264                puts
 .text          0x0000c278       0x7c c:/altera/13.1/nios2eds/bin/gnu/h-i686-mingw32/bin/../lib/gcc/nios2-elf/4.7.3/../../../../../H-i686-mingw32/nios2-elf/lib\libc.a(lib_a-rand.o)
                0x0000c278                srand
                0x0000c290                rand
 .text          0x0000c2f4      0x5fc c:/altera/13.1/nios2eds/bin/gnu/h-i686-mingw32/bin/../lib/gcc/nios2-elf/4.7.3/../../../../../H-i686-mingw32/nios2-elf/lib\libc.a(lib_a-reallocr.o)
                0x0000c2f4                _realloc_r
 .text          0x0000c8f0       0x64 c:/altera/13.1/nios2eds/bin/gnu/h-i686-mingw32/bin/../lib/gcc/nios2-elf/4.7.3/../../../../../H-i686-mingw32/nios2-elf/lib\libc.a(lib_a-sbrkr.o)
                0x0000c8f0                _sbrk_r
 .text          0x0000c954      0x140 c:/altera/13.1/nios2eds/bin/gnu/h-i686-mingw32/bin/../lib/gcc/nios2-elf/4.7.3/../../../../../H-i686-mingw32/nios2-elf/lib\libc.a(lib_a-stdio.o)
                0x0000c954                __sread
                0x0000c9a8                __swrite
                0x0000ca30                __sseek
                0x0000ca8c                __sclose
 .text          0x0000ca94       0x94 c:/altera/13.1/nios2eds/bin/gnu/h-i686-mingw32/bin/../lib/gcc/nios2-elf/4.7.3/../../../../../H-i686-mingw32/nios2-elf/lib\libc.a(lib_a-strcpy.o)
                0x0000ca94                strcpy
 .text          0x0000cb28       0x8c c:/altera/13.1/nios2eds/bin/gnu/h-i686-mingw32/bin/../lib/gcc/nios2-elf/4.7.3/../../../../../H-i686-mingw32/nios2-elf/lib\libc.a(lib_a-strlen.o)
                0x0000cb28                strlen
 .text          0x0000cbb4     0x1e50 c:/altera/13.1/nios2eds/bin/gnu/h-i686-mingw32/bin/../lib/gcc/nios2-elf/4.7.3/../../../../../H-i686-mingw32/nios2-elf/lib\libc.a(lib_a-vfprintf.o)
                0x0000cbe8                ___vfprintf_internal_r
                0x0000e9e0                __vfprintf_internal
 .text          0x0000ea04       0x6c c:/altera/13.1/nios2eds/bin/gnu/h-i686-mingw32/bin/../lib/gcc/nios2-elf/4.7.3/../../../../../H-i686-mingw32/nios2-elf/lib\libc.a(lib_a-writer.o)
                0x0000ea04                _write_r
 .text          0x0000ea70      0x174 c:/altera/13.1/nios2eds/bin/gnu/h-i686-mingw32/bin/../lib/gcc/nios2-elf/4.7.3/../../../../../H-i686-mingw32/nios2-elf/lib\libc.a(lib_a-wsetup.o)
                0x0000ea70                __swsetup_r
 .text          0x0000ebe4      0x1a0 c:/altera/13.1/nios2eds/bin/gnu/h-i686-mingw32/bin/../lib/gcc/nios2-elf/4.7.3/../../../../../H-i686-mingw32/nios2-elf/lib\libc.a(lib_a-__call_atexit.o)
                0x0000ebe4                __call_exitprocs
 .text          0x0000ed84       0x64 c:/altera/13.1/nios2eds/bin/gnu/h-i686-mingw32/bin/../lib/gcc/nios2-elf/4.7.3/../../../../../H-i686-mingw32/nios2-elf/lib\libc.a(lib_a-closer.o)
                0x0000ed84                _close_r
 .text          0x0000ede8     0x1824 c:/altera/13.1/nios2eds/bin/gnu/h-i686-mingw32/bin/../lib/gcc/nios2-elf/4.7.3/../../../../../H-i686-mingw32/nios2-elf/lib\libc.a(lib_a-dtoa.o)
                0x0000eff0                _dtoa_r
 .text          0x0001060c      0x150 c:/altera/13.1/nios2eds/bin/gnu/h-i686-mingw32/bin/../lib/gcc/nios2-elf/4.7.3/../../../../../H-i686-mingw32/nios2-elf/lib\libc.a(lib_a-fclose.o)
                0x0001060c                _fclose_r
                0x00010748                fclose
 .text          0x0001075c      0x40c c:/altera/13.1/nios2eds/bin/gnu/h-i686-mingw32/bin/../lib/gcc/nios2-elf/4.7.3/../../../../../H-i686-mingw32/nios2-elf/lib\libc.a(lib_a-freer.o)
                0x0001075c                _malloc_trim_r
                0x00010898                _free_r
 .text          0x00010b68        0x0 c:/altera/13.1/nios2eds/bin/gnu/h-i686-mingw32/bin/../lib/gcc/nios2-elf/4.7.3/../../../../../H-i686-mingw32/nios2-elf/lib\libc.a(lib_a-int_errno.o)
 .text          0x00010b68       0xdc c:/altera/13.1/nios2eds/bin/gnu/h-i686-mingw32/bin/../lib/gcc/nios2-elf/4.7.3/../../../../../H-i686-mingw32/nios2-elf/lib\libc.a(lib_a-locale.o)
                0x00010b68                _setlocale_r
                0x00010c04                __locale_charset
                0x00010c10                _localeconv_r
                0x00010c1c                setlocale
                0x00010c38                localeconv
 .text          0x00010c44       0x6c c:/altera/13.1/nios2eds/bin/gnu/h-i686-mingw32/bin/../lib/gcc/nios2-elf/4.7.3/../../../../../H-i686-mingw32/nios2-elf/lib\libc.a(lib_a-lseekr.o)
                0x00010c44                _lseek_r
 .text          0x00010cb0      0x1a8 c:/altera/13.1/nios2eds/bin/gnu/h-i686-mingw32/bin/../lib/gcc/nios2-elf/4.7.3/../../../../../H-i686-mingw32/nios2-elf/lib\libc.a(lib_a-makebuf.o)
                0x00010cb0                __smakebuf_r
 .text          0x00010e58      0xfa8 c:/altera/13.1/nios2eds/bin/gnu/h-i686-mingw32/bin/../lib/gcc/nios2-elf/4.7.3/../../../../../H-i686-mingw32/nios2-elf/lib\libc.a(lib_a-mprec.o)
                0x00010e58                _Balloc
                0x00010f00                _Bfree
                0x00010f28                __multadd
                0x0001103c                __s2b
                0x00011140                __hi0bits
                0x000111a8                __lo0bits
                0x00011258                __i2b
                0x00011294                __multiply
                0x00011474                __pow5mult
                0x000115a0                __lshift
                0x000116fc                __mcmp
                0x00011754                __mdiff
                0x000118fc                __ulp
                0x0001195c                __b2d
                0x00011aa4                __d2b
                0x00011be8                __ratio
                0x00011c8c                _mprec_log10
                0x00011d00                __copybits
                0x00011d7c                __any_on
 .text          0x00011e00       0x6c c:/altera/13.1/nios2eds/bin/gnu/h-i686-mingw32/bin/../lib/gcc/nios2-elf/4.7.3/../../../../../H-i686-mingw32/nios2-elf/lib\libc.a(lib_a-readr.o)
                0x00011e00                _read_r
 .text          0x00011e6c       0x38 c:/altera/13.1/nios2eds/bin/gnu/h-i686-mingw32/bin/../lib/gcc/nios2-elf/4.7.3/../../../../../H-i686-mingw32/nios2-elf/lib\libc.a(lib_a-s_isinfd.o)
                0x00011e6c                __isinfd
 .text          0x00011ea4       0x2c c:/altera/13.1/nios2eds/bin/gnu/h-i686-mingw32/bin/../lib/gcc/nios2-elf/4.7.3/../../../../../H-i686-mingw32/nios2-elf/lib\libc.a(lib_a-s_isnand.o)
                0x00011ea4                __isnand
 .text          0x00011ed0       0xa4 c:/altera/13.1/nios2eds/bin/gnu/h-i686-mingw32/bin/../lib/gcc/nios2-elf/4.7.3/../../../../../H-i686-mingw32/nios2-elf/lib\libc.a(lib_a-strcmp.o)
                0x00011ed0                strcmp
 .text          0x00011f74       0xbc c:/altera/13.1/nios2eds/bin/gnu/h-i686-mingw32/bin/../lib/gcc/nios2-elf/4.7.3/../../../../../H-i686-mingw32/nios2-elf/lib\libc.a(lib_a-callocr.o)
                0x00011f74                _calloc_r
 .text          0x00012030       0x68 c:/altera/13.1/nios2eds/bin/gnu/h-i686-mingw32/bin/../lib/gcc/nios2-elf/4.7.3/../../../../../H-i686-mingw32/nios2-elf/lib\libc.a(lib_a-fstatr.o)
                0x00012030                _fstat_r
 .text          0x00012098       0x64 c:/altera/13.1/nios2eds/bin/gnu/h-i686-mingw32/bin/../lib/gcc/nios2-elf/4.7.3/../../../../../H-i686-mingw32/nios2-elf/lib\libc.a(lib_a-isattyr.o)
                0x00012098                _isatty_r
 .text          0x000120fc       0x60 c:/altera/13.1/nios2eds/bin/gnu/h-i686-mingw32/bin/../lib/gcc/nios2-elf/4.7.3\libgcc.a(_muldi3.o)
                0x000120fc                __muldi3
 .text          0x0001215c      0x5c8 c:/altera/13.1/nios2eds/bin/gnu/h-i686-mingw32/bin/../lib/gcc/nios2-elf/4.7.3\libgcc.a(_udivdi3.o)
                0x0001215c                __udivdi3
 .text          0x00012724      0x58c c:/altera/13.1/nios2eds/bin/gnu/h-i686-mingw32/bin/../lib/gcc/nios2-elf/4.7.3\libgcc.a(_umoddi3.o)
                0x00012724                __umoddi3
 .text          0x00012cb0      0x408 c:/altera/13.1/nios2eds/bin/gnu/h-i686-mingw32/bin/../lib/gcc/nios2-elf/4.7.3\libgcc.a(_addsub_df.o)
                0x00013004                __adddf3
                0x00013058                __subdf3
 .text          0x000130b8      0x2e4 c:/altera/13.1/nios2eds/bin/gnu/h-i686-mingw32/bin/../lib/gcc/nios2-elf/4.7.3\libgcc.a(_mul_df.o)
                0x000130b8                __muldf3
 .text          0x0001339c      0x1b4 c:/altera/13.1/nios2eds/bin/gnu/h-i686-mingw32/bin/../lib/gcc/nios2-elf/4.7.3\libgcc.a(_div_df.o)
                0x0001339c                __divdf3
 .text          0x00013550       0x5c c:/altera/13.1/nios2eds/bin/gnu/h-i686-mingw32/bin/../lib/gcc/nios2-elf/4.7.3\libgcc.a(_eq_df.o)
                0x00013550                __eqdf2
 .text          0x000135ac       0x5c c:/altera/13.1/nios2eds/bin/gnu/h-i686-mingw32/bin/../lib/gcc/nios2-elf/4.7.3\libgcc.a(_ne_df.o)
                0x000135ac                __nedf2
 .text          0x00013608       0x64 c:/altera/13.1/nios2eds/bin/gnu/h-i686-mingw32/bin/../lib/gcc/nios2-elf/4.7.3\libgcc.a(_gt_df.o)
                0x00013608                __gtdf2
 .text          0x0001366c       0x64 c:/altera/13.1/nios2eds/bin/gnu/h-i686-mingw32/bin/../lib/gcc/nios2-elf/4.7.3\libgcc.a(_ge_df.o)
                0x0001366c                __gedf2
 .text          0x000136d0       0x5c c:/altera/13.1/nios2eds/bin/gnu/h-i686-mingw32/bin/../lib/gcc/nios2-elf/4.7.3\libgcc.a(_lt_df.o)
                0x000136d0                __ltdf2
 .text          0x0001372c       0xd4 c:/altera/13.1/nios2eds/bin/gnu/h-i686-mingw32/bin/../lib/gcc/nios2-elf/4.7.3\libgcc.a(_si_to_df.o)
                0x0001372c                __floatsidf
 .text          0x00013800       0xd4 c:/altera/13.1/nios2eds/bin/gnu/h-i686-mingw32/bin/../lib/gcc/nios2-elf/4.7.3\libgcc.a(_df_to_si.o)
                0x00013800                __fixdfsi
 .text          0x000138d4        0x0 c:/altera/13.1/nios2eds/bin/gnu/h-i686-mingw32/bin/../lib/gcc/nios2-elf/4.7.3\libgcc.a(_thenan_df.o)
 .text          0x000138d4      0x11c c:/altera/13.1/nios2eds/bin/gnu/h-i686-mingw32/bin/../lib/gcc/nios2-elf/4.7.3\libgcc.a(_usi_to_df.o)
                0x000138d4                __floatunsidf
 .text          0x000139f0        0x0 c:/altera/13.1/nios2eds/bin/gnu/h-i686-mingw32/bin/../lib/gcc/nios2-elf/4.7.3\libgcc.a(_clz.o)
 .text          0x000139f0       0xac c:/altera/13.1/nios2eds/bin/gnu/h-i686-mingw32/bin/../lib/gcc/nios2-elf/4.7.3\libgcc.a(_clzsi2.o)
                0x000139f0                __clzsi2
 .text          0x00013a9c      0x224 c:/altera/13.1/nios2eds/bin/gnu/h-i686-mingw32/bin/../lib/gcc/nios2-elf/4.7.3\libgcc.a(_pack_df.o)
                0x00013a9c                __pack_d
 .text          0x00013cc0      0x104 c:/altera/13.1/nios2eds/bin/gnu/h-i686-mingw32/bin/../lib/gcc/nios2-elf/4.7.3\libgcc.a(_unpack_df.o)
                0x00013cc0                __unpack_d
 .text          0x00013dc4       0xd0 c:/altera/13.1/nios2eds/bin/gnu/h-i686-mingw32/bin/../lib/gcc/nios2-elf/4.7.3\libgcc.a(_fpcmp_parts_df.o)
                0x00013dc4                __fpcmp_parts_d
 .text          0x00013e94       0x44 c:/altera/13.1/nios2eds/bin/gnu/h-i686-mingw32/bin/../lib/gcc/nios2-elf/4.7.3\libgcc.a(_lshrdi3.o)
                0x00013e94                __lshrdi3
 .text          0x00013ed8       0x44 c:/altera/13.1/nios2eds/bin/gnu/h-i686-mingw32/bin/../lib/gcc/nios2-elf/4.7.3\libgcc.a(_ashldi3.o)
                0x00013ed8                __ashldi3
 .text          0x00013f1c       0xc4 ../UcosiiBSP_for_cpu_s1/\libucosii_bsp.a(alt_close.o)
                0x00013f1c                close
 .text          0x00013fe0        0x8 ../UcosiiBSP_for_cpu_s1/\libucosii_bsp.a(alt_dev.o)
 .text          0x00013fe8        0x0 ../UcosiiBSP_for_cpu_s1/\libucosii_bsp.a(alt_errno.o)
 .text          0x00013fe8       0x20 ../UcosiiBSP_for_cpu_s1/\libucosii_bsp.a(alt_exit.o)
                0x00013fe8                _exit
 .text          0x00014008       0x80 ../UcosiiBSP_for_cpu_s1/\libucosii_bsp.a(alt_fstat.o)
                0x00014008                fstat
 .text          0x00014088       0x88 ../UcosiiBSP_for_cpu_s1/\libucosii_bsp.a(alt_irq_register.o)
                0x00014088                alt_irq_register
 .text          0x00014110        0x0 ../UcosiiBSP_for_cpu_s1/\libucosii_bsp.a(alt_irq_vars.o)
 .text          0x00014110       0x80 ../UcosiiBSP_for_cpu_s1/\libucosii_bsp.a(alt_isatty.o)
                0x00014110                isatty
 .text          0x00014190      0x104 ../UcosiiBSP_for_cpu_s1/\libucosii_bsp.a(alt_load.o)
                0x00014190                alt_load
 .text          0x00014294       0x8c ../UcosiiBSP_for_cpu_s1/\libucosii_bsp.a(alt_lseek.o)
                0x00014294                lseek
 .text          0x00014320       0x98 ../UcosiiBSP_for_cpu_s1/\libucosii_bsp.a(alt_main.o)
                0x00014320                alt_main
 .text          0x000143b8       0xa8 ../UcosiiBSP_for_cpu_s1/\libucosii_bsp.a(alt_read.o)
                0x000143d8                read
 .text          0x00014460       0x24 ../UcosiiBSP_for_cpu_s1/\libucosii_bsp.a(alt_release_fd.o)
                0x00014460                alt_release_fd
 .text          0x00014484       0x4c ../UcosiiBSP_for_cpu_s1/\libucosii_bsp.a(alt_sbrk.o)
                0x00014484                sbrk
 .text          0x000144d0       0xf0 ../UcosiiBSP_for_cpu_s1/\libucosii_bsp.a(alt_usleep.o)
                0x000144d0                usleep
 .text          0x000145c0       0xa4 ../UcosiiBSP_for_cpu_s1/\libucosii_bsp.a(alt_write.o)
                0x000145e0                write
 .text          0x00014664       0xa8 ../UcosiiBSP_for_cpu_s1/\libucosii_bsp.a(alt_env_lock.o)
                0x00014664                __env_lock
                0x000146e4                __env_unlock
 .text          0x0001470c      0x104 ../UcosiiBSP_for_cpu_s1/\libucosii_bsp.a(alt_malloc_lock.o)
                0x0001470c                __malloc_lock
                0x000147b8                __malloc_unlock
 .text          0x00014810     0x1080 ../UcosiiBSP_for_cpu_s1/\libucosii_bsp.a(os_core.o)
                0x0001484c                OS_TaskIdle
                0x00014880                OSIntEnter
                0x000148bc                OSIntExit
                0x00014964                OSSchedLock
                0x000149a8                OSStart
                0x000149fc                OSStatInit
                0x00014a60                OSTimeTick
                0x00014b78                OSVersion
                0x00014b80                OS_Dummy
                0x00014b84                OS_EventTaskWait
                0x00014bf4                OS_EventTaskWaitMulti
                0x00014c70                OS_EventTaskRemove
                0x00014cac                OS_EventTaskRemoveMulti
                0x00014cfc                OS_EventTaskRdy
                0x00014df4                OS_EventWaitListInit
                0x00014e10                OS_MemClr
                0x00014e2c                OSInit
                0x0001501c                OS_MemCopy
                0x00015040                OS_Sched
                0x000150c8                OSSchedUnlock
                0x0001511c                OSEventPendMulti
                0x00015444                OS_StrCopy
                0x00015470                OSEventNameGet
                0x00015510                OS_StrLen
                0x0001552c                OSEventNameSet
                0x000155f0                OS_TaskStatStkChk
                0x0001568c                OS_TaskStat
                0x00015718                OS_TCBInit
 .text          0x00015890        0x4 ../UcosiiBSP_for_cpu_s1/\libucosii_bsp.a(os_dbg.o)
                0x00015890                OSDebugInit
 .text          0x00015894      0xb68 ../UcosiiBSP_for_cpu_s1/\libucosii_bsp.a(os_flag.o)
                0x00015930                OSFlagAccept
                0x00015a78                OSFlagCreate
                0x00015b00                OSFlagNameGet
                0x00015ba8                OSFlagNameSet
                0x00015c74                OSFlagPendGetFlagsRdy
                0x00015c9c                OSFlagQuery
                0x00015cec                OS_FlagInit
                0x00015d60                OS_FlagUnlink
                0x00015e28                OSFlagPost
                0x00015fdc                OSFlagDel
                0x00016134                OSFlagPend
 .text          0x000163fc      0x3b0 ../UcosiiBSP_for_cpu_s1/\libucosii_bsp.a(os_mem.o)
                0x000163fc                OSMemCreate
                0x000164c8                OSMemGet
                0x00016524                OSMemNameGet
                0x000165b4                OSMemNameSet
                0x00016668                OSMemPut
                0x000166c8                OSMemQuery
                0x0001672c                OS_MemInit
 .text          0x000167ac      0x958 ../UcosiiBSP_for_cpu_s1/\libucosii_bsp.a(os_mutex.o)
                0x00016864                OSMutexAccept
                0x00016928                OSMutexCreate
                0x00016a30                OSMutexDel
                0x00016bf4                OSMutexPend
                0x00016ee8                OSMutexPost
                0x00017048                OSMutexQuery
 .text          0x00017104      0x9b8 ../UcosiiBSP_for_cpu_s1/\libucosii_bsp.a(os_q.o)
                0x00017104                OSQAccept
                0x00017198                OSQCreate
                0x0001728c                OSQDel
                0x00017414                OSQFlush
                0x00017464                OSQPend
                0x000175f4                OSQPendAbort
                0x000176dc                OSQPost
                0x0001779c                OSQPostFront
                0x00017860                OSQPostOpt
                0x000179b0                OSQQuery
                0x00017a58                OS_QInit
 .text          0x00017abc      0x5f0 ../UcosiiBSP_for_cpu_s1/\libucosii_bsp.a(os_sem.o)
                0x00017abc                OSSemAccept
                0x00017b00                OSSemCreate
                0x00017b8c                OSSemDel
                0x00017ce4                OSSemPend
                0x00017e38                OSSemPendAbort
                0x00017f24                OSSemPost
                0x00017fc4                OSSemQuery
                0x00018044                OSSemSet
 .text          0x000180ac      0xe14 ../UcosiiBSP_for_cpu_s1/\libucosii_bsp.a(os_task.o)
                0x000180ac                OSTaskChangePrio
                0x0001833c                OSTaskCreate
                0x00018438                OSTaskDel
                0x00018690                OSTaskDelReq
                0x00018744                OSTaskNameGet
                0x00018834                OSTaskNameSet
                0x00018948                OSTaskResume
                0x00018a54                OSTaskStkChk
                0x00018b48                OSTaskSuspend
                0x00018c70                OSTaskQuery
                0x00018d38                OS_TaskStkClr
                0x00018d5c                OSTaskCreateExt
 .text          0x00018ec0      0x358 ../UcosiiBSP_for_cpu_s1/\libucosii_bsp.a(os_time.o)
                0x00018ec0                OSTimeDly
                0x00018f4c                OSTimeDlyHMSM
                0x000190d0                OSTimeDlyResume
                0x000191d0                OSTimeGet
                0x000191f4                OSTimeSet
 .text          0x00019218       0x58 ../UcosiiBSP_for_cpu_s1/\libucosii_bsp.a(alt_sys_init.o)
                0x00019218                alt_irq_init
                0x00019238                alt_sys_init
 .text          0x00019270       0x28 ../UcosiiBSP_for_cpu_s1/\libucosii_bsp.a(altera_avalon_jtag_uart_fd.o)
                0x00019270                altera_avalon_jtag_uart_read_fd
                0x00019284                altera_avalon_jtag_uart_write_fd
 .text          0x00019298       0x5c ../UcosiiBSP_for_cpu_s1/\libucosii_bsp.a(altera_avalon_jtag_uart_read.o)
                0x00019298                altera_avalon_jtag_uart_read
 .text          0x000192f4       0x34 ../UcosiiBSP_for_cpu_s1/\libucosii_bsp.a(altera_avalon_jtag_uart_write.o)
                0x000192f4                altera_avalon_jtag_uart_write
 .text          0x00019328       0x6c ../UcosiiBSP_for_cpu_s1/\libucosii_bsp.a(altera_avalon_timer_sc.o)
                0x00019364                alt_avalon_timer_sc_init
 .text          0x00019394       0x78 ../UcosiiBSP_for_cpu_s1/\libucosii_bsp.a(alt_busy_sleep.o)
                0x00019394                alt_busy_sleep
 .text          0x0001940c        0x4 ../UcosiiBSP_for_cpu_s1/\libucosii_bsp.a(alt_dcache_flush_all.o)
                0x0001940c                alt_dcache_flush_all
 .text          0x00019410       0x6c ../UcosiiBSP_for_cpu_s1/\libucosii_bsp.a(alt_dev_llist_insert.o)
                0x00019410                alt_dev_llist_insert
 .text          0x0001947c        0xc ../UcosiiBSP_for_cpu_s1/\libucosii_bsp.a(alt_icache_flush_all.o)
                0x0001947c                alt_icache_flush_all
 .text          0x00019488       0xe8 ../UcosiiBSP_for_cpu_s1/\libucosii_bsp.a(alt_io_redirect.o)
                0x000194f8                alt_io_redirect
 .text          0x00019570        0x0 ../UcosiiBSP_for_cpu_s1/\libucosii_bsp.a(alt_irq_entry.o)
 .text          0x00019570        0x0 ../UcosiiBSP_for_cpu_s1/\libucosii_bsp.a(alt_irq_handler.o)
 .text          0x00019570      0x178 ../UcosiiBSP_for_cpu_s1/\libucosii_bsp.a(alt_open.o)
                0x00019570                open
 .text          0x000196e8       0xec ../UcosiiBSP_for_cpu_s1/\libucosii_bsp.a(alt_tick.o)
                0x000196e8                alt_alarm_stop
                0x0001971c                alt_tick
 .text          0x000197d4        0x8 ../UcosiiBSP_for_cpu_s1/\libucosii_bsp.a(altera_nios2_qsys_irq.o)
                0x000197d4                altera_nios2_qsys_irq_init
 .text          0x000197dc       0xd0 ../UcosiiBSP_for_cpu_s1/\libucosii_bsp.a(os_cpu_a.o)
                0x000197dc                OSCtxSw
                0x000197dc                OSIntCtxSw
                0x00019868                OSStartHighRdy
                0x00019888                OSStartTsk
 .text          0x000198ac      0x1d8 ../UcosiiBSP_for_cpu_s1/\libucosii_bsp.a(os_cpu_c.o)
                0x000198ac                OSTaskStkInit
                0x00019a60                OSTaskCreateHook
                0x00019a64                OSTaskDelHook
                0x00019a68                OSTaskSwHook
                0x00019a6c                OSTaskStatHook
                0x00019a70                OSTimeTickHook
                0x00019a74                OSInitHookBegin
                0x00019a78                OSInitHookEnd
                0x00019a7c                OSTaskIdleHook
                0x00019a80                OSTCBInitHook
 .text          0x00019a84        0x0 ../UcosiiBSP_for_cpu_s1/\libucosii_bsp.a(alt_exception_entry.o)
 .text          0x00019a84       0x70 ../UcosiiBSP_for_cpu_s1/\libucosii_bsp.a(alt_find_dev.o)
                0x00019a84                alt_find_dev
 .text          0x00019af4       0xa8 ../UcosiiBSP_for_cpu_s1/\libucosii_bsp.a(alt_find_file.o)
                0x00019af4                alt_find_file
 .text          0x00019b9c       0xa0 ../UcosiiBSP_for_cpu_s1/\libucosii_bsp.a(alt_get_fd.o)
                0x00019b9c                alt_get_fd
 .text          0x00019c3c       0x38 ../UcosiiBSP_for_cpu_s1/\libucosii_bsp.a(alt_icache_flush.o)
                0x00019c3c                alt_icache_flush
 .text          0x00019c74       0x7c c:/altera/13.1/nios2eds/bin/gnu/h-i686-mingw32/bin/../lib/gcc/nios2-elf/4.7.3/../../../../../H-i686-mingw32/nios2-elf/lib\libc.a(lib_a-memcmp.o)
                0x00019c74                memcmp
 .text          0x00019cf0       0x84 c:/altera/13.1/nios2eds/bin/gnu/h-i686-mingw32/bin/../lib/gcc/nios2-elf/4.7.3\libgcc.a(_fixunsdfsi.o)
                0x00019cf0                __fixunsdfsi
 *(.gnu.warning.*)
 *(.fini)
                0x00019d74                PROVIDE (__etext, ABSOLUTE (.))
                0x00019d74                PROVIDE (_etext, ABSOLUTE (.))
                0x00019d74                PROVIDE (etext, ABSOLUTE (.))
 *(.eh_frame_hdr)
                0x00019d74                . = ALIGN (0x4)
                0x00019d74                PROVIDE (__preinit_array_start, ABSOLUTE (.))
 *(.preinit_array)
                0x00019d74                PROVIDE (__preinit_array_end, ABSOLUTE (.))
                0x00019d74                PROVIDE (__init_array_start, ABSOLUTE (.))
 *(.init_array)
                0x00019d74                PROVIDE (__init_array_end, ABSOLUTE (.))
                0x00019d74                PROVIDE (__fini_array_start, ABSOLUTE (.))
 *(.fini_array)
                0x00019d74                PROVIDE (__fini_array_end, ABSOLUTE (.))
 *(.eh_frame)
 *(.gcc_except_table .gcc_except_table.*)
 *(.dynamic)
                0x00019d74                PROVIDE (__CTOR_LIST__, ABSOLUTE (.))
 *(.ctors)
 *(SORT(.ctors.*))
                0x00019d74                PROVIDE (__CTOR_END__, ABSOLUTE (.))
                0x00019d74                PROVIDE (__DTOR_LIST__, ABSOLUTE (.))
 *(.dtors)
 *(SORT(.dtors.*))
                0x00019d74                PROVIDE (__DTOR_END__, ABSOLUTE (.))
 *(.jcr)
                0x00019d74                . = ALIGN (0x4)

.rodata         0x00019d74     0x1e10
                0x00019d74                PROVIDE (__ram_rodata_start, ABSOLUTE (.))
                0x00019d74                . = ALIGN (0x4)
 *(.rodata .rodata.* .gnu.linkonce.r.*)
 .rodata.str1.4
                0x00019d74      0x45c obj/default/MCAPI_Top/mcapi.o
 .rodata.str1.4
                0x0001a1d0      0x837 obj/default/MCAPI_Transport/mcapi_trans_nios.o
                                0x838 (size before relaxing)
 *fill*         0x0001aa07        0x1 
 .rodata.str1.4
                0x0001aa08      0x359 obj/default/NS_Layer/NS_layer.o
                                0x35c (size before relaxing)
 *fill*         0x0001ad61        0x3 
 .rodata        0x0001ad64       0x6c obj/default/NS_Layer/NS_layer.o
 .rodata.str1.4
                0x0001add0      0x27a obj/default/PH_FifoDriver_UCOSII/PH_layer.o
                                0x27c (size before relaxing)
 *fill*         0x0001b04a        0x2 
 .rodata        0x0001b04c       0x6c obj/default/PH_FifoDriver_UCOSII/PH_layer.o
 .rodata.str1.4
                0x0001b0b8      0x695 obj/default/SysTestNode2.o
                                0x698 (size before relaxing)
 *fill*         0x0001b74d        0x3 
 .rodata.str1.4
                0x0001b750        0x2 c:/altera/13.1/nios2eds/bin/gnu/h-i686-mingw32/bin/../lib/gcc/nios2-elf/4.7.3/../../../../../H-i686-mingw32/nios2-elf/lib\libc.a(lib_a-impure.o)
                                  0x4 (size before relaxing)
 .rodata.str1.4
                0x00000000        0x2 c:/altera/13.1/nios2eds/bin/gnu/h-i686-mingw32/bin/../lib/gcc/nios2-elf/4.7.3/../../../../../H-i686-mingw32/nios2-elf/lib\libc.a(lib_a-puts.o)
                                  0x4 (size before relaxing)
 *fill*         0x0001b752        0x2 
 .rodata.str1.4
                0x0001b754       0x42 c:/altera/13.1/nios2eds/bin/gnu/h-i686-mingw32/bin/../lib/gcc/nios2-elf/4.7.3/../../../../../H-i686-mingw32/nios2-elf/lib\libc.a(lib_a-vfprintf.o)
                                 0x44 (size before relaxing)
 .rodata        0x0001b796       0x20 c:/altera/13.1/nios2eds/bin/gnu/h-i686-mingw32/bin/../lib/gcc/nios2-elf/4.7.3/../../../../../H-i686-mingw32/nios2-elf/lib\libc.a(lib_a-vfprintf.o)
 *fill*         0x0001b7b6        0x2 
 .rodata.str1.4
                0x0001b7b8       0x10 c:/altera/13.1/nios2eds/bin/gnu/h-i686-mingw32/bin/../lib/gcc/nios2-elf/4.7.3/../../../../../H-i686-mingw32/nios2-elf/lib\libc.a(lib_a-dtoa.o)
                                 0x14 (size before relaxing)
 .rodata.str1.4
                0x0001b7c8        0xe c:/altera/13.1/nios2eds/bin/gnu/h-i686-mingw32/bin/../lib/gcc/nios2-elf/4.7.3/../../../../../H-i686-mingw32/nios2-elf/lib\libc.a(lib_a-locale.o)
                                 0x18 (size before relaxing)
 *fill*         0x0001b7d6        0x2 
 .rodata        0x0001b7d8       0x30 c:/altera/13.1/nios2eds/bin/gnu/h-i686-mingw32/bin/../lib/gcc/nios2-elf/4.7.3/../../../../../H-i686-mingw32/nios2-elf/lib\libc.a(lib_a-locale.o)
 .rodata        0x0001b808      0x124 c:/altera/13.1/nios2eds/bin/gnu/h-i686-mingw32/bin/../lib/gcc/nios2-elf/4.7.3/../../../../../H-i686-mingw32/nios2-elf/lib\libc.a(lib_a-mprec.o)
                0x0001b808                __mprec_tinytens
                0x0001b830                __mprec_bigtens
                0x0001b858                __mprec_tens
 .rodata        0x0001b92c       0x14 c:/altera/13.1/nios2eds/bin/gnu/h-i686-mingw32/bin/../lib/gcc/nios2-elf/4.7.3\libgcc.a(_thenan_df.o)
                0x0001b92c                __thenan_df
 .rodata        0x0001b940      0x100 c:/altera/13.1/nios2eds/bin/gnu/h-i686-mingw32/bin/../lib/gcc/nios2-elf/4.7.3\libgcc.a(_clz.o)
                0x0001b940                __clz_tab
 .rodata.str1.4
                0x0001ba40        0xa ../UcosiiBSP_for_cpu_s1/\libucosii_bsp.a(alt_dev.o)
                                  0xc (size before relaxing)
 *fill*         0x0001ba4a        0x2 
 .rodata.str1.4
                0x0001ba4c       0x16 ../UcosiiBSP_for_cpu_s1/\libucosii_bsp.a(alt_main.o)
                                 0x18 (size before relaxing)
 *fill*         0x0001ba62        0x2 
 .rodata.str1.4
                0x0001ba64       0x20 ../UcosiiBSP_for_cpu_s1/\libucosii_bsp.a(os_core.o)
 .rodata        0x0001ba84      0x100 ../UcosiiBSP_for_cpu_s1/\libucosii_bsp.a(os_core.o)
                0x0001ba84                OSUnMapTbl
 .rodata.str1.4
                0x00000000       0x18 ../UcosiiBSP_for_cpu_s1/\libucosii_bsp.a(alt_sys_init.o)
 .rodata.str1.4
                0x00000000        0x4 ../UcosiiBSP_for_cpu_s1/\libucosii_bsp.a(os_cpu_c.o)
 *(.rodata1)
                0x0001bb84                . = ALIGN (0x4)
                0x0001bb84                PROVIDE (__ram_rodata_end, ABSOLUTE (.))
                0x00019d74                PROVIDE (__flash_rodata_start, LOADADDR (.rodata))

.rwdata         0x0001bb84      0xaac load address 0x0001c630
                0x0001bb84                PROVIDE (__ram_rwdata_start, ABSOLUTE (.))
                0x0001bb84                . = ALIGN (0x4)
 *(.got.plt)
 *(.got)
 *(.data1)
 *(.data .data.* .gnu.linkonce.d.*)
 .data          0x0001bb84        0x0 ../UcosiiBSP_for_cpu_s1//obj/HAL/src/crt0.o
 .data          0x0001bb84        0x0 obj/default/MCAPI_Top/mcapi.o
 .data          0x0001bb84        0x0 obj/default/MCAPI_Transport/mcapi_trans_nios.o
 .data          0x0001bb84        0x0 obj/default/NS_Layer/NS_layer.o
 .data          0x0001bb84        0x0 obj/default/PH_FifoDriver_UCOSII/PH_layer.o
 .data          0x0001bb84        0x0 obj/default/SysTestNode2.o
 .data          0x0001bb84        0x0 obj/default/UTILS/util_packet_handling.o
 .data          0x0001bb84        0x0 c:/altera/13.1/nios2eds/bin/gnu/h-i686-mingw32/bin/../lib/gcc/nios2-elf/4.7.3\libgcc.a(lib2-divmod.o)
 .data          0x0001bb84        0x0 c:/altera/13.1/nios2eds/bin/gnu/h-i686-mingw32/bin/../lib/gcc/nios2-elf/4.7.3/../../../../../H-i686-mingw32/nios2-elf/lib\libc.a(lib_a-exit.o)
 .data          0x0001bb84        0x0 c:/altera/13.1/nios2eds/bin/gnu/h-i686-mingw32/bin/../lib/gcc/nios2-elf/4.7.3/../../../../../H-i686-mingw32/nios2-elf/lib\libc.a(lib_a-fflush.o)
 .data          0x0001bb84        0x0 c:/altera/13.1/nios2eds/bin/gnu/h-i686-mingw32/bin/../lib/gcc/nios2-elf/4.7.3/../../../../../H-i686-mingw32/nios2-elf/lib\libc.a(lib_a-findfp.o)
 .data          0x0001bb84        0x0 c:/altera/13.1/nios2eds/bin/gnu/h-i686-mingw32/bin/../lib/gcc/nios2-elf/4.7.3/../../../../../H-i686-mingw32/nios2-elf/lib\libc.a(lib_a-fprintf.o)
 .data          0x0001bb84        0x0 c:/altera/13.1/nios2eds/bin/gnu/h-i686-mingw32/bin/../lib/gcc/nios2-elf/4.7.3/../../../../../H-i686-mingw32/nios2-elf/lib\libc.a(lib_a-fputs.o)
 .data          0x0001bb84        0x0 c:/altera/13.1/nios2eds/bin/gnu/h-i686-mingw32/bin/../lib/gcc/nios2-elf/4.7.3/../../../../../H-i686-mingw32/nios2-elf/lib\libc.a(lib_a-fvwrite.o)
 .data          0x0001bb84        0x0 c:/altera/13.1/nios2eds/bin/gnu/h-i686-mingw32/bin/../lib/gcc/nios2-elf/4.7.3/../../../../../H-i686-mingw32/nios2-elf/lib\libc.a(lib_a-fwalk.o)
 .data          0x0001bb84      0x400 c:/altera/13.1/nios2eds/bin/gnu/h-i686-mingw32/bin/../lib/gcc/nios2-elf/4.7.3/../../../../../H-i686-mingw32/nios2-elf/lib\libc.a(lib_a-impure.o)
 .data          0x0001bf84      0x408 c:/altera/13.1/nios2eds/bin/gnu/h-i686-mingw32/bin/../lib/gcc/nios2-elf/4.7.3/../../../../../H-i686-mingw32/nios2-elf/lib\libc.a(lib_a-mallocr.o)
                0x0001bf84                __malloc_av_
 .data          0x0001c38c        0x0 c:/altera/13.1/nios2eds/bin/gnu/h-i686-mingw32/bin/../lib/gcc/nios2-elf/4.7.3/../../../../../H-i686-mingw32/nios2-elf/lib\libc.a(lib_a-memchr.o)
 .data          0x0001c38c        0x0 c:/altera/13.1/nios2eds/bin/gnu/h-i686-mingw32/bin/../lib/gcc/nios2-elf/4.7.3/../../../../../H-i686-mingw32/nios2-elf/lib\libc.a(lib_a-memcpy.o)
 .data          0x0001c38c        0x0 c:/altera/13.1/nios2eds/bin/gnu/h-i686-mingw32/bin/../lib/gcc/nios2-elf/4.7.3/../../../../../H-i686-mingw32/nios2-elf/lib\libc.a(lib_a-memmove.o)
 .data          0x0001c38c        0x0 c:/altera/13.1/nios2eds/bin/gnu/h-i686-mingw32/bin/../lib/gcc/nios2-elf/4.7.3/../../../../../H-i686-mingw32/nios2-elf/lib\libc.a(lib_a-memset.o)
 .data          0x0001c38c        0x0 c:/altera/13.1/nios2eds/bin/gnu/h-i686-mingw32/bin/../lib/gcc/nios2-elf/4.7.3/../../../../../H-i686-mingw32/nios2-elf/lib\libc.a(lib_a-printf.o)
 .data          0x0001c38c        0x0 c:/altera/13.1/nios2eds/bin/gnu/h-i686-mingw32/bin/../lib/gcc/nios2-elf/4.7.3/../../../../../H-i686-mingw32/nios2-elf/lib\libc.a(lib_a-puts.o)
 .data          0x0001c38c        0x0 c:/altera/13.1/nios2eds/bin/gnu/h-i686-mingw32/bin/../lib/gcc/nios2-elf/4.7.3/../../../../../H-i686-mingw32/nios2-elf/lib\libc.a(lib_a-rand.o)
 .data          0x0001c38c        0x0 c:/altera/13.1/nios2eds/bin/gnu/h-i686-mingw32/bin/../lib/gcc/nios2-elf/4.7.3/../../../../../H-i686-mingw32/nios2-elf/lib\libc.a(lib_a-reallocr.o)
 .data          0x0001c38c        0x0 c:/altera/13.1/nios2eds/bin/gnu/h-i686-mingw32/bin/../lib/gcc/nios2-elf/4.7.3/../../../../../H-i686-mingw32/nios2-elf/lib\libc.a(lib_a-sbrkr.o)
 .data          0x0001c38c        0x0 c:/altera/13.1/nios2eds/bin/gnu/h-i686-mingw32/bin/../lib/gcc/nios2-elf/4.7.3/../../../../../H-i686-mingw32/nios2-elf/lib\libc.a(lib_a-stdio.o)
 .data          0x0001c38c        0x0 c:/altera/13.1/nios2eds/bin/gnu/h-i686-mingw32/bin/../lib/gcc/nios2-elf/4.7.3/../../../../../H-i686-mingw32/nios2-elf/lib\libc.a(lib_a-strcpy.o)
 .data          0x0001c38c        0x0 c:/altera/13.1/nios2eds/bin/gnu/h-i686-mingw32/bin/../lib/gcc/nios2-elf/4.7.3/../../../../../H-i686-mingw32/nios2-elf/lib\libc.a(lib_a-strlen.o)
 .data          0x0001c38c        0x0 c:/altera/13.1/nios2eds/bin/gnu/h-i686-mingw32/bin/../lib/gcc/nios2-elf/4.7.3/../../../../../H-i686-mingw32/nios2-elf/lib\libc.a(lib_a-vfprintf.o)
 .data          0x0001c38c        0x0 c:/altera/13.1/nios2eds/bin/gnu/h-i686-mingw32/bin/../lib/gcc/nios2-elf/4.7.3/../../../../../H-i686-mingw32/nios2-elf/lib\libc.a(lib_a-writer.o)
 .data          0x0001c38c        0x0 c:/altera/13.1/nios2eds/bin/gnu/h-i686-mingw32/bin/../lib/gcc/nios2-elf/4.7.3/../../../../../H-i686-mingw32/nios2-elf/lib\libc.a(lib_a-wsetup.o)
 .data          0x0001c38c        0x0 c:/altera/13.1/nios2eds/bin/gnu/h-i686-mingw32/bin/../lib/gcc/nios2-elf/4.7.3/../../../../../H-i686-mingw32/nios2-elf/lib\libc.a(lib_a-__call_atexit.o)
 .data          0x0001c38c        0x0 c:/altera/13.1/nios2eds/bin/gnu/h-i686-mingw32/bin/../lib/gcc/nios2-elf/4.7.3/../../../../../H-i686-mingw32/nios2-elf/lib\libc.a(lib_a-closer.o)
 .data          0x0001c38c        0x0 c:/altera/13.1/nios2eds/bin/gnu/h-i686-mingw32/bin/../lib/gcc/nios2-elf/4.7.3/../../../../../H-i686-mingw32/nios2-elf/lib\libc.a(lib_a-dtoa.o)
 .data          0x0001c38c        0x0 c:/altera/13.1/nios2eds/bin/gnu/h-i686-mingw32/bin/../lib/gcc/nios2-elf/4.7.3/../../../../../H-i686-mingw32/nios2-elf/lib\libc.a(lib_a-fclose.o)
 .data          0x0001c38c        0x0 c:/altera/13.1/nios2eds/bin/gnu/h-i686-mingw32/bin/../lib/gcc/nios2-elf/4.7.3/../../../../../H-i686-mingw32/nios2-elf/lib\libc.a(lib_a-freer.o)
 .data          0x0001c38c        0x0 c:/altera/13.1/nios2eds/bin/gnu/h-i686-mingw32/bin/../lib/gcc/nios2-elf/4.7.3/../../../../../H-i686-mingw32/nios2-elf/lib\libc.a(lib_a-int_errno.o)
 .data          0x0001c38c        0xc c:/altera/13.1/nios2eds/bin/gnu/h-i686-mingw32/bin/../lib/gcc/nios2-elf/4.7.3/../../../../../H-i686-mingw32/nios2-elf/lib\libc.a(lib_a-locale.o)
                0x0001c38c                __lc_ctype
 .data          0x0001c398        0x0 c:/altera/13.1/nios2eds/bin/gnu/h-i686-mingw32/bin/../lib/gcc/nios2-elf/4.7.3/../../../../../H-i686-mingw32/nios2-elf/lib\libc.a(lib_a-lseekr.o)
 .data          0x0001c398        0x0 c:/altera/13.1/nios2eds/bin/gnu/h-i686-mingw32/bin/../lib/gcc/nios2-elf/4.7.3/../../../../../H-i686-mingw32/nios2-elf/lib\libc.a(lib_a-makebuf.o)
 .data          0x0001c398        0x0 c:/altera/13.1/nios2eds/bin/gnu/h-i686-mingw32/bin/../lib/gcc/nios2-elf/4.7.3/../../../../../H-i686-mingw32/nios2-elf/lib\libc.a(lib_a-mprec.o)
 .data          0x0001c398        0x0 c:/altera/13.1/nios2eds/bin/gnu/h-i686-mingw32/bin/../lib/gcc/nios2-elf/4.7.3/../../../../../H-i686-mingw32/nios2-elf/lib\libc.a(lib_a-readr.o)
 .data          0x0001c398        0x0 c:/altera/13.1/nios2eds/bin/gnu/h-i686-mingw32/bin/../lib/gcc/nios2-elf/4.7.3/../../../../../H-i686-mingw32/nios2-elf/lib\libc.a(lib_a-s_isinfd.o)
 .data          0x0001c398        0x0 c:/altera/13.1/nios2eds/bin/gnu/h-i686-mingw32/bin/../lib/gcc/nios2-elf/4.7.3/../../../../../H-i686-mingw32/nios2-elf/lib\libc.a(lib_a-s_isnand.o)
 .data          0x0001c398        0x0 c:/altera/13.1/nios2eds/bin/gnu/h-i686-mingw32/bin/../lib/gcc/nios2-elf/4.7.3/../../../../../H-i686-mingw32/nios2-elf/lib\libc.a(lib_a-strcmp.o)
 .data          0x0001c398        0x0 c:/altera/13.1/nios2eds/bin/gnu/h-i686-mingw32/bin/../lib/gcc/nios2-elf/4.7.3/../../../../../H-i686-mingw32/nios2-elf/lib\libc.a(lib_a-callocr.o)
 .data          0x0001c398        0x0 c:/altera/13.1/nios2eds/bin/gnu/h-i686-mingw32/bin/../lib/gcc/nios2-elf/4.7.3/../../../../../H-i686-mingw32/nios2-elf/lib\libc.a(lib_a-fstatr.o)
 .data          0x0001c398        0x0 c:/altera/13.1/nios2eds/bin/gnu/h-i686-mingw32/bin/../lib/gcc/nios2-elf/4.7.3/../../../../../H-i686-mingw32/nios2-elf/lib\libc.a(lib_a-isattyr.o)
 .data          0x0001c398        0x0 c:/altera/13.1/nios2eds/bin/gnu/h-i686-mingw32/bin/../lib/gcc/nios2-elf/4.7.3\libgcc.a(_muldi3.o)
 .data          0x0001c398        0x0 c:/altera/13.1/nios2eds/bin/gnu/h-i686-mingw32/bin/../lib/gcc/nios2-elf/4.7.3\libgcc.a(_udivdi3.o)
 .data          0x0001c398        0x0 c:/altera/13.1/nios2eds/bin/gnu/h-i686-mingw32/bin/../lib/gcc/nios2-elf/4.7.3\libgcc.a(_umoddi3.o)
 .data          0x0001c398        0x0 c:/altera/13.1/nios2eds/bin/gnu/h-i686-mingw32/bin/../lib/gcc/nios2-elf/4.7.3\libgcc.a(_addsub_df.o)
 .data          0x0001c398        0x0 c:/altera/13.1/nios2eds/bin/gnu/h-i686-mingw32/bin/../lib/gcc/nios2-elf/4.7.3\libgcc.a(_mul_df.o)
 .data          0x0001c398        0x0 c:/altera/13.1/nios2eds/bin/gnu/h-i686-mingw32/bin/../lib/gcc/nios2-elf/4.7.3\libgcc.a(_div_df.o)
 .data          0x0001c398        0x0 c:/altera/13.1/nios2eds/bin/gnu/h-i686-mingw32/bin/../lib/gcc/nios2-elf/4.7.3\libgcc.a(_eq_df.o)
 .data          0x0001c398        0x0 c:/altera/13.1/nios2eds/bin/gnu/h-i686-mingw32/bin/../lib/gcc/nios2-elf/4.7.3\libgcc.a(_ne_df.o)
 .data          0x0001c398        0x0 c:/altera/13.1/nios2eds/bin/gnu/h-i686-mingw32/bin/../lib/gcc/nios2-elf/4.7.3\libgcc.a(_gt_df.o)
 .data          0x0001c398        0x0 c:/altera/13.1/nios2eds/bin/gnu/h-i686-mingw32/bin/../lib/gcc/nios2-elf/4.7.3\libgcc.a(_ge_df.o)
 .data          0x0001c398        0x0 c:/altera/13.1/nios2eds/bin/gnu/h-i686-mingw32/bin/../lib/gcc/nios2-elf/4.7.3\libgcc.a(_lt_df.o)
 .data          0x0001c398        0x0 c:/altera/13.1/nios2eds/bin/gnu/h-i686-mingw32/bin/../lib/gcc/nios2-elf/4.7.3\libgcc.a(_si_to_df.o)
 .data          0x0001c398        0x0 c:/altera/13.1/nios2eds/bin/gnu/h-i686-mingw32/bin/../lib/gcc/nios2-elf/4.7.3\libgcc.a(_df_to_si.o)
 .data          0x0001c398        0x0 c:/altera/13.1/nios2eds/bin/gnu/h-i686-mingw32/bin/../lib/gcc/nios2-elf/4.7.3\libgcc.a(_thenan_df.o)
 .data          0x0001c398        0x0 c:/altera/13.1/nios2eds/bin/gnu/h-i686-mingw32/bin/../lib/gcc/nios2-elf/4.7.3\libgcc.a(_usi_to_df.o)
 .data          0x0001c398        0x0 c:/altera/13.1/nios2eds/bin/gnu/h-i686-mingw32/bin/../lib/gcc/nios2-elf/4.7.3\libgcc.a(_clz.o)
 .data          0x0001c398        0x0 c:/altera/13.1/nios2eds/bin/gnu/h-i686-mingw32/bin/../lib/gcc/nios2-elf/4.7.3\libgcc.a(_clzsi2.o)
 .data          0x0001c398        0x0 c:/altera/13.1/nios2eds/bin/gnu/h-i686-mingw32/bin/../lib/gcc/nios2-elf/4.7.3\libgcc.a(_pack_df.o)
 .data          0x0001c398        0x0 c:/altera/13.1/nios2eds/bin/gnu/h-i686-mingw32/bin/../lib/gcc/nios2-elf/4.7.3\libgcc.a(_unpack_df.o)
 .data          0x0001c398        0x0 c:/altera/13.1/nios2eds/bin/gnu/h-i686-mingw32/bin/../lib/gcc/nios2-elf/4.7.3\libgcc.a(_fpcmp_parts_df.o)
 .data          0x0001c398        0x0 c:/altera/13.1/nios2eds/bin/gnu/h-i686-mingw32/bin/../lib/gcc/nios2-elf/4.7.3\libgcc.a(_lshrdi3.o)
 .data          0x0001c398        0x0 c:/altera/13.1/nios2eds/bin/gnu/h-i686-mingw32/bin/../lib/gcc/nios2-elf/4.7.3\libgcc.a(_ashldi3.o)
 .data          0x0001c398        0x0 ../UcosiiBSP_for_cpu_s1/\libucosii_bsp.a(alt_close.o)
 .data          0x0001c398      0x1a8 ../UcosiiBSP_for_cpu_s1/\libucosii_bsp.a(alt_dev.o)
                0x0001c398                alt_fd_list
                0x0001c518                alt_dev_null
 .data          0x0001c540        0x0 ../UcosiiBSP_for_cpu_s1/\libucosii_bsp.a(alt_errno.o)
 .data          0x0001c540        0x0 ../UcosiiBSP_for_cpu_s1/\libucosii_bsp.a(alt_exit.o)
 .data          0x0001c540        0x0 ../UcosiiBSP_for_cpu_s1/\libucosii_bsp.a(alt_fstat.o)
 .data          0x0001c540        0x0 ../UcosiiBSP_for_cpu_s1/\libucosii_bsp.a(alt_irq_register.o)
 .data          0x0001c540        0x0 ../UcosiiBSP_for_cpu_s1/\libucosii_bsp.a(alt_irq_vars.o)
 .data          0x0001c540        0x0 ../UcosiiBSP_for_cpu_s1/\libucosii_bsp.a(alt_isatty.o)
 .data          0x0001c540        0x0 ../UcosiiBSP_for_cpu_s1/\libucosii_bsp.a(alt_load.o)
 .data          0x0001c540        0x0 ../UcosiiBSP_for_cpu_s1/\libucosii_bsp.a(alt_lseek.o)
 .data          0x0001c540        0x0 ../UcosiiBSP_for_cpu_s1/\libucosii_bsp.a(alt_main.o)
 .data          0x0001c540        0x0 ../UcosiiBSP_for_cpu_s1/\libucosii_bsp.a(alt_read.o)
 .data          0x0001c540        0x0 ../UcosiiBSP_for_cpu_s1/\libucosii_bsp.a(alt_release_fd.o)
 .data          0x0001c540        0x0 ../UcosiiBSP_for_cpu_s1/\libucosii_bsp.a(alt_sbrk.o)
 .data          0x0001c540        0x0 ../UcosiiBSP_for_cpu_s1/\libucosii_bsp.a(alt_usleep.o)
 .data          0x0001c540        0x0 ../UcosiiBSP_for_cpu_s1/\libucosii_bsp.a(alt_write.o)
 .data          0x0001c540        0x0 ../UcosiiBSP_for_cpu_s1/\libucosii_bsp.a(alt_env_lock.o)
 .data          0x0001c540        0x0 ../UcosiiBSP_for_cpu_s1/\libucosii_bsp.a(alt_malloc_lock.o)
 .data          0x0001c540        0x0 ../UcosiiBSP_for_cpu_s1/\libucosii_bsp.a(os_core.o)
 .data          0x0001c540        0x0 ../UcosiiBSP_for_cpu_s1/\libucosii_bsp.a(os_dbg.o)
 .data          0x0001c540        0x0 ../UcosiiBSP_for_cpu_s1/\libucosii_bsp.a(os_flag.o)
 .data          0x0001c540        0x0 ../UcosiiBSP_for_cpu_s1/\libucosii_bsp.a(os_mem.o)
 .data          0x0001c540        0x0 ../UcosiiBSP_for_cpu_s1/\libucosii_bsp.a(os_mutex.o)
 .data          0x0001c540        0x0 ../UcosiiBSP_for_cpu_s1/\libucosii_bsp.a(os_q.o)
 .data          0x0001c540        0x0 ../UcosiiBSP_for_cpu_s1/\libucosii_bsp.a(os_sem.o)
 .data          0x0001c540        0x0 ../UcosiiBSP_for_cpu_s1/\libucosii_bsp.a(os_task.o)
 .data          0x0001c540        0x0 ../UcosiiBSP_for_cpu_s1/\libucosii_bsp.a(os_time.o)
 .data          0x0001c540       0x2c ../UcosiiBSP_for_cpu_s1/\libucosii_bsp.a(alt_sys_init.o)
 .data          0x0001c56c        0x0 ../UcosiiBSP_for_cpu_s1/\libucosii_bsp.a(altera_avalon_jtag_uart_fd.o)
 .data          0x0001c56c        0x0 ../UcosiiBSP_for_cpu_s1/\libucosii_bsp.a(altera_avalon_jtag_uart_read.o)
 .data          0x0001c56c        0x0 ../UcosiiBSP_for_cpu_s1/\libucosii_bsp.a(altera_avalon_jtag_uart_write.o)
 .data          0x0001c56c        0x0 ../UcosiiBSP_for_cpu_s1/\libucosii_bsp.a(altera_avalon_timer_sc.o)
 .data          0x0001c56c        0x0 ../UcosiiBSP_for_cpu_s1/\libucosii_bsp.a(alt_busy_sleep.o)
 .data          0x0001c56c        0x0 ../UcosiiBSP_for_cpu_s1/\libucosii_bsp.a(alt_dcache_flush_all.o)
 .data          0x0001c56c        0x0 ../UcosiiBSP_for_cpu_s1/\libucosii_bsp.a(alt_dev_llist_insert.o)
 .data          0x0001c56c        0x0 ../UcosiiBSP_for_cpu_s1/\libucosii_bsp.a(alt_icache_flush_all.o)
 .data          0x0001c56c        0x0 ../UcosiiBSP_for_cpu_s1/\libucosii_bsp.a(alt_io_redirect.o)
 .data          0x0001c56c        0x0 ../UcosiiBSP_for_cpu_s1/\libucosii_bsp.a(alt_irq_entry.o)
 .data          0x0001c56c        0x0 ../UcosiiBSP_for_cpu_s1/\libucosii_bsp.a(alt_irq_handler.o)
 .data          0x0001c56c        0x0 ../UcosiiBSP_for_cpu_s1/\libucosii_bsp.a(alt_open.o)
 .data          0x0001c56c        0x0 ../UcosiiBSP_for_cpu_s1/\libucosii_bsp.a(alt_tick.o)
 .data          0x0001c56c        0x0 ../UcosiiBSP_for_cpu_s1/\libucosii_bsp.a(altera_nios2_qsys_irq.o)
 .data          0x0001c56c        0x0 ../UcosiiBSP_for_cpu_s1/\libucosii_bsp.a(os_cpu_a.o)
 .data          0x0001c56c        0x0 ../UcosiiBSP_for_cpu_s1/\libucosii_bsp.a(os_cpu_c.o)
 .data          0x0001c56c        0x0 ../UcosiiBSP_for_cpu_s1/\libucosii_bsp.a(alt_exception_entry.o)
 .data          0x0001c56c        0x0 ../UcosiiBSP_for_cpu_s1/\libucosii_bsp.a(alt_find_dev.o)
 .data          0x0001c56c        0x0 ../UcosiiBSP_for_cpu_s1/\libucosii_bsp.a(alt_find_file.o)
 .data          0x0001c56c        0x0 ../UcosiiBSP_for_cpu_s1/\libucosii_bsp.a(alt_get_fd.o)
 .data          0x0001c56c        0x0 ../UcosiiBSP_for_cpu_s1/\libucosii_bsp.a(alt_icache_flush.o)
 .data          0x0001c56c        0x0 c:/altera/13.1/nios2eds/bin/gnu/h-i686-mingw32/bin/../lib/gcc/nios2-elf/4.7.3/../../../../../H-i686-mingw32/nios2-elf/lib\libc.a(lib_a-memcmp.o)
 .data          0x0001c56c        0x0 c:/altera/13.1/nios2eds/bin/gnu/h-i686-mingw32/bin/../lib/gcc/nios2-elf/4.7.3\libgcc.a(_fixunsdfsi.o)
                0x0002456c                _gp = ABSOLUTE ((. + 0x8000))
                0x0002456c                PROVIDE (gp, _gp)
 *(.rwdata .rwdata.*)
 *(.sdata .sdata.* .gnu.linkonce.s.*)
 .sdata         0x0001c56c        0xc obj/default/MCAPI_Transport/mcapi_trans_nios.o
                0x0001c56c                my_domain_id
                0x0001c570                my_node_id
                0x0001c574                mcapi_debug
 .sdata         0x0001c578        0x8 c:/altera/13.1/nios2eds/bin/gnu/h-i686-mingw32/bin/../lib/gcc/nios2-elf/4.7.3/../../../../../H-i686-mingw32/nios2-elf/lib\libc.a(lib_a-impure.o)
                0x0001c578                _global_impure_ptr
                0x0001c57c                _impure_ptr
 .sdata         0x0001c580        0x8 c:/altera/13.1/nios2eds/bin/gnu/h-i686-mingw32/bin/../lib/gcc/nios2-elf/4.7.3/../../../../../H-i686-mingw32/nios2-elf/lib\libc.a(lib_a-mallocr.o)
                0x0001c580                __malloc_sbrk_base
                0x0001c584                __malloc_trim_threshold
 .sdata         0x0001c588        0x4 c:/altera/13.1/nios2eds/bin/gnu/h-i686-mingw32/bin/../lib/gcc/nios2-elf/4.7.3/../../../../../H-i686-mingw32/nios2-elf/lib\libc.a(lib_a-locale.o)
                0x0001c588                __mb_cur_max
 .sdata         0x0001c58c       0x14 ../UcosiiBSP_for_cpu_s1/\libucosii_bsp.a(alt_dev.o)
                0x0001c58c                alt_max_fd
                0x0001c590                alt_dev_list
                0x0001c598                alt_fs_list
 .sdata         0x0001c5a0        0x4 ../UcosiiBSP_for_cpu_s1/\libucosii_bsp.a(alt_errno.o)
                0x0001c5a0                alt_errno
 .sdata         0x0001c5a4        0x4 ../UcosiiBSP_for_cpu_s1/\libucosii_bsp.a(alt_irq_vars.o)
                0x0001c5a4                alt_priority_mask
 .sdata         0x0001c5a8        0x4 ../UcosiiBSP_for_cpu_s1/\libucosii_bsp.a(alt_sbrk.o)
 .sdata         0x0001c5ac        0x4 ../UcosiiBSP_for_cpu_s1/\libucosii_bsp.a(alt_env_lock.o)
 .sdata         0x0001c5b0        0x4 ../UcosiiBSP_for_cpu_s1/\libucosii_bsp.a(alt_malloc_lock.o)
 .sdata         0x0001c5b4       0x74 ../UcosiiBSP_for_cpu_s1/\libucosii_bsp.a(os_dbg.o)
                0x0001c5b4                OSDataSize
                0x0001c5b6                OSTmrWheelTblSize
                0x0001c5b8                OSTmrWheelSize
                0x0001c5ba                OSTmrTblSize
                0x0001c5bc                OSTmrSize
                0x0001c5be                OSTmrCfgTicksPerSec
                0x0001c5c0                OSTmrCfgWheelSize
                0x0001c5c2                OSTmrCfgNameSize
                0x0001c5c4                OSTmrCfgMax
                0x0001c5c6                OSTmrEn
                0x0001c5c8                OSVersionNbr
                0x0001c5ca                OSTimeTickHookEn
                0x0001c5cc                OSTicksPerSec
                0x0001c5ce                OSTCBSize
                0x0001c5d0                OSTCBPrioTblMax
                0x0001c5d2                OSTaskSwHookEn
                0x0001c5d4                OSTaskStatStkChkEn
                0x0001c5d6                OSTaskStatStkSize
                0x0001c5d8                OSTaskStatEn
                0x0001c5da                OSTaskNameSize
                0x0001c5dc                OSTaskMax
                0x0001c5de                OSTaskProfileEn
                0x0001c5e0                OSTaskIdleStkSize
                0x0001c5e2                OSTaskDelEn
                0x0001c5e4                OSTaskCreateExtEn
                0x0001c5e6                OSTaskCreateEn
                0x0001c5e8                OSStkWidth
                0x0001c5ea                OSSemEn
                0x0001c5ec                OSRdyTblSize
                0x0001c5ee                OSQSize
                0x0001c5f0                OSQMax
                0x0001c5f2                OSQEn
                0x0001c5f4                OSPtrSize
                0x0001c5f6                OSMutexEn
                0x0001c5f8                OSMemTblSize
                0x0001c5fa                OSMemSize
                0x0001c5fc                OSMemNameSize
                0x0001c5fe                OSMemMax
                0x0001c600                OSMemEn
                0x0001c602                OSMboxEn
                0x0001c604                OSLowestPrio
                0x0001c606                OSFlagNameSize
                0x0001c608                OSFlagMax
                0x0001c60a                OSFlagWidth
                0x0001c60c                OSFlagNodeSize
                0x0001c60e                OSFlagGrpSize
                0x0001c610                OSFlagEn
                0x0001c612                OSEventMultiEn
                0x0001c614                OSEventTblSize
                0x0001c616                OSEventSize
                0x0001c618                OSEventNameSize
                0x0001c61a                OSEventMax
                0x0001c61c                OSEventEn
                0x0001c620                OSEndiannessTest
                0x0001c624                OSDebugEn
 .sdata         0x0001c628        0x8 ../UcosiiBSP_for_cpu_s1/\libucosii_bsp.a(alt_tick.o)
                0x0001c628                alt_alarm_list
 *(.sdata2 .sdata2.* .gnu.linkonce.s2.*)
                0x0001c630                . = ALIGN (0x4)
                0x0001c630                _edata = ABSOLUTE (.)
                0x0001c630                PROVIDE (edata, ABSOLUTE (.))
                0x0001c630                PROVIDE (__ram_rwdata_end, ABSOLUTE (.))
                0x0001c630                PROVIDE (__flash_rwdata_start, LOADADDR (.rwdata))

.bss            0x0001d0dc    0x25edc
                0x0001d0dc                __bss_start = ABSOLUTE (.)
                0x0001d0dc                PROVIDE (__sbss_start, ABSOLUTE (.))
                0x0001d0dc                PROVIDE (___sbss_start, ABSOLUTE (.))
 *(.dynsbss)
 *(.sbss .sbss.* .gnu.linkonce.sb.*)
 .sbss          0x0001d0dc       0x10 obj/default/MCAPI_Transport/mcapi_trans_nios.o
                0x0001d0dc                my_mcapi_dindex
                0x0001d0e0                my_mcapi_nindex
                0x0001d0e4                locked
                0x0001d0e8                global_rwl
 .sbss          0x0001d0ec        0x8 obj/default/MCAPI_Transport/mcapi_trans_nios.o
                0x0001d0ec                DatabaseMutex
                0x0001d0f0                mcapi_db
 .sbss          0x0001d0f4        0x8 obj/default/NS_Layer/NS_layer.o
                0x0001d0f4                callIDcount
                0x0001d0f6                nextCallID
                0x0001d0f8                reentMutex
 .sbss          0x0001d0fc       0x1c obj/default/PH_FifoDriver_UCOSII/PH_layer.o
                0x0001d0fc                semAlmostFull_fifo_1
                0x0001d100                bridge_base_fifo_2
                0x0001d104                mutexSend
                0x0001d108                semAlmostFull_fifo_2
                0x0001d10c                bridge_base_fifo_1
                0x0001d110                bridge_irq_fifo_1
                0x0001d114                bridge_irq_fifo_2
 .sbss          0x0001d118       0x48 obj/default/SysTestNode2.o
                0x0001d118                init_thread_flag
                0x0001d11c                node2_recvMSG_from_node1_thread_flag
                0x0001d120                node2_recvMSG_from_node0_thread_flag
                0x0001d124                node2_sendMSG_to_node1_thread_flag
                0x0001d128                node2_sendMSG_to_node0_thread_flag
                0x0001d12c                prio
                0x0001d130                node2_recvEP_from_node0
                0x0001d134                node0_sendEP_to_node1
                0x0001d138                node0_recvEP_from_node2
                0x0001d13c                node1_sendEP_to_node0
                0x0001d140                node2_sendEP_to_node1
                0x0001d144                node1_recvEP_from_node2
                0x0001d148                node1_recvEP_from_node0
                0x0001d14c                node1_sendEP_to_node2
                0x0001d150                node2_recvEP_from_node1
                0x0001d154                node2_sendEP_to_node0
                0x0001d158                node0_recvEP_from_node1
                0x0001d15c                node0_sendEP_to_node2
 .sbss          0x0001d160        0xc c:/altera/13.1/nios2eds/bin/gnu/h-i686-mingw32/bin/../lib/gcc/nios2-elf/4.7.3/../../../../../H-i686-mingw32/nios2-elf/lib\libc.a(lib_a-mallocr.o)
                0x0001d160                __malloc_max_total_mem
                0x0001d164                __malloc_max_sbrked_mem
                0x0001d168                __malloc_top_pad
 .sbss          0x0001d16c        0x4 c:/altera/13.1/nios2eds/bin/gnu/h-i686-mingw32/bin/../lib/gcc/nios2-elf/4.7.3/../../../../../H-i686-mingw32/nios2-elf/lib\libc.a(lib_a-int_errno.o)
                0x0001d16c                errno
 .sbss          0x0001d170        0xc c:/altera/13.1/nios2eds/bin/gnu/h-i686-mingw32/bin/../lib/gcc/nios2-elf/4.7.3/../../../../../H-i686-mingw32/nios2-elf/lib\libc.a(lib_a-locale.o)
                0x0001d170                _PathLocale
                0x0001d174                __mlocale_changed
                0x0001d178                __nlocale_changed
 .sbss          0x0001d17c        0x4 ../UcosiiBSP_for_cpu_s1/\libucosii_bsp.a(alt_dev.o)
                0x0001d17c                alt_fd_list_lock
 .sbss          0x0001d180        0x4 ../UcosiiBSP_for_cpu_s1/\libucosii_bsp.a(alt_irq_vars.o)
                0x0001d180                alt_irq_active
 .sbss          0x0001d184        0xc ../UcosiiBSP_for_cpu_s1/\libucosii_bsp.a(alt_main.o)
                0x0001d184                alt_envp
                0x0001d188                alt_argv
                0x0001d18c                alt_argc
 .sbss          0x0001d190        0x8 ../UcosiiBSP_for_cpu_s1/\libucosii_bsp.a(alt_env_lock.o)
                0x0001d194                alt_envsem
 .sbss          0x0001d198        0x8 ../UcosiiBSP_for_cpu_s1/\libucosii_bsp.a(alt_malloc_lock.o)
                0x0001d19c                alt_heapsem
 .sbss          0x0001d1a0       0x54 ../UcosiiBSP_for_cpu_s1/\libucosii_bsp.a(os_core.o)
                0x0001d1a0                OSLockNesting
                0x0001d1a1                OSRunning
                0x0001d1a4                OSIdleCtr
                0x0001d1a8                OSPrioHighRdy
                0x0001d1a9                OSPrioCur
                0x0001d1ac                OSTCBList
                0x0001d1b0                OSTickStepState
                0x0001d1b4                OSCtxSwCtr
                0x0001d1b8                OSIdleCtrMax
                0x0001d1bc                OSTCBFreeList
                0x0001d1c0                OSCPUUsage
                0x0001d1c1                OSTaskCtr
                0x0001d1c4                OSMemFreeList
                0x0001d1c8                OSTCBHighRdy
                0x0001d1cc                OSQFreeList
                0x0001d1d0                OSRdyGrp
                0x0001d1d1                OSRdyTbl
                0x0001d1d8                OSEventFreeList
                0x0001d1dc                OSIntNesting
                0x0001d1e0                OSTCBCur
                0x0001d1e4                OSTime
                0x0001d1e8                OSFlagFreeList
                0x0001d1ec                OSStatRdy
                0x0001d1f0                OSIdleCtrRun
 .sbss          0x0001d1f4        0x8 ../UcosiiBSP_for_cpu_s1/\libucosii_bsp.a(alt_tick.o)
                0x0001d1f4                _alt_nticks
                0x0001d1f8                _alt_tick_rate
 *(.sbss2 .sbss2.* .gnu.linkonce.sb2.*)
 *(.scommon)
                0x0001d1fc                PROVIDE (__sbss_end, ABSOLUTE (.))
                0x0001d1fc                PROVIDE (___sbss_end, ABSOLUTE (.))
 *(.dynbss)
 *(.bss .bss.* .gnu.linkonce.b.*)
 .bss           0x0001d1fc        0x0 ../UcosiiBSP_for_cpu_s1//obj/HAL/src/crt0.o
 .bss           0x0001d1fc        0x0 obj/default/MCAPI_Top/mcapi.o
 .bss           0x0001d1fc        0x0 obj/default/MCAPI_Transport/mcapi_trans_nios.o
 .bss           0x0001d1fc        0x0 obj/default/NS_Layer/NS_layer.o
 .bss           0x0001d1fc        0x0 obj/default/PH_FifoDriver_UCOSII/PH_layer.o
 .bss           0x0001d1fc        0x0 obj/default/SysTestNode2.o
 .bss           0x0001d1fc        0x0 obj/default/UTILS/util_packet_handling.o
 .bss           0x0001d1fc        0x0 c:/altera/13.1/nios2eds/bin/gnu/h-i686-mingw32/bin/../lib/gcc/nios2-elf/4.7.3\libgcc.a(lib2-divmod.o)
 .bss           0x0001d1fc        0x0 c:/altera/13.1/nios2eds/bin/gnu/h-i686-mingw32/bin/../lib/gcc/nios2-elf/4.7.3/../../../../../H-i686-mingw32/nios2-elf/lib\libc.a(lib_a-exit.o)
 .bss           0x0001d1fc        0x0 c:/altera/13.1/nios2eds/bin/gnu/h-i686-mingw32/bin/../lib/gcc/nios2-elf/4.7.3/../../../../../H-i686-mingw32/nios2-elf/lib\libc.a(lib_a-fflush.o)
 .bss           0x0001d1fc        0x0 c:/altera/13.1/nios2eds/bin/gnu/h-i686-mingw32/bin/../lib/gcc/nios2-elf/4.7.3/../../../../../H-i686-mingw32/nios2-elf/lib\libc.a(lib_a-findfp.o)
 .bss           0x0001d1fc        0x0 c:/altera/13.1/nios2eds/bin/gnu/h-i686-mingw32/bin/../lib/gcc/nios2-elf/4.7.3/../../../../../H-i686-mingw32/nios2-elf/lib\libc.a(lib_a-fprintf.o)
 .bss           0x0001d1fc        0x0 c:/altera/13.1/nios2eds/bin/gnu/h-i686-mingw32/bin/../lib/gcc/nios2-elf/4.7.3/../../../../../H-i686-mingw32/nios2-elf/lib\libc.a(lib_a-fputs.o)
 .bss           0x0001d1fc        0x0 c:/altera/13.1/nios2eds/bin/gnu/h-i686-mingw32/bin/../lib/gcc/nios2-elf/4.7.3/../../../../../H-i686-mingw32/nios2-elf/lib\libc.a(lib_a-fvwrite.o)
 .bss           0x0001d1fc        0x0 c:/altera/13.1/nios2eds/bin/gnu/h-i686-mingw32/bin/../lib/gcc/nios2-elf/4.7.3/../../../../../H-i686-mingw32/nios2-elf/lib\libc.a(lib_a-fwalk.o)
 .bss           0x0001d1fc        0x0 c:/altera/13.1/nios2eds/bin/gnu/h-i686-mingw32/bin/../lib/gcc/nios2-elf/4.7.3/../../../../../H-i686-mingw32/nios2-elf/lib\libc.a(lib_a-impure.o)
 .bss           0x0001d1fc       0x28 c:/altera/13.1/nios2eds/bin/gnu/h-i686-mingw32/bin/../lib/gcc/nios2-elf/4.7.3/../../../../../H-i686-mingw32/nios2-elf/lib\libc.a(lib_a-mallocr.o)
                0x0001d1fc                __malloc_current_mallinfo
 .bss           0x0001d224        0x0 c:/altera/13.1/nios2eds/bin/gnu/h-i686-mingw32/bin/../lib/gcc/nios2-elf/4.7.3/../../../../../H-i686-mingw32/nios2-elf/lib\libc.a(lib_a-memchr.o)
 .bss           0x0001d224        0x0 c:/altera/13.1/nios2eds/bin/gnu/h-i686-mingw32/bin/../lib/gcc/nios2-elf/4.7.3/../../../../../H-i686-mingw32/nios2-elf/lib\libc.a(lib_a-memcpy.o)
 .bss           0x0001d224        0x0 c:/altera/13.1/nios2eds/bin/gnu/h-i686-mingw32/bin/../lib/gcc/nios2-elf/4.7.3/../../../../../H-i686-mingw32/nios2-elf/lib\libc.a(lib_a-memmove.o)
 .bss           0x0001d224        0x0 c:/altera/13.1/nios2eds/bin/gnu/h-i686-mingw32/bin/../lib/gcc/nios2-elf/4.7.3/../../../../../H-i686-mingw32/nios2-elf/lib\libc.a(lib_a-memset.o)
 .bss           0x0001d224        0x0 c:/altera/13.1/nios2eds/bin/gnu/h-i686-mingw32/bin/../lib/gcc/nios2-elf/4.7.3/../../../../../H-i686-mingw32/nios2-elf/lib\libc.a(lib_a-printf.o)
 .bss           0x0001d224        0x0 c:/altera/13.1/nios2eds/bin/gnu/h-i686-mingw32/bin/../lib/gcc/nios2-elf/4.7.3/../../../../../H-i686-mingw32/nios2-elf/lib\libc.a(lib_a-puts.o)
 .bss           0x0001d224        0x0 c:/altera/13.1/nios2eds/bin/gnu/h-i686-mingw32/bin/../lib/gcc/nios2-elf/4.7.3/../../../../../H-i686-mingw32/nios2-elf/lib\libc.a(lib_a-rand.o)
 .bss           0x0001d224        0x0 c:/altera/13.1/nios2eds/bin/gnu/h-i686-mingw32/bin/../lib/gcc/nios2-elf/4.7.3/../../../../../H-i686-mingw32/nios2-elf/lib\libc.a(lib_a-reallocr.o)
 .bss           0x0001d224        0x0 c:/altera/13.1/nios2eds/bin/gnu/h-i686-mingw32/bin/../lib/gcc/nios2-elf/4.7.3/../../../../../H-i686-mingw32/nios2-elf/lib\libc.a(lib_a-sbrkr.o)
 .bss           0x0001d224        0x0 c:/altera/13.1/nios2eds/bin/gnu/h-i686-mingw32/bin/../lib/gcc/nios2-elf/4.7.3/../../../../../H-i686-mingw32/nios2-elf/lib\libc.a(lib_a-stdio.o)
 .bss           0x0001d224        0x0 c:/altera/13.1/nios2eds/bin/gnu/h-i686-mingw32/bin/../lib/gcc/nios2-elf/4.7.3/../../../../../H-i686-mingw32/nios2-elf/lib\libc.a(lib_a-strcpy.o)
 .bss           0x0001d224        0x0 c:/altera/13.1/nios2eds/bin/gnu/h-i686-mingw32/bin/../lib/gcc/nios2-elf/4.7.3/../../../../../H-i686-mingw32/nios2-elf/lib\libc.a(lib_a-strlen.o)
 .bss           0x0001d224        0x0 c:/altera/13.1/nios2eds/bin/gnu/h-i686-mingw32/bin/../lib/gcc/nios2-elf/4.7.3/../../../../../H-i686-mingw32/nios2-elf/lib\libc.a(lib_a-vfprintf.o)
 .bss           0x0001d224        0x0 c:/altera/13.1/nios2eds/bin/gnu/h-i686-mingw32/bin/../lib/gcc/nios2-elf/4.7.3/../../../../../H-i686-mingw32/nios2-elf/lib\libc.a(lib_a-writer.o)
 .bss           0x0001d224        0x0 c:/altera/13.1/nios2eds/bin/gnu/h-i686-mingw32/bin/../lib/gcc/nios2-elf/4.7.3/../../../../../H-i686-mingw32/nios2-elf/lib\libc.a(lib_a-wsetup.o)
 .bss           0x0001d224        0x0 c:/altera/13.1/nios2eds/bin/gnu/h-i686-mingw32/bin/../lib/gcc/nios2-elf/4.7.3/../../../../../H-i686-mingw32/nios2-elf/lib\libc.a(lib_a-__call_atexit.o)
 .bss           0x0001d224        0x0 c:/altera/13.1/nios2eds/bin/gnu/h-i686-mingw32/bin/../lib/gcc/nios2-elf/4.7.3/../../../../../H-i686-mingw32/nios2-elf/lib\libc.a(lib_a-closer.o)
 .bss           0x0001d224        0x0 c:/altera/13.1/nios2eds/bin/gnu/h-i686-mingw32/bin/../lib/gcc/nios2-elf/4.7.3/../../../../../H-i686-mingw32/nios2-elf/lib\libc.a(lib_a-dtoa.o)
 .bss           0x0001d224        0x0 c:/altera/13.1/nios2eds/bin/gnu/h-i686-mingw32/bin/../lib/gcc/nios2-elf/4.7.3/../../../../../H-i686-mingw32/nios2-elf/lib\libc.a(lib_a-fclose.o)
 .bss           0x0001d224        0x0 c:/altera/13.1/nios2eds/bin/gnu/h-i686-mingw32/bin/../lib/gcc/nios2-elf/4.7.3/../../../../../H-i686-mingw32/nios2-elf/lib\libc.a(lib_a-freer.o)
 .bss           0x0001d224        0x0 c:/altera/13.1/nios2eds/bin/gnu/h-i686-mingw32/bin/../lib/gcc/nios2-elf/4.7.3/../../../../../H-i686-mingw32/nios2-elf/lib\libc.a(lib_a-int_errno.o)
 .bss           0x0001d224        0x0 c:/altera/13.1/nios2eds/bin/gnu/h-i686-mingw32/bin/../lib/gcc/nios2-elf/4.7.3/../../../../../H-i686-mingw32/nios2-elf/lib\libc.a(lib_a-locale.o)
 .bss           0x0001d224        0x0 c:/altera/13.1/nios2eds/bin/gnu/h-i686-mingw32/bin/../lib/gcc/nios2-elf/4.7.3/../../../../../H-i686-mingw32/nios2-elf/lib\libc.a(lib_a-lseekr.o)
 .bss           0x0001d224        0x0 c:/altera/13.1/nios2eds/bin/gnu/h-i686-mingw32/bin/../lib/gcc/nios2-elf/4.7.3/../../../../../H-i686-mingw32/nios2-elf/lib\libc.a(lib_a-makebuf.o)
 .bss           0x0001d224        0x0 c:/altera/13.1/nios2eds/bin/gnu/h-i686-mingw32/bin/../lib/gcc/nios2-elf/4.7.3/../../../../../H-i686-mingw32/nios2-elf/lib\libc.a(lib_a-mprec.o)
 .bss           0x0001d224        0x0 c:/altera/13.1/nios2eds/bin/gnu/h-i686-mingw32/bin/../lib/gcc/nios2-elf/4.7.3/../../../../../H-i686-mingw32/nios2-elf/lib\libc.a(lib_a-readr.o)
 .bss           0x0001d224        0x0 c:/altera/13.1/nios2eds/bin/gnu/h-i686-mingw32/bin/../lib/gcc/nios2-elf/4.7.3/../../../../../H-i686-mingw32/nios2-elf/lib\libc.a(lib_a-s_isinfd.o)
 .bss           0x0001d224        0x0 c:/altera/13.1/nios2eds/bin/gnu/h-i686-mingw32/bin/../lib/gcc/nios2-elf/4.7.3/../../../../../H-i686-mingw32/nios2-elf/lib\libc.a(lib_a-s_isnand.o)
 .bss           0x0001d224        0x0 c:/altera/13.1/nios2eds/bin/gnu/h-i686-mingw32/bin/../lib/gcc/nios2-elf/4.7.3/../../../../../H-i686-mingw32/nios2-elf/lib\libc.a(lib_a-strcmp.o)
 .bss           0x0001d224        0x0 c:/altera/13.1/nios2eds/bin/gnu/h-i686-mingw32/bin/../lib/gcc/nios2-elf/4.7.3/../../../../../H-i686-mingw32/nios2-elf/lib\libc.a(lib_a-callocr.o)
 .bss           0x0001d224        0x0 c:/altera/13.1/nios2eds/bin/gnu/h-i686-mingw32/bin/../lib/gcc/nios2-elf/4.7.3/../../../../../H-i686-mingw32/nios2-elf/lib\libc.a(lib_a-fstatr.o)
 .bss           0x0001d224        0x0 c:/altera/13.1/nios2eds/bin/gnu/h-i686-mingw32/bin/../lib/gcc/nios2-elf/4.7.3/../../../../../H-i686-mingw32/nios2-elf/lib\libc.a(lib_a-isattyr.o)
 .bss           0x0001d224        0x0 c:/altera/13.1/nios2eds/bin/gnu/h-i686-mingw32/bin/../lib/gcc/nios2-elf/4.7.3\libgcc.a(_muldi3.o)
 .bss           0x0001d224        0x0 c:/altera/13.1/nios2eds/bin/gnu/h-i686-mingw32/bin/../lib/gcc/nios2-elf/4.7.3\libgcc.a(_udivdi3.o)
 .bss           0x0001d224        0x0 c:/altera/13.1/nios2eds/bin/gnu/h-i686-mingw32/bin/../lib/gcc/nios2-elf/4.7.3\libgcc.a(_umoddi3.o)
 .bss           0x0001d224        0x0 c:/altera/13.1/nios2eds/bin/gnu/h-i686-mingw32/bin/../lib/gcc/nios2-elf/4.7.3\libgcc.a(_addsub_df.o)
 .bss           0x0001d224        0x0 c:/altera/13.1/nios2eds/bin/gnu/h-i686-mingw32/bin/../lib/gcc/nios2-elf/4.7.3\libgcc.a(_mul_df.o)
 .bss           0x0001d224        0x0 c:/altera/13.1/nios2eds/bin/gnu/h-i686-mingw32/bin/../lib/gcc/nios2-elf/4.7.3\libgcc.a(_div_df.o)
 .bss           0x0001d224        0x0 c:/altera/13.1/nios2eds/bin/gnu/h-i686-mingw32/bin/../lib/gcc/nios2-elf/4.7.3\libgcc.a(_eq_df.o)
 .bss           0x0001d224        0x0 c:/altera/13.1/nios2eds/bin/gnu/h-i686-mingw32/bin/../lib/gcc/nios2-elf/4.7.3\libgcc.a(_ne_df.o)
 .bss           0x0001d224        0x0 c:/altera/13.1/nios2eds/bin/gnu/h-i686-mingw32/bin/../lib/gcc/nios2-elf/4.7.3\libgcc.a(_gt_df.o)
 .bss           0x0001d224        0x0 c:/altera/13.1/nios2eds/bin/gnu/h-i686-mingw32/bin/../lib/gcc/nios2-elf/4.7.3\libgcc.a(_ge_df.o)
 .bss           0x0001d224        0x0 c:/altera/13.1/nios2eds/bin/gnu/h-i686-mingw32/bin/../lib/gcc/nios2-elf/4.7.3\libgcc.a(_lt_df.o)
 .bss           0x0001d224        0x0 c:/altera/13.1/nios2eds/bin/gnu/h-i686-mingw32/bin/../lib/gcc/nios2-elf/4.7.3\libgcc.a(_si_to_df.o)
 .bss           0x0001d224        0x0 c:/altera/13.1/nios2eds/bin/gnu/h-i686-mingw32/bin/../lib/gcc/nios2-elf/4.7.3\libgcc.a(_df_to_si.o)
 .bss           0x0001d224        0x0 c:/altera/13.1/nios2eds/bin/gnu/h-i686-mingw32/bin/../lib/gcc/nios2-elf/4.7.3\libgcc.a(_thenan_df.o)
 .bss           0x0001d224        0x0 c:/altera/13.1/nios2eds/bin/gnu/h-i686-mingw32/bin/../lib/gcc/nios2-elf/4.7.3\libgcc.a(_usi_to_df.o)
 .bss           0x0001d224        0x0 c:/altera/13.1/nios2eds/bin/gnu/h-i686-mingw32/bin/../lib/gcc/nios2-elf/4.7.3\libgcc.a(_clz.o)
 .bss           0x0001d224        0x0 c:/altera/13.1/nios2eds/bin/gnu/h-i686-mingw32/bin/../lib/gcc/nios2-elf/4.7.3\libgcc.a(_clzsi2.o)
 .bss           0x0001d224        0x0 c:/altera/13.1/nios2eds/bin/gnu/h-i686-mingw32/bin/../lib/gcc/nios2-elf/4.7.3\libgcc.a(_pack_df.o)
 .bss           0x0001d224        0x0 c:/altera/13.1/nios2eds/bin/gnu/h-i686-mingw32/bin/../lib/gcc/nios2-elf/4.7.3\libgcc.a(_unpack_df.o)
 .bss           0x0001d224        0x0 c:/altera/13.1/nios2eds/bin/gnu/h-i686-mingw32/bin/../lib/gcc/nios2-elf/4.7.3\libgcc.a(_fpcmp_parts_df.o)
 .bss           0x0001d224        0x0 c:/altera/13.1/nios2eds/bin/gnu/h-i686-mingw32/bin/../lib/gcc/nios2-elf/4.7.3\libgcc.a(_lshrdi3.o)
 .bss           0x0001d224        0x0 c:/altera/13.1/nios2eds/bin/gnu/h-i686-mingw32/bin/../lib/gcc/nios2-elf/4.7.3\libgcc.a(_ashldi3.o)
 .bss           0x0001d224        0x0 ../UcosiiBSP_for_cpu_s1/\libucosii_bsp.a(alt_close.o)
 .bss           0x0001d224        0x0 ../UcosiiBSP_for_cpu_s1/\libucosii_bsp.a(alt_dev.o)
 .bss           0x0001d224        0x0 ../UcosiiBSP_for_cpu_s1/\libucosii_bsp.a(alt_errno.o)
 .bss           0x0001d224        0x0 ../UcosiiBSP_for_cpu_s1/\libucosii_bsp.a(alt_exit.o)
 .bss           0x0001d224        0x0 ../UcosiiBSP_for_cpu_s1/\libucosii_bsp.a(alt_fstat.o)
 .bss           0x0001d224        0x0 ../UcosiiBSP_for_cpu_s1/\libucosii_bsp.a(alt_irq_register.o)
 .bss           0x0001d224        0x0 ../UcosiiBSP_for_cpu_s1/\libucosii_bsp.a(alt_irq_vars.o)
 .bss           0x0001d224        0x0 ../UcosiiBSP_for_cpu_s1/\libucosii_bsp.a(alt_isatty.o)
 .bss           0x0001d224        0x0 ../UcosiiBSP_for_cpu_s1/\libucosii_bsp.a(alt_load.o)
 .bss           0x0001d224        0x0 ../UcosiiBSP_for_cpu_s1/\libucosii_bsp.a(alt_lseek.o)
 .bss           0x0001d224        0x0 ../UcosiiBSP_for_cpu_s1/\libucosii_bsp.a(alt_main.o)
 .bss           0x0001d224        0x0 ../UcosiiBSP_for_cpu_s1/\libucosii_bsp.a(alt_read.o)
 .bss           0x0001d224        0x0 ../UcosiiBSP_for_cpu_s1/\libucosii_bsp.a(alt_release_fd.o)
 .bss           0x0001d224        0x0 ../UcosiiBSP_for_cpu_s1/\libucosii_bsp.a(alt_sbrk.o)
 .bss           0x0001d224        0x0 ../UcosiiBSP_for_cpu_s1/\libucosii_bsp.a(alt_usleep.o)
 .bss           0x0001d224        0x0 ../UcosiiBSP_for_cpu_s1/\libucosii_bsp.a(alt_write.o)
 .bss           0x0001d224        0x0 ../UcosiiBSP_for_cpu_s1/\libucosii_bsp.a(alt_env_lock.o)
 .bss           0x0001d224        0x0 ../UcosiiBSP_for_cpu_s1/\libucosii_bsp.a(alt_malloc_lock.o)
 .bss           0x0001d224        0x0 ../UcosiiBSP_for_cpu_s1/\libucosii_bsp.a(os_core.o)
 .bss           0x0001d224        0x0 ../UcosiiBSP_for_cpu_s1/\libucosii_bsp.a(os_dbg.o)
 .bss           0x0001d224        0x0 ../UcosiiBSP_for_cpu_s1/\libucosii_bsp.a(os_flag.o)
 .bss           0x0001d224        0x0 ../UcosiiBSP_for_cpu_s1/\libucosii_bsp.a(os_mem.o)
 .bss           0x0001d224        0x0 ../UcosiiBSP_for_cpu_s1/\libucosii_bsp.a(os_mutex.o)
 .bss           0x0001d224        0x0 ../UcosiiBSP_for_cpu_s1/\libucosii_bsp.a(os_q.o)
 .bss           0x0001d224        0x0 ../UcosiiBSP_for_cpu_s1/\libucosii_bsp.a(os_sem.o)
 .bss           0x0001d224        0x0 ../UcosiiBSP_for_cpu_s1/\libucosii_bsp.a(os_task.o)
 .bss           0x0001d224        0x0 ../UcosiiBSP_for_cpu_s1/\libucosii_bsp.a(os_time.o)
 .bss           0x0001d224        0x0 ../UcosiiBSP_for_cpu_s1/\libucosii_bsp.a(alt_sys_init.o)
 .bss           0x0001d224        0x0 ../UcosiiBSP_for_cpu_s1/\libucosii_bsp.a(altera_avalon_jtag_uart_fd.o)
 .bss           0x0001d224        0x0 ../UcosiiBSP_for_cpu_s1/\libucosii_bsp.a(altera_avalon_jtag_uart_read.o)
 .bss           0x0001d224        0x0 ../UcosiiBSP_for_cpu_s1/\libucosii_bsp.a(altera_avalon_jtag_uart_write.o)
 .bss           0x0001d224        0x0 ../UcosiiBSP_for_cpu_s1/\libucosii_bsp.a(altera_avalon_timer_sc.o)
 .bss           0x0001d224        0x0 ../UcosiiBSP_for_cpu_s1/\libucosii_bsp.a(alt_busy_sleep.o)
 .bss           0x0001d224        0x0 ../UcosiiBSP_for_cpu_s1/\libucosii_bsp.a(alt_dcache_flush_all.o)
 .bss           0x0001d224        0x0 ../UcosiiBSP_for_cpu_s1/\libucosii_bsp.a(alt_dev_llist_insert.o)
 .bss           0x0001d224        0x0 ../UcosiiBSP_for_cpu_s1/\libucosii_bsp.a(alt_icache_flush_all.o)
 .bss           0x0001d224        0x0 ../UcosiiBSP_for_cpu_s1/\libucosii_bsp.a(alt_io_redirect.o)
 .bss           0x0001d224        0x0 ../UcosiiBSP_for_cpu_s1/\libucosii_bsp.a(alt_irq_entry.o)
 .bss           0x0001d224        0x0 ../UcosiiBSP_for_cpu_s1/\libucosii_bsp.a(alt_irq_handler.o)
 .bss           0x0001d224        0x0 ../UcosiiBSP_for_cpu_s1/\libucosii_bsp.a(alt_open.o)
 .bss           0x0001d224        0x0 ../UcosiiBSP_for_cpu_s1/\libucosii_bsp.a(alt_tick.o)
 .bss           0x0001d224        0x0 ../UcosiiBSP_for_cpu_s1/\libucosii_bsp.a(altera_nios2_qsys_irq.o)
 .bss           0x0001d224        0x0 ../UcosiiBSP_for_cpu_s1/\libucosii_bsp.a(os_cpu_a.o)
 .bss           0x0001d224        0x0 ../UcosiiBSP_for_cpu_s1/\libucosii_bsp.a(os_cpu_c.o)
 .bss           0x0001d224        0x0 ../UcosiiBSP_for_cpu_s1/\libucosii_bsp.a(alt_exception_entry.o)
 .bss           0x0001d224        0x0 ../UcosiiBSP_for_cpu_s1/\libucosii_bsp.a(alt_find_dev.o)
 .bss           0x0001d224        0x0 ../UcosiiBSP_for_cpu_s1/\libucosii_bsp.a(alt_find_file.o)
 .bss           0x0001d224        0x0 ../UcosiiBSP_for_cpu_s1/\libucosii_bsp.a(alt_get_fd.o)
 .bss           0x0001d224        0x0 ../UcosiiBSP_for_cpu_s1/\libucosii_bsp.a(alt_icache_flush.o)
 .bss           0x0001d224        0x0 c:/altera/13.1/nios2eds/bin/gnu/h-i686-mingw32/bin/../lib/gcc/nios2-elf/4.7.3/../../../../../H-i686-mingw32/nios2-elf/lib\libc.a(lib_a-memcmp.o)
 .bss           0x0001d224        0x0 c:/altera/13.1/nios2eds/bin/gnu/h-i686-mingw32/bin/../lib/gcc/nios2-elf/4.7.3\libgcc.a(_fixunsdfsi.o)
 *(COMMON)
 COMMON         0x0001d224    0x13ea0 obj/default/MCAPI_Transport/mcapi_trans_nios.o
                0x0001d224                mcapi_db_impl
 COMMON         0x000310c4      0x220 obj/default/NS_Layer/NS_layer.o
                0x000310c4                callIDs
                0x000310e4                sem_serviceRequest
                0x00031104                serviceRequest
 COMMON         0x000312e4     0x4000 obj/default/PH_FifoDriver_UCOSII/PH_layer.o
                0x000312e4                PH_FIFO2_RcvTask_stk
                0x000332e4                PH_FIFO1_RcvTask_stk
 COMMON         0x000352e4     0xa000 obj/default/SysTestNode2.o
                0x000352e4                node2_recvMSG_from_node1_task_stk
                0x000372e4                init_task_stk
                0x000392e4                node2_recvMSG_from_node0_task_stk
                0x0003b2e4                node2_sendMSG_to_node0_task_stk
                0x0003d2e4                node2_sendMSG_to_node1_task_stk
 COMMON         0x0003f2e4     0x3bd4 ../UcosiiBSP_for_cpu_s1/\libucosii_bsp.a(os_core.o)
                0x0003f2e4                OSFlagTbl
                0x0003f654                OSMemTbl
                0x00040284                OSTaskStatStk
                0x00040a84                OSQTbl
                0x00040c64                OSTaskIdleStk
                0x00041464                OSEventTbl
                0x00042094                OSTCBTbl
                0x00042e14                OSTCBPrioTbl
 COMMON         0x00042eb8      0x100 ../UcosiiBSP_for_cpu_s1/\libucosii_bsp.a(alt_irq_handler.o)
                0x00042eb8                alt_irq
                0x00042fb8                . = ALIGN (0x4)
                0x00042fb8                __bss_end = ABSOLUTE (.)

.onchip_sram    0x00042fb8        0x0
                0x00042fb8                PROVIDE (_alt_partition_onchip_sram_start, ABSOLUTE (.))
 *(.onchip_sram .onchip_sram. onchip_sram.*)
                0x00042fb8                . = ALIGN (0x4)
                0x00042fb8                PROVIDE (_alt_partition_onchip_sram_end, ABSOLUTE (.))
                0x00042fb8                _end = ABSOLUTE (.)
                0x00042fb8                end = ABSOLUTE (.)
                0x00042fb8                __alt_stack_base = ABSOLUTE (.)
                0x00042fb8                PROVIDE (_alt_partition_onchip_sram_load_addr, LOADADDR (.onchip_sram))

.stab
 *(.stab)

.stabstr
 *(.stabstr)

.stab.excl
 *(.stab.excl)

.stab.exclstr
 *(.stab.exclstr)

.stab.index
 *(.stab.index)

.stab.indexstr
 *(.stab.indexstr)

.comment        0x00000000       0x23
 *(.comment)
 .comment       0x00000000       0x23 obj/default/MCAPI_Top/mcapi.o
                                 0x24 (size before relaxing)
 .comment       0x00000000       0x24 obj/default/MCAPI_Transport/mcapi_trans_nios.o
 .comment       0x00000000       0x24 obj/default/NS_Layer/NS_layer.o
 .comment       0x00000000       0x24 obj/default/PH_FifoDriver_UCOSII/PH_layer.o
 .comment       0x00000000       0x24 obj/default/SysTestNode2.o
 .comment       0x00000000       0x24 obj/default/UTILS/util_packet_handling.o
 .comment       0x00000000       0x24 c:/altera/13.1/nios2eds/bin/gnu/h-i686-mingw32/bin/../lib/gcc/nios2-elf/4.7.3\libgcc.a(lib2-divmod.o)
 .comment       0x00000000       0x24 c:/altera/13.1/nios2eds/bin/gnu/h-i686-mingw32/bin/../lib/gcc/nios2-elf/4.7.3/../../../../../H-i686-mingw32/nios2-elf/lib\libc.a(lib_a-exit.o)
 .comment       0x00000000       0x24 c:/altera/13.1/nios2eds/bin/gnu/h-i686-mingw32/bin/../lib/gcc/nios2-elf/4.7.3/../../../../../H-i686-mingw32/nios2-elf/lib\libc.a(lib_a-fflush.o)
 .comment       0x00000000       0x24 c:/altera/13.1/nios2eds/bin/gnu/h-i686-mingw32/bin/../lib/gcc/nios2-elf/4.7.3/../../../../../H-i686-mingw32/nios2-elf/lib\libc.a(lib_a-findfp.o)
 .comment       0x00000000       0x24 c:/altera/13.1/nios2eds/bin/gnu/h-i686-mingw32/bin/../lib/gcc/nios2-elf/4.7.3/../../../../../H-i686-mingw32/nios2-elf/lib\libc.a(lib_a-fprintf.o)
 .comment       0x00000000       0x24 c:/altera/13.1/nios2eds/bin/gnu/h-i686-mingw32/bin/../lib/gcc/nios2-elf/4.7.3/../../../../../H-i686-mingw32/nios2-elf/lib\libc.a(lib_a-fputs.o)
 .comment       0x00000000       0x24 c:/altera/13.1/nios2eds/bin/gnu/h-i686-mingw32/bin/../lib/gcc/nios2-elf/4.7.3/../../../../../H-i686-mingw32/nios2-elf/lib\libc.a(lib_a-fvwrite.o)
 .comment       0x00000000       0x24 c:/altera/13.1/nios2eds/bin/gnu/h-i686-mingw32/bin/../lib/gcc/nios2-elf/4.7.3/../../../../../H-i686-mingw32/nios2-elf/lib\libc.a(lib_a-fwalk.o)
 .comment       0x00000000       0x24 c:/altera/13.1/nios2eds/bin/gnu/h-i686-mingw32/bin/../lib/gcc/nios2-elf/4.7.3/../../../../../H-i686-mingw32/nios2-elf/lib\libc.a(lib_a-impure.o)
 .comment       0x00000000       0x24 c:/altera/13.1/nios2eds/bin/gnu/h-i686-mingw32/bin/../lib/gcc/nios2-elf/4.7.3/../../../../../H-i686-mingw32/nios2-elf/lib\libc.a(lib_a-mallocr.o)
 .comment       0x00000000       0x24 c:/altera/13.1/nios2eds/bin/gnu/h-i686-mingw32/bin/../lib/gcc/nios2-elf/4.7.3/../../../../../H-i686-mingw32/nios2-elf/lib\libc.a(lib_a-memchr.o)
 .comment       0x00000000       0x24 c:/altera/13.1/nios2eds/bin/gnu/h-i686-mingw32/bin/../lib/gcc/nios2-elf/4.7.3/../../../../../H-i686-mingw32/nios2-elf/lib\libc.a(lib_a-memcpy.o)
 .comment       0x00000000       0x24 c:/altera/13.1/nios2eds/bin/gnu/h-i686-mingw32/bin/../lib/gcc/nios2-elf/4.7.3/../../../../../H-i686-mingw32/nios2-elf/lib\libc.a(lib_a-memmove.o)
 .comment       0x00000000       0x24 c:/altera/13.1/nios2eds/bin/gnu/h-i686-mingw32/bin/../lib/gcc/nios2-elf/4.7.3/../../../../../H-i686-mingw32/nios2-elf/lib\libc.a(lib_a-memset.o)
 .comment       0x00000000       0x24 c:/altera/13.1/nios2eds/bin/gnu/h-i686-mingw32/bin/../lib/gcc/nios2-elf/4.7.3/../../../../../H-i686-mingw32/nios2-elf/lib\libc.a(lib_a-printf.o)
 .comment       0x00000000       0x24 c:/altera/13.1/nios2eds/bin/gnu/h-i686-mingw32/bin/../lib/gcc/nios2-elf/4.7.3/../../../../../H-i686-mingw32/nios2-elf/lib\libc.a(lib_a-puts.o)
 .comment       0x00000000       0x24 c:/altera/13.1/nios2eds/bin/gnu/h-i686-mingw32/bin/../lib/gcc/nios2-elf/4.7.3/../../../../../H-i686-mingw32/nios2-elf/lib\libc.a(lib_a-rand.o)
 .comment       0x00000000       0x24 c:/altera/13.1/nios2eds/bin/gnu/h-i686-mingw32/bin/../lib/gcc/nios2-elf/4.7.3/../../../../../H-i686-mingw32/nios2-elf/lib\libc.a(lib_a-reallocr.o)
 .comment       0x00000000       0x24 c:/altera/13.1/nios2eds/bin/gnu/h-i686-mingw32/bin/../lib/gcc/nios2-elf/4.7.3/../../../../../H-i686-mingw32/nios2-elf/lib\libc.a(lib_a-sbrkr.o)
 .comment       0x00000000       0x24 c:/altera/13.1/nios2eds/bin/gnu/h-i686-mingw32/bin/../lib/gcc/nios2-elf/4.7.3/../../../../../H-i686-mingw32/nios2-elf/lib\libc.a(lib_a-stdio.o)
 .comment       0x00000000       0x24 c:/altera/13.1/nios2eds/bin/gnu/h-i686-mingw32/bin/../lib/gcc/nios2-elf/4.7.3/../../../../../H-i686-mingw32/nios2-elf/lib\libc.a(lib_a-strcpy.o)
 .comment       0x00000000       0x24 c:/altera/13.1/nios2eds/bin/gnu/h-i686-mingw32/bin/../lib/gcc/nios2-elf/4.7.3/../../../../../H-i686-mingw32/nios2-elf/lib\libc.a(lib_a-strlen.o)
 .comment       0x00000000       0x24 c:/altera/13.1/nios2eds/bin/gnu/h-i686-mingw32/bin/../lib/gcc/nios2-elf/4.7.3/../../../../../H-i686-mingw32/nios2-elf/lib\libc.a(lib_a-vfprintf.o)
 .comment       0x00000000       0x24 c:/altera/13.1/nios2eds/bin/gnu/h-i686-mingw32/bin/../lib/gcc/nios2-elf/4.7.3/../../../../../H-i686-mingw32/nios2-elf/lib\libc.a(lib_a-writer.o)
 .comment       0x00000000       0x24 c:/altera/13.1/nios2eds/bin/gnu/h-i686-mingw32/bin/../lib/gcc/nios2-elf/4.7.3/../../../../../H-i686-mingw32/nios2-elf/lib\libc.a(lib_a-wsetup.o)
 .comment       0x00000000       0x24 c:/altera/13.1/nios2eds/bin/gnu/h-i686-mingw32/bin/../lib/gcc/nios2-elf/4.7.3/../../../../../H-i686-mingw32/nios2-elf/lib\libc.a(lib_a-__call_atexit.o)
 .comment       0x00000000       0x24 c:/altera/13.1/nios2eds/bin/gnu/h-i686-mingw32/bin/../lib/gcc/nios2-elf/4.7.3/../../../../../H-i686-mingw32/nios2-elf/lib\libc.a(lib_a-closer.o)
 .comment       0x00000000       0x24 c:/altera/13.1/nios2eds/bin/gnu/h-i686-mingw32/bin/../lib/gcc/nios2-elf/4.7.3/../../../../../H-i686-mingw32/nios2-elf/lib\libc.a(lib_a-dtoa.o)
 .comment       0x00000000       0x24 c:/altera/13.1/nios2eds/bin/gnu/h-i686-mingw32/bin/../lib/gcc/nios2-elf/4.7.3/../../../../../H-i686-mingw32/nios2-elf/lib\libc.a(lib_a-fclose.o)
 .comment       0x00000000       0x24 c:/altera/13.1/nios2eds/bin/gnu/h-i686-mingw32/bin/../lib/gcc/nios2-elf/4.7.3/../../../../../H-i686-mingw32/nios2-elf/lib\libc.a(lib_a-freer.o)
 .comment       0x00000000       0x24 c:/altera/13.1/nios2eds/bin/gnu/h-i686-mingw32/bin/../lib/gcc/nios2-elf/4.7.3/../../../../../H-i686-mingw32/nios2-elf/lib\libc.a(lib_a-int_errno.o)
 .comment       0x00000000       0x24 c:/altera/13.1/nios2eds/bin/gnu/h-i686-mingw32/bin/../lib/gcc/nios2-elf/4.7.3/../../../../../H-i686-mingw32/nios2-elf/lib\libc.a(lib_a-locale.o)
 .comment       0x00000000       0x24 c:/altera/13.1/nios2eds/bin/gnu/h-i686-mingw32/bin/../lib/gcc/nios2-elf/4.7.3/../../../../../H-i686-mingw32/nios2-elf/lib\libc.a(lib_a-lseekr.o)
 .comment       0x00000000       0x24 c:/altera/13.1/nios2eds/bin/gnu/h-i686-mingw32/bin/../lib/gcc/nios2-elf/4.7.3/../../../../../H-i686-mingw32/nios2-elf/lib\libc.a(lib_a-makebuf.o)
 .comment       0x00000000       0x24 c:/altera/13.1/nios2eds/bin/gnu/h-i686-mingw32/bin/../lib/gcc/nios2-elf/4.7.3/../../../../../H-i686-mingw32/nios2-elf/lib\libc.a(lib_a-mprec.o)
 .comment       0x00000000       0x24 c:/altera/13.1/nios2eds/bin/gnu/h-i686-mingw32/bin/../lib/gcc/nios2-elf/4.7.3/../../../../../H-i686-mingw32/nios2-elf/lib\libc.a(lib_a-readr.o)
 .comment       0x00000000       0x24 c:/altera/13.1/nios2eds/bin/gnu/h-i686-mingw32/bin/../lib/gcc/nios2-elf/4.7.3/../../../../../H-i686-mingw32/nios2-elf/lib\libc.a(lib_a-s_isinfd.o)
 .comment       0x00000000       0x24 c:/altera/13.1/nios2eds/bin/gnu/h-i686-mingw32/bin/../lib/gcc/nios2-elf/4.7.3/../../../../../H-i686-mingw32/nios2-elf/lib\libc.a(lib_a-s_isnand.o)
 .comment       0x00000000       0x24 c:/altera/13.1/nios2eds/bin/gnu/h-i686-mingw32/bin/../lib/gcc/nios2-elf/4.7.3/../../../../../H-i686-mingw32/nios2-elf/lib\libc.a(lib_a-strcmp.o)
 .comment       0x00000000       0x24 c:/altera/13.1/nios2eds/bin/gnu/h-i686-mingw32/bin/../lib/gcc/nios2-elf/4.7.3/../../../../../H-i686-mingw32/nios2-elf/lib\libc.a(lib_a-callocr.o)
 .comment       0x00000000       0x24 c:/altera/13.1/nios2eds/bin/gnu/h-i686-mingw32/bin/../lib/gcc/nios2-elf/4.7.3/../../../../../H-i686-mingw32/nios2-elf/lib\libc.a(lib_a-fstatr.o)
 .comment       0x00000000       0x24 c:/altera/13.1/nios2eds/bin/gnu/h-i686-mingw32/bin/../lib/gcc/nios2-elf/4.7.3/../../../../../H-i686-mingw32/nios2-elf/lib\libc.a(lib_a-isattyr.o)
 .comment       0x00000000       0x24 c:/altera/13.1/nios2eds/bin/gnu/h-i686-mingw32/bin/../lib/gcc/nios2-elf/4.7.3\libgcc.a(_muldi3.o)
 .comment       0x00000000       0x24 c:/altera/13.1/nios2eds/bin/gnu/h-i686-mingw32/bin/../lib/gcc/nios2-elf/4.7.3\libgcc.a(_udivdi3.o)
 .comment       0x00000000       0x24 c:/altera/13.1/nios2eds/bin/gnu/h-i686-mingw32/bin/../lib/gcc/nios2-elf/4.7.3\libgcc.a(_umoddi3.o)
 .comment       0x00000000       0x24 c:/altera/13.1/nios2eds/bin/gnu/h-i686-mingw32/bin/../lib/gcc/nios2-elf/4.7.3\libgcc.a(_addsub_df.o)
 .comment       0x00000000       0x24 c:/altera/13.1/nios2eds/bin/gnu/h-i686-mingw32/bin/../lib/gcc/nios2-elf/4.7.3\libgcc.a(_mul_df.o)
 .comment       0x00000000       0x24 c:/altera/13.1/nios2eds/bin/gnu/h-i686-mingw32/bin/../lib/gcc/nios2-elf/4.7.3\libgcc.a(_div_df.o)
 .comment       0x00000000       0x24 c:/altera/13.1/nios2eds/bin/gnu/h-i686-mingw32/bin/../lib/gcc/nios2-elf/4.7.3\libgcc.a(_eq_df.o)
 .comment       0x00000000       0x24 c:/altera/13.1/nios2eds/bin/gnu/h-i686-mingw32/bin/../lib/gcc/nios2-elf/4.7.3\libgcc.a(_ne_df.o)
 .comment       0x00000000       0x24 c:/altera/13.1/nios2eds/bin/gnu/h-i686-mingw32/bin/../lib/gcc/nios2-elf/4.7.3\libgcc.a(_gt_df.o)
 .comment       0x00000000       0x24 c:/altera/13.1/nios2eds/bin/gnu/h-i686-mingw32/bin/../lib/gcc/nios2-elf/4.7.3\libgcc.a(_ge_df.o)
 .comment       0x00000000       0x24 c:/altera/13.1/nios2eds/bin/gnu/h-i686-mingw32/bin/../lib/gcc/nios2-elf/4.7.3\libgcc.a(_lt_df.o)
 .comment       0x00000000       0x24 c:/altera/13.1/nios2eds/bin/gnu/h-i686-mingw32/bin/../lib/gcc/nios2-elf/4.7.3\libgcc.a(_si_to_df.o)
 .comment       0x00000000       0x24 c:/altera/13.1/nios2eds/bin/gnu/h-i686-mingw32/bin/../lib/gcc/nios2-elf/4.7.3\libgcc.a(_df_to_si.o)
 .comment       0x00000000       0x24 c:/altera/13.1/nios2eds/bin/gnu/h-i686-mingw32/bin/../lib/gcc/nios2-elf/4.7.3\libgcc.a(_thenan_df.o)
 .comment       0x00000000       0x24 c:/altera/13.1/nios2eds/bin/gnu/h-i686-mingw32/bin/../lib/gcc/nios2-elf/4.7.3\libgcc.a(_usi_to_df.o)
 .comment       0x00000000       0x24 c:/altera/13.1/nios2eds/bin/gnu/h-i686-mingw32/bin/../lib/gcc/nios2-elf/4.7.3\libgcc.a(_clz.o)
 .comment       0x00000000       0x24 c:/altera/13.1/nios2eds/bin/gnu/h-i686-mingw32/bin/../lib/gcc/nios2-elf/4.7.3\libgcc.a(_clzsi2.o)
 .comment       0x00000000       0x24 c:/altera/13.1/nios2eds/bin/gnu/h-i686-mingw32/bin/../lib/gcc/nios2-elf/4.7.3\libgcc.a(_pack_df.o)
 .comment       0x00000000       0x24 c:/altera/13.1/nios2eds/bin/gnu/h-i686-mingw32/bin/../lib/gcc/nios2-elf/4.7.3\libgcc.a(_unpack_df.o)
 .comment       0x00000000       0x24 c:/altera/13.1/nios2eds/bin/gnu/h-i686-mingw32/bin/../lib/gcc/nios2-elf/4.7.3\libgcc.a(_fpcmp_parts_df.o)
 .comment       0x00000000       0x24 c:/altera/13.1/nios2eds/bin/gnu/h-i686-mingw32/bin/../lib/gcc/nios2-elf/4.7.3\libgcc.a(_lshrdi3.o)
 .comment       0x00000000       0x24 c:/altera/13.1/nios2eds/bin/gnu/h-i686-mingw32/bin/../lib/gcc/nios2-elf/4.7.3\libgcc.a(_ashldi3.o)
 .comment       0x00000000       0x24 ../UcosiiBSP_for_cpu_s1/\libucosii_bsp.a(alt_close.o)
 .comment       0x00000000       0x24 ../UcosiiBSP_for_cpu_s1/\libucosii_bsp.a(alt_dev.o)
 .comment       0x00000000       0x24 ../UcosiiBSP_for_cpu_s1/\libucosii_bsp.a(alt_errno.o)
 .comment       0x00000000       0x24 ../UcosiiBSP_for_cpu_s1/\libucosii_bsp.a(alt_exit.o)
 .comment       0x00000000       0x24 ../UcosiiBSP_for_cpu_s1/\libucosii_bsp.a(alt_fstat.o)
 .comment       0x00000000       0x24 ../UcosiiBSP_for_cpu_s1/\libucosii_bsp.a(alt_irq_register.o)
 .comment       0x00000000       0x24 ../UcosiiBSP_for_cpu_s1/\libucosii_bsp.a(alt_irq_vars.o)
 .comment       0x00000000       0x24 ../UcosiiBSP_for_cpu_s1/\libucosii_bsp.a(alt_isatty.o)
 .comment       0x00000000       0x24 ../UcosiiBSP_for_cpu_s1/\libucosii_bsp.a(alt_load.o)
 .comment       0x00000000       0x24 ../UcosiiBSP_for_cpu_s1/\libucosii_bsp.a(alt_lseek.o)
 .comment       0x00000000       0x24 ../UcosiiBSP_for_cpu_s1/\libucosii_bsp.a(alt_main.o)
 .comment       0x00000000       0x24 ../UcosiiBSP_for_cpu_s1/\libucosii_bsp.a(alt_read.o)
 .comment       0x00000000       0x24 ../UcosiiBSP_for_cpu_s1/\libucosii_bsp.a(alt_release_fd.o)
 .comment       0x00000000       0x24 ../UcosiiBSP_for_cpu_s1/\libucosii_bsp.a(alt_sbrk.o)
 .comment       0x00000000       0x24 ../UcosiiBSP_for_cpu_s1/\libucosii_bsp.a(alt_usleep.o)
 .comment       0x00000000       0x24 ../UcosiiBSP_for_cpu_s1/\libucosii_bsp.a(alt_write.o)
 .comment       0x00000000       0x24 ../UcosiiBSP_for_cpu_s1/\libucosii_bsp.a(alt_env_lock.o)
 .comment       0x00000000       0x24 ../UcosiiBSP_for_cpu_s1/\libucosii_bsp.a(alt_malloc_lock.o)
 .comment       0x00000000       0x24 ../UcosiiBSP_for_cpu_s1/\libucosii_bsp.a(os_core.o)
 .comment       0x00000000       0x24 ../UcosiiBSP_for_cpu_s1/\libucosii_bsp.a(os_dbg.o)
 .comment       0x00000000       0x24 ../UcosiiBSP_for_cpu_s1/\libucosii_bsp.a(os_flag.o)
 .comment       0x00000000       0x24 ../UcosiiBSP_for_cpu_s1/\libucosii_bsp.a(os_mem.o)
 .comment       0x00000000       0x24 ../UcosiiBSP_for_cpu_s1/\libucosii_bsp.a(os_mutex.o)
 .comment       0x00000000       0x24 ../UcosiiBSP_for_cpu_s1/\libucosii_bsp.a(os_q.o)
 .comment       0x00000000       0x24 ../UcosiiBSP_for_cpu_s1/\libucosii_bsp.a(os_sem.o)
 .comment       0x00000000       0x24 ../UcosiiBSP_for_cpu_s1/\libucosii_bsp.a(os_task.o)
 .comment       0x00000000       0x24 ../UcosiiBSP_for_cpu_s1/\libucosii_bsp.a(os_time.o)
 .comment       0x00000000       0x24 ../UcosiiBSP_for_cpu_s1/\libucosii_bsp.a(alt_sys_init.o)
 .comment       0x00000000       0x24 ../UcosiiBSP_for_cpu_s1/\libucosii_bsp.a(altera_avalon_jtag_uart_fd.o)
 .comment       0x00000000       0x24 ../UcosiiBSP_for_cpu_s1/\libucosii_bsp.a(altera_avalon_jtag_uart_read.o)
 .comment       0x00000000       0x24 ../UcosiiBSP_for_cpu_s1/\libucosii_bsp.a(altera_avalon_jtag_uart_write.o)
 .comment       0x00000000       0x24 ../UcosiiBSP_for_cpu_s1/\libucosii_bsp.a(altera_avalon_timer_sc.o)
 .comment       0x00000000       0x24 ../UcosiiBSP_for_cpu_s1/\libucosii_bsp.a(alt_busy_sleep.o)
 .comment       0x00000000       0x24 ../UcosiiBSP_for_cpu_s1/\libucosii_bsp.a(alt_dcache_flush_all.o)
 .comment       0x00000000       0x24 ../UcosiiBSP_for_cpu_s1/\libucosii_bsp.a(alt_dev_llist_insert.o)
 .comment       0x00000000       0x24 ../UcosiiBSP_for_cpu_s1/\libucosii_bsp.a(alt_icache_flush_all.o)
 .comment       0x00000000       0x24 ../UcosiiBSP_for_cpu_s1/\libucosii_bsp.a(alt_io_redirect.o)
 .comment       0x00000000       0x24 ../UcosiiBSP_for_cpu_s1/\libucosii_bsp.a(alt_irq_handler.o)
 .comment       0x00000000       0x24 ../UcosiiBSP_for_cpu_s1/\libucosii_bsp.a(alt_open.o)
 .comment       0x00000000       0x24 ../UcosiiBSP_for_cpu_s1/\libucosii_bsp.a(alt_tick.o)
 .comment       0x00000000       0x24 ../UcosiiBSP_for_cpu_s1/\libucosii_bsp.a(altera_nios2_qsys_irq.o)
 .comment       0x00000000       0x24 ../UcosiiBSP_for_cpu_s1/\libucosii_bsp.a(os_cpu_c.o)
 .comment       0x00000000       0x24 ../UcosiiBSP_for_cpu_s1/\libucosii_bsp.a(alt_find_dev.o)
 .comment       0x00000000       0x24 ../UcosiiBSP_for_cpu_s1/\libucosii_bsp.a(alt_find_file.o)
 .comment       0x00000000       0x24 ../UcosiiBSP_for_cpu_s1/\libucosii_bsp.a(alt_get_fd.o)
 .comment       0x00000000       0x24 ../UcosiiBSP_for_cpu_s1/\libucosii_bsp.a(alt_icache_flush.o)
 .comment       0x00000000       0x24 c:/altera/13.1/nios2eds/bin/gnu/h-i686-mingw32/bin/../lib/gcc/nios2-elf/4.7.3/../../../../../H-i686-mingw32/nios2-elf/lib\libc.a(lib_a-memcmp.o)
 .comment       0x00000000       0x24 c:/altera/13.1/nios2eds/bin/gnu/h-i686-mingw32/bin/../lib/gcc/nios2-elf/4.7.3\libgcc.a(_fixunsdfsi.o)

.debug
 *(.debug)

.line
 *(.line)

.debug_srcinfo
 *(.debug_srcinfo)

.debug_sfnames
 *(.debug_sfnames)

.debug_aranges  0x00000000      0xe80
 *(.debug_aranges)
 .debug_aranges
                0x00000000       0x28 ../UcosiiBSP_for_cpu_s1//obj/HAL/src/crt0.o
 .debug_aranges
                0x00000028       0x20 c:/altera/13.1/nios2eds/bin/gnu/h-i686-mingw32/bin/../lib/gcc/nios2-elf/4.7.3\libgcc.a(lib2-divmod.o)
 .debug_aranges
                0x00000048       0x20 c:/altera/13.1/nios2eds/bin/gnu/h-i686-mingw32/bin/../lib/gcc/nios2-elf/4.7.3/../../../../../H-i686-mingw32/nios2-elf/lib\libc.a(lib_a-exit.o)
 .debug_aranges
                0x00000068       0x20 c:/altera/13.1/nios2eds/bin/gnu/h-i686-mingw32/bin/../lib/gcc/nios2-elf/4.7.3/../../../../../H-i686-mingw32/nios2-elf/lib\libc.a(lib_a-fflush.o)
 .debug_aranges
                0x00000088       0x20 c:/altera/13.1/nios2eds/bin/gnu/h-i686-mingw32/bin/../lib/gcc/nios2-elf/4.7.3/../../../../../H-i686-mingw32/nios2-elf/lib\libc.a(lib_a-findfp.o)
 .debug_aranges
                0x000000a8       0x20 c:/altera/13.1/nios2eds/bin/gnu/h-i686-mingw32/bin/../lib/gcc/nios2-elf/4.7.3/../../../../../H-i686-mingw32/nios2-elf/lib\libc.a(lib_a-fprintf.o)
 .debug_aranges
                0x000000c8       0x20 c:/altera/13.1/nios2eds/bin/gnu/h-i686-mingw32/bin/../lib/gcc/nios2-elf/4.7.3/../../../../../H-i686-mingw32/nios2-elf/lib\libc.a(lib_a-fputs.o)
 .debug_aranges
                0x000000e8       0x20 c:/altera/13.1/nios2eds/bin/gnu/h-i686-mingw32/bin/../lib/gcc/nios2-elf/4.7.3/../../../../../H-i686-mingw32/nios2-elf/lib\libc.a(lib_a-fvwrite.o)
 .debug_aranges
                0x00000108       0x20 c:/altera/13.1/nios2eds/bin/gnu/h-i686-mingw32/bin/../lib/gcc/nios2-elf/4.7.3/../../../../../H-i686-mingw32/nios2-elf/lib\libc.a(lib_a-fwalk.o)
 .debug_aranges
                0x00000128       0x18 c:/altera/13.1/nios2eds/bin/gnu/h-i686-mingw32/bin/../lib/gcc/nios2-elf/4.7.3/../../../../../H-i686-mingw32/nios2-elf/lib\libc.a(lib_a-impure.o)
 .debug_aranges
                0x00000140       0x20 c:/altera/13.1/nios2eds/bin/gnu/h-i686-mingw32/bin/../lib/gcc/nios2-elf/4.7.3/../../../../../H-i686-mingw32/nios2-elf/lib\libc.a(lib_a-mallocr.o)
 .debug_aranges
                0x00000160       0x20 c:/altera/13.1/nios2eds/bin/gnu/h-i686-mingw32/bin/../lib/gcc/nios2-elf/4.7.3/../../../../../H-i686-mingw32/nios2-elf/lib\libc.a(lib_a-memchr.o)
 .debug_aranges
                0x00000180       0x20 c:/altera/13.1/nios2eds/bin/gnu/h-i686-mingw32/bin/../lib/gcc/nios2-elf/4.7.3/../../../../../H-i686-mingw32/nios2-elf/lib\libc.a(lib_a-memcpy.o)
 .debug_aranges
                0x000001a0       0x20 c:/altera/13.1/nios2eds/bin/gnu/h-i686-mingw32/bin/../lib/gcc/nios2-elf/4.7.3/../../../../../H-i686-mingw32/nios2-elf/lib\libc.a(lib_a-memmove.o)
 .debug_aranges
                0x000001c0       0x20 c:/altera/13.1/nios2eds/bin/gnu/h-i686-mingw32/bin/../lib/gcc/nios2-elf/4.7.3/../../../../../H-i686-mingw32/nios2-elf/lib\libc.a(lib_a-memset.o)
 .debug_aranges
                0x000001e0       0x20 c:/altera/13.1/nios2eds/bin/gnu/h-i686-mingw32/bin/../lib/gcc/nios2-elf/4.7.3/../../../../../H-i686-mingw32/nios2-elf/lib\libc.a(lib_a-printf.o)
 .debug_aranges
                0x00000200       0x20 c:/altera/13.1/nios2eds/bin/gnu/h-i686-mingw32/bin/../lib/gcc/nios2-elf/4.7.3/../../../../../H-i686-mingw32/nios2-elf/lib\libc.a(lib_a-puts.o)
 .debug_aranges
                0x00000220       0x20 c:/altera/13.1/nios2eds/bin/gnu/h-i686-mingw32/bin/../lib/gcc/nios2-elf/4.7.3/../../../../../H-i686-mingw32/nios2-elf/lib\libc.a(lib_a-rand.o)
 .debug_aranges
                0x00000240       0x20 c:/altera/13.1/nios2eds/bin/gnu/h-i686-mingw32/bin/../lib/gcc/nios2-elf/4.7.3/../../../../../H-i686-mingw32/nios2-elf/lib\libc.a(lib_a-reallocr.o)
 .debug_aranges
                0x00000260       0x20 c:/altera/13.1/nios2eds/bin/gnu/h-i686-mingw32/bin/../lib/gcc/nios2-elf/4.7.3/../../../../../H-i686-mingw32/nios2-elf/lib\libc.a(lib_a-sbrkr.o)
 .debug_aranges
                0x00000280       0x20 c:/altera/13.1/nios2eds/bin/gnu/h-i686-mingw32/bin/../lib/gcc/nios2-elf/4.7.3/../../../../../H-i686-mingw32/nios2-elf/lib\libc.a(lib_a-stdio.o)
 .debug_aranges
                0x000002a0       0x20 c:/altera/13.1/nios2eds/bin/gnu/h-i686-mingw32/bin/../lib/gcc/nios2-elf/4.7.3/../../../../../H-i686-mingw32/nios2-elf/lib\libc.a(lib_a-strcpy.o)
 .debug_aranges
                0x000002c0       0x20 c:/altera/13.1/nios2eds/bin/gnu/h-i686-mingw32/bin/../lib/gcc/nios2-elf/4.7.3/../../../../../H-i686-mingw32/nios2-elf/lib\libc.a(lib_a-strlen.o)
 .debug_aranges
                0x000002e0       0x20 c:/altera/13.1/nios2eds/bin/gnu/h-i686-mingw32/bin/../lib/gcc/nios2-elf/4.7.3/../../../../../H-i686-mingw32/nios2-elf/lib\libc.a(lib_a-vfprintf.o)
 .debug_aranges
                0x00000300       0x20 c:/altera/13.1/nios2eds/bin/gnu/h-i686-mingw32/bin/../lib/gcc/nios2-elf/4.7.3/../../../../../H-i686-mingw32/nios2-elf/lib\libc.a(lib_a-writer.o)
 .debug_aranges
                0x00000320       0x20 c:/altera/13.1/nios2eds/bin/gnu/h-i686-mingw32/bin/../lib/gcc/nios2-elf/4.7.3/../../../../../H-i686-mingw32/nios2-elf/lib\libc.a(lib_a-wsetup.o)
 .debug_aranges
                0x00000340       0x20 c:/altera/13.1/nios2eds/bin/gnu/h-i686-mingw32/bin/../lib/gcc/nios2-elf/4.7.3/../../../../../H-i686-mingw32/nios2-elf/lib\libc.a(lib_a-__call_atexit.o)
 .debug_aranges
                0x00000360       0x20 c:/altera/13.1/nios2eds/bin/gnu/h-i686-mingw32/bin/../lib/gcc/nios2-elf/4.7.3/../../../../../H-i686-mingw32/nios2-elf/lib\libc.a(lib_a-closer.o)
 .debug_aranges
                0x00000380       0x20 c:/altera/13.1/nios2eds/bin/gnu/h-i686-mingw32/bin/../lib/gcc/nios2-elf/4.7.3/../../../../../H-i686-mingw32/nios2-elf/lib\libc.a(lib_a-dtoa.o)
 .debug_aranges
                0x000003a0       0x20 c:/altera/13.1/nios2eds/bin/gnu/h-i686-mingw32/bin/../lib/gcc/nios2-elf/4.7.3/../../../../../H-i686-mingw32/nios2-elf/lib\libc.a(lib_a-fclose.o)
 .debug_aranges
                0x000003c0       0x20 c:/altera/13.1/nios2eds/bin/gnu/h-i686-mingw32/bin/../lib/gcc/nios2-elf/4.7.3/../../../../../H-i686-mingw32/nios2-elf/lib\libc.a(lib_a-freer.o)
 .debug_aranges
                0x000003e0       0x18 c:/altera/13.1/nios2eds/bin/gnu/h-i686-mingw32/bin/../lib/gcc/nios2-elf/4.7.3/../../../../../H-i686-mingw32/nios2-elf/lib\libc.a(lib_a-int_errno.o)
 .debug_aranges
                0x000003f8       0x20 c:/altera/13.1/nios2eds/bin/gnu/h-i686-mingw32/bin/../lib/gcc/nios2-elf/4.7.3/../../../../../H-i686-mingw32/nios2-elf/lib\libc.a(lib_a-locale.o)
 .debug_aranges
                0x00000418       0x20 c:/altera/13.1/nios2eds/bin/gnu/h-i686-mingw32/bin/../lib/gcc/nios2-elf/4.7.3/../../../../../H-i686-mingw32/nios2-elf/lib\libc.a(lib_a-lseekr.o)
 .debug_aranges
                0x00000438       0x20 c:/altera/13.1/nios2eds/bin/gnu/h-i686-mingw32/bin/../lib/gcc/nios2-elf/4.7.3/../../../../../H-i686-mingw32/nios2-elf/lib\libc.a(lib_a-makebuf.o)
 .debug_aranges
                0x00000458       0x20 c:/altera/13.1/nios2eds/bin/gnu/h-i686-mingw32/bin/../lib/gcc/nios2-elf/4.7.3/../../../../../H-i686-mingw32/nios2-elf/lib\libc.a(lib_a-mprec.o)
 .debug_aranges
                0x00000478       0x20 c:/altera/13.1/nios2eds/bin/gnu/h-i686-mingw32/bin/../lib/gcc/nios2-elf/4.7.3/../../../../../H-i686-mingw32/nios2-elf/lib\libc.a(lib_a-readr.o)
 .debug_aranges
                0x00000498       0x20 c:/altera/13.1/nios2eds/bin/gnu/h-i686-mingw32/bin/../lib/gcc/nios2-elf/4.7.3/../../../../../H-i686-mingw32/nios2-elf/lib\libc.a(lib_a-s_isinfd.o)
 .debug_aranges
                0x000004b8       0x20 c:/altera/13.1/nios2eds/bin/gnu/h-i686-mingw32/bin/../lib/gcc/nios2-elf/4.7.3/../../../../../H-i686-mingw32/nios2-elf/lib\libc.a(lib_a-s_isnand.o)
 .debug_aranges
                0x000004d8       0x20 c:/altera/13.1/nios2eds/bin/gnu/h-i686-mingw32/bin/../lib/gcc/nios2-elf/4.7.3/../../../../../H-i686-mingw32/nios2-elf/lib\libc.a(lib_a-strcmp.o)
 .debug_aranges
                0x000004f8       0x20 c:/altera/13.1/nios2eds/bin/gnu/h-i686-mingw32/bin/../lib/gcc/nios2-elf/4.7.3/../../../../../H-i686-mingw32/nios2-elf/lib\libc.a(lib_a-callocr.o)
 .debug_aranges
                0x00000518       0x20 c:/altera/13.1/nios2eds/bin/gnu/h-i686-mingw32/bin/../lib/gcc/nios2-elf/4.7.3/../../../../../H-i686-mingw32/nios2-elf/lib\libc.a(lib_a-fstatr.o)
 .debug_aranges
                0x00000538       0x20 c:/altera/13.1/nios2eds/bin/gnu/h-i686-mingw32/bin/../lib/gcc/nios2-elf/4.7.3/../../../../../H-i686-mingw32/nios2-elf/lib\libc.a(lib_a-isattyr.o)
 .debug_aranges
                0x00000558       0x20 c:/altera/13.1/nios2eds/bin/gnu/h-i686-mingw32/bin/../lib/gcc/nios2-elf/4.7.3\libgcc.a(_muldi3.o)
 .debug_aranges
                0x00000578       0x20 c:/altera/13.1/nios2eds/bin/gnu/h-i686-mingw32/bin/../lib/gcc/nios2-elf/4.7.3\libgcc.a(_udivdi3.o)
 .debug_aranges
                0x00000598       0x20 c:/altera/13.1/nios2eds/bin/gnu/h-i686-mingw32/bin/../lib/gcc/nios2-elf/4.7.3\libgcc.a(_umoddi3.o)
 .debug_aranges
                0x000005b8       0x20 c:/altera/13.1/nios2eds/bin/gnu/h-i686-mingw32/bin/../lib/gcc/nios2-elf/4.7.3\libgcc.a(_addsub_df.o)
 .debug_aranges
                0x000005d8       0x20 c:/altera/13.1/nios2eds/bin/gnu/h-i686-mingw32/bin/../lib/gcc/nios2-elf/4.7.3\libgcc.a(_mul_df.o)
 .debug_aranges
                0x000005f8       0x20 c:/altera/13.1/nios2eds/bin/gnu/h-i686-mingw32/bin/../lib/gcc/nios2-elf/4.7.3\libgcc.a(_div_df.o)
 .debug_aranges
                0x00000618       0x20 c:/altera/13.1/nios2eds/bin/gnu/h-i686-mingw32/bin/../lib/gcc/nios2-elf/4.7.3\libgcc.a(_eq_df.o)
 .debug_aranges
                0x00000638       0x20 c:/altera/13.1/nios2eds/bin/gnu/h-i686-mingw32/bin/../lib/gcc/nios2-elf/4.7.3\libgcc.a(_ne_df.o)
 .debug_aranges
                0x00000658       0x20 c:/altera/13.1/nios2eds/bin/gnu/h-i686-mingw32/bin/../lib/gcc/nios2-elf/4.7.3\libgcc.a(_gt_df.o)
 .debug_aranges
                0x00000678       0x20 c:/altera/13.1/nios2eds/bin/gnu/h-i686-mingw32/bin/../lib/gcc/nios2-elf/4.7.3\libgcc.a(_ge_df.o)
 .debug_aranges
                0x00000698       0x20 c:/altera/13.1/nios2eds/bin/gnu/h-i686-mingw32/bin/../lib/gcc/nios2-elf/4.7.3\libgcc.a(_lt_df.o)
 .debug_aranges
                0x000006b8       0x20 c:/altera/13.1/nios2eds/bin/gnu/h-i686-mingw32/bin/../lib/gcc/nios2-elf/4.7.3\libgcc.a(_si_to_df.o)
 .debug_aranges
                0x000006d8       0x20 c:/altera/13.1/nios2eds/bin/gnu/h-i686-mingw32/bin/../lib/gcc/nios2-elf/4.7.3\libgcc.a(_df_to_si.o)
 .debug_aranges
                0x000006f8       0x18 c:/altera/13.1/nios2eds/bin/gnu/h-i686-mingw32/bin/../lib/gcc/nios2-elf/4.7.3\libgcc.a(_thenan_df.o)
 .debug_aranges
                0x00000710       0x20 c:/altera/13.1/nios2eds/bin/gnu/h-i686-mingw32/bin/../lib/gcc/nios2-elf/4.7.3\libgcc.a(_usi_to_df.o)
 .debug_aranges
                0x00000730       0x18 c:/altera/13.1/nios2eds/bin/gnu/h-i686-mingw32/bin/../lib/gcc/nios2-elf/4.7.3\libgcc.a(_clz.o)
 .debug_aranges
                0x00000748       0x20 c:/altera/13.1/nios2eds/bin/gnu/h-i686-mingw32/bin/../lib/gcc/nios2-elf/4.7.3\libgcc.a(_clzsi2.o)
 .debug_aranges
                0x00000768       0x20 c:/altera/13.1/nios2eds/bin/gnu/h-i686-mingw32/bin/../lib/gcc/nios2-elf/4.7.3\libgcc.a(_pack_df.o)
 .debug_aranges
                0x00000788       0x20 c:/altera/13.1/nios2eds/bin/gnu/h-i686-mingw32/bin/../lib/gcc/nios2-elf/4.7.3\libgcc.a(_unpack_df.o)
 .debug_aranges
                0x000007a8       0x20 c:/altera/13.1/nios2eds/bin/gnu/h-i686-mingw32/bin/../lib/gcc/nios2-elf/4.7.3\libgcc.a(_fpcmp_parts_df.o)
 .debug_aranges
                0x000007c8       0x20 c:/altera/13.1/nios2eds/bin/gnu/h-i686-mingw32/bin/../lib/gcc/nios2-elf/4.7.3\libgcc.a(_lshrdi3.o)
 .debug_aranges
                0x000007e8       0x20 c:/altera/13.1/nios2eds/bin/gnu/h-i686-mingw32/bin/../lib/gcc/nios2-elf/4.7.3\libgcc.a(_ashldi3.o)
 .debug_aranges
                0x00000808       0x20 ../UcosiiBSP_for_cpu_s1/\libucosii_bsp.a(alt_close.o)
 .debug_aranges
                0x00000828       0x20 ../UcosiiBSP_for_cpu_s1/\libucosii_bsp.a(alt_dev.o)
 .debug_aranges
                0x00000848       0x18 ../UcosiiBSP_for_cpu_s1/\libucosii_bsp.a(alt_errno.o)
 .debug_aranges
                0x00000860       0x20 ../UcosiiBSP_for_cpu_s1/\libucosii_bsp.a(alt_exit.o)
 .debug_aranges
                0x00000880       0x20 ../UcosiiBSP_for_cpu_s1/\libucosii_bsp.a(alt_fstat.o)
 .debug_aranges
                0x000008a0       0x20 ../UcosiiBSP_for_cpu_s1/\libucosii_bsp.a(alt_irq_register.o)
 .debug_aranges
                0x000008c0       0x18 ../UcosiiBSP_for_cpu_s1/\libucosii_bsp.a(alt_irq_vars.o)
 .debug_aranges
                0x000008d8       0x20 ../UcosiiBSP_for_cpu_s1/\libucosii_bsp.a(alt_isatty.o)
 .debug_aranges
                0x000008f8       0x20 ../UcosiiBSP_for_cpu_s1/\libucosii_bsp.a(alt_load.o)
 .debug_aranges
                0x00000918       0x20 ../UcosiiBSP_for_cpu_s1/\libucosii_bsp.a(alt_lseek.o)
 .debug_aranges
                0x00000938       0x20 ../UcosiiBSP_for_cpu_s1/\libucosii_bsp.a(alt_main.o)
 .debug_aranges
                0x00000958       0x20 ../UcosiiBSP_for_cpu_s1/\libucosii_bsp.a(alt_read.o)
 .debug_aranges
                0x00000978       0x20 ../UcosiiBSP_for_cpu_s1/\libucosii_bsp.a(alt_release_fd.o)
 .debug_aranges
                0x00000998       0x20 ../UcosiiBSP_for_cpu_s1/\libucosii_bsp.a(alt_sbrk.o)
 .debug_aranges
                0x000009b8       0x20 ../UcosiiBSP_for_cpu_s1/\libucosii_bsp.a(alt_usleep.o)
 .debug_aranges
                0x000009d8       0x20 ../UcosiiBSP_for_cpu_s1/\libucosii_bsp.a(alt_write.o)
 .debug_aranges
                0x000009f8       0x20 ../UcosiiBSP_for_cpu_s1/\libucosii_bsp.a(alt_env_lock.o)
 .debug_aranges
                0x00000a18       0x20 ../UcosiiBSP_for_cpu_s1/\libucosii_bsp.a(alt_malloc_lock.o)
 .debug_aranges
                0x00000a38       0x20 ../UcosiiBSP_for_cpu_s1/\libucosii_bsp.a(os_core.o)
 .debug_aranges
                0x00000a58       0x20 ../UcosiiBSP_for_cpu_s1/\libucosii_bsp.a(os_dbg.o)
 .debug_aranges
                0x00000a78       0x20 ../UcosiiBSP_for_cpu_s1/\libucosii_bsp.a(os_flag.o)
 .debug_aranges
                0x00000a98       0x20 ../UcosiiBSP_for_cpu_s1/\libucosii_bsp.a(os_mem.o)
 .debug_aranges
                0x00000ab8       0x20 ../UcosiiBSP_for_cpu_s1/\libucosii_bsp.a(os_mutex.o)
 .debug_aranges
                0x00000ad8       0x20 ../UcosiiBSP_for_cpu_s1/\libucosii_bsp.a(os_q.o)
 .debug_aranges
                0x00000af8       0x20 ../UcosiiBSP_for_cpu_s1/\libucosii_bsp.a(os_sem.o)
 .debug_aranges
                0x00000b18       0x20 ../UcosiiBSP_for_cpu_s1/\libucosii_bsp.a(os_task.o)
 .debug_aranges
                0x00000b38       0x20 ../UcosiiBSP_for_cpu_s1/\libucosii_bsp.a(os_time.o)
 .debug_aranges
                0x00000b58       0x20 ../UcosiiBSP_for_cpu_s1/\libucosii_bsp.a(alt_sys_init.o)
 .debug_aranges
                0x00000b78       0x20 ../UcosiiBSP_for_cpu_s1/\libucosii_bsp.a(altera_avalon_jtag_uart_fd.o)
 .debug_aranges
                0x00000b98       0x20 ../UcosiiBSP_for_cpu_s1/\libucosii_bsp.a(altera_avalon_jtag_uart_read.o)
 .debug_aranges
                0x00000bb8       0x20 ../UcosiiBSP_for_cpu_s1/\libucosii_bsp.a(altera_avalon_jtag_uart_write.o)
 .debug_aranges
                0x00000bd8       0x20 ../UcosiiBSP_for_cpu_s1/\libucosii_bsp.a(altera_avalon_timer_sc.o)
 .debug_aranges
                0x00000bf8       0x20 ../UcosiiBSP_for_cpu_s1/\libucosii_bsp.a(alt_busy_sleep.o)
 .debug_aranges
                0x00000c18       0x20 ../UcosiiBSP_for_cpu_s1/\libucosii_bsp.a(alt_dcache_flush_all.o)
 .debug_aranges
                0x00000c38       0x20 ../UcosiiBSP_for_cpu_s1/\libucosii_bsp.a(alt_dev_llist_insert.o)
 .debug_aranges
                0x00000c58       0x20 ../UcosiiBSP_for_cpu_s1/\libucosii_bsp.a(alt_icache_flush_all.o)
 .debug_aranges
                0x00000c78       0x20 ../UcosiiBSP_for_cpu_s1/\libucosii_bsp.a(alt_io_redirect.o)
 .debug_aranges
                0x00000c98       0x30 ../UcosiiBSP_for_cpu_s1/\libucosii_bsp.a(alt_irq_entry.o)
 .debug_aranges
                0x00000cc8       0x20 ../UcosiiBSP_for_cpu_s1/\libucosii_bsp.a(alt_irq_handler.o)
 .debug_aranges
                0x00000ce8       0x20 ../UcosiiBSP_for_cpu_s1/\libucosii_bsp.a(alt_open.o)
 .debug_aranges
                0x00000d08       0x20 ../UcosiiBSP_for_cpu_s1/\libucosii_bsp.a(alt_tick.o)
 .debug_aranges
                0x00000d28       0x20 ../UcosiiBSP_for_cpu_s1/\libucosii_bsp.a(altera_nios2_qsys_irq.o)
 .debug_aranges
                0x00000d48       0x20 ../UcosiiBSP_for_cpu_s1/\libucosii_bsp.a(os_cpu_a.o)
 .debug_aranges
                0x00000d68       0x20 ../UcosiiBSP_for_cpu_s1/\libucosii_bsp.a(os_cpu_c.o)
 .debug_aranges
                0x00000d88       0x38 ../UcosiiBSP_for_cpu_s1/\libucosii_bsp.a(alt_exception_entry.o)
 .debug_aranges
                0x00000dc0       0x20 ../UcosiiBSP_for_cpu_s1/\libucosii_bsp.a(alt_find_dev.o)
 .debug_aranges
                0x00000de0       0x20 ../UcosiiBSP_for_cpu_s1/\libucosii_bsp.a(alt_find_file.o)
 .debug_aranges
                0x00000e00       0x20 ../UcosiiBSP_for_cpu_s1/\libucosii_bsp.a(alt_get_fd.o)
 .debug_aranges
                0x00000e20       0x20 ../UcosiiBSP_for_cpu_s1/\libucosii_bsp.a(alt_icache_flush.o)
 .debug_aranges
                0x00000e40       0x20 c:/altera/13.1/nios2eds/bin/gnu/h-i686-mingw32/bin/../lib/gcc/nios2-elf/4.7.3/../../../../../H-i686-mingw32/nios2-elf/lib\libc.a(lib_a-memcmp.o)
 .debug_aranges
                0x00000e60       0x20 c:/altera/13.1/nios2eds/bin/gnu/h-i686-mingw32/bin/../lib/gcc/nios2-elf/4.7.3\libgcc.a(_fixunsdfsi.o)

.debug_pubnames
 *(.debug_pubnames)

.debug_info     0x00000000    0x2e6fa
 *(.debug_info .gnu.linkonce.wi.*)
 .debug_info    0x00000000       0x95 ../UcosiiBSP_for_cpu_s1//obj/HAL/src/crt0.o
 .debug_info    0x00000095      0x289 c:/altera/13.1/nios2eds/bin/gnu/h-i686-mingw32/bin/../lib/gcc/nios2-elf/4.7.3\libgcc.a(lib2-divmod.o)
 .debug_info    0x0000031e      0x993 c:/altera/13.1/nios2eds/bin/gnu/h-i686-mingw32/bin/../lib/gcc/nios2-elf/4.7.3/../../../../../H-i686-mingw32/nios2-elf/lib\libc.a(lib_a-exit.o)
 .debug_info    0x00000cb1      0xad0 c:/altera/13.1/nios2eds/bin/gnu/h-i686-mingw32/bin/../lib/gcc/nios2-elf/4.7.3/../../../../../H-i686-mingw32/nios2-elf/lib\libc.a(lib_a-fflush.o)
 .debug_info    0x00001781      0xd6f c:/altera/13.1/nios2eds/bin/gnu/h-i686-mingw32/bin/../lib/gcc/nios2-elf/4.7.3/../../../../../H-i686-mingw32/nios2-elf/lib\libc.a(lib_a-findfp.o)
 .debug_info    0x000024f0      0xa4b c:/altera/13.1/nios2eds/bin/gnu/h-i686-mingw32/bin/../lib/gcc/nios2-elf/4.7.3/../../../../../H-i686-mingw32/nios2-elf/lib\libc.a(lib_a-fprintf.o)
 .debug_info    0x00002f3b      0xaf9 c:/altera/13.1/nios2eds/bin/gnu/h-i686-mingw32/bin/../lib/gcc/nios2-elf/4.7.3/../../../../../H-i686-mingw32/nios2-elf/lib\libc.a(lib_a-fputs.o)
 .debug_info    0x00003a34      0xd05 c:/altera/13.1/nios2eds/bin/gnu/h-i686-mingw32/bin/../lib/gcc/nios2-elf/4.7.3/../../../../../H-i686-mingw32/nios2-elf/lib\libc.a(lib_a-fvwrite.o)
 .debug_info    0x00004739      0xb72 c:/altera/13.1/nios2eds/bin/gnu/h-i686-mingw32/bin/../lib/gcc/nios2-elf/4.7.3/../../../../../H-i686-mingw32/nios2-elf/lib\libc.a(lib_a-fwalk.o)
 .debug_info    0x000052ab      0x938 c:/altera/13.1/nios2eds/bin/gnu/h-i686-mingw32/bin/../lib/gcc/nios2-elf/4.7.3/../../../../../H-i686-mingw32/nios2-elf/lib\libc.a(lib_a-impure.o)
 .debug_info    0x00005be3      0xe44 c:/altera/13.1/nios2eds/bin/gnu/h-i686-mingw32/bin/../lib/gcc/nios2-elf/4.7.3/../../../../../H-i686-mingw32/nios2-elf/lib\libc.a(lib_a-mallocr.o)
 .debug_info    0x00006a27      0x13e c:/altera/13.1/nios2eds/bin/gnu/h-i686-mingw32/bin/../lib/gcc/nios2-elf/4.7.3/../../../../../H-i686-mingw32/nios2-elf/lib\libc.a(lib_a-memchr.o)
 .debug_info    0x00006b65      0x10e c:/altera/13.1/nios2eds/bin/gnu/h-i686-mingw32/bin/../lib/gcc/nios2-elf/4.7.3/../../../../../H-i686-mingw32/nios2-elf/lib\libc.a(lib_a-memcpy.o)
 .debug_info    0x00006c73      0x146 c:/altera/13.1/nios2eds/bin/gnu/h-i686-mingw32/bin/../lib/gcc/nios2-elf/4.7.3/../../../../../H-i686-mingw32/nios2-elf/lib\libc.a(lib_a-memmove.o)
 .debug_info    0x00006db9      0x117 c:/altera/13.1/nios2eds/bin/gnu/h-i686-mingw32/bin/../lib/gcc/nios2-elf/4.7.3/../../../../../H-i686-mingw32/nios2-elf/lib\libc.a(lib_a-memset.o)
 .debug_info    0x00006ed0      0xa6c c:/altera/13.1/nios2eds/bin/gnu/h-i686-mingw32/bin/../lib/gcc/nios2-elf/4.7.3/../../../../../H-i686-mingw32/nios2-elf/lib\libc.a(lib_a-printf.o)
 .debug_info    0x0000793c      0xab7 c:/altera/13.1/nios2eds/bin/gnu/h-i686-mingw32/bin/../lib/gcc/nios2-elf/4.7.3/../../../../../H-i686-mingw32/nios2-elf/lib\libc.a(lib_a-puts.o)
 .debug_info    0x000083f3      0x953 c:/altera/13.1/nios2eds/bin/gnu/h-i686-mingw32/bin/../lib/gcc/nios2-elf/4.7.3/../../../../../H-i686-mingw32/nios2-elf/lib\libc.a(lib_a-rand.o)
 .debug_info    0x00008d46      0xd8e c:/altera/13.1/nios2eds/bin/gnu/h-i686-mingw32/bin/../lib/gcc/nios2-elf/4.7.3/../../../../../H-i686-mingw32/nios2-elf/lib\libc.a(lib_a-reallocr.o)
 .debug_info    0x00009ad4      0x9a3 c:/altera/13.1/nios2eds/bin/gnu/h-i686-mingw32/bin/../lib/gcc/nios2-elf/4.7.3/../../../../../H-i686-mingw32/nios2-elf/lib\libc.a(lib_a-sbrkr.o)
 .debug_info    0x0000a477      0xbfd c:/altera/13.1/nios2eds/bin/gnu/h-i686-mingw32/bin/../lib/gcc/nios2-elf/4.7.3/../../../../../H-i686-mingw32/nios2-elf/lib\libc.a(lib_a-stdio.o)
 .debug_info    0x0000b074      0x114 c:/altera/13.1/nios2eds/bin/gnu/h-i686-mingw32/bin/../lib/gcc/nios2-elf/4.7.3/../../../../../H-i686-mingw32/nios2-elf/lib\libc.a(lib_a-strcpy.o)
 .debug_info    0x0000b188       0xdf c:/altera/13.1/nios2eds/bin/gnu/h-i686-mingw32/bin/../lib/gcc/nios2-elf/4.7.3/../../../../../H-i686-mingw32/nios2-elf/lib\libc.a(lib_a-strlen.o)
 .debug_info    0x0000b267     0x195a c:/altera/13.1/nios2eds/bin/gnu/h-i686-mingw32/bin/../lib/gcc/nios2-elf/4.7.3/../../../../../H-i686-mingw32/nios2-elf/lib\libc.a(lib_a-vfprintf.o)
 .debug_info    0x0000cbc1      0x9d2 c:/altera/13.1/nios2eds/bin/gnu/h-i686-mingw32/bin/../lib/gcc/nios2-elf/4.7.3/../../../../../H-i686-mingw32/nios2-elf/lib\libc.a(lib_a-writer.o)
 .debug_info    0x0000d593      0x9d4 c:/altera/13.1/nios2eds/bin/gnu/h-i686-mingw32/bin/../lib/gcc/nios2-elf/4.7.3/../../../../../H-i686-mingw32/nios2-elf/lib\libc.a(lib_a-wsetup.o)
 .debug_info    0x0000df67      0xa07 c:/altera/13.1/nios2eds/bin/gnu/h-i686-mingw32/bin/../lib/gcc/nios2-elf/4.7.3/../../../../../H-i686-mingw32/nios2-elf/lib\libc.a(lib_a-__call_atexit.o)
 .debug_info    0x0000e96e      0x97f c:/altera/13.1/nios2eds/bin/gnu/h-i686-mingw32/bin/../lib/gcc/nios2-elf/4.7.3/../../../../../H-i686-mingw32/nios2-elf/lib\libc.a(lib_a-closer.o)
 .debug_info    0x0000f2ed     0x1408 c:/altera/13.1/nios2eds/bin/gnu/h-i686-mingw32/bin/../lib/gcc/nios2-elf/4.7.3/../../../../../H-i686-mingw32/nios2-elf/lib\libc.a(lib_a-dtoa.o)
 .debug_info    0x000106f5      0xa97 c:/altera/13.1/nios2eds/bin/gnu/h-i686-mingw32/bin/../lib/gcc/nios2-elf/4.7.3/../../../../../H-i686-mingw32/nios2-elf/lib\libc.a(lib_a-fclose.o)
 .debug_info    0x0001118c      0xcf9 c:/altera/13.1/nios2eds/bin/gnu/h-i686-mingw32/bin/../lib/gcc/nios2-elf/4.7.3/../../../../../H-i686-mingw32/nios2-elf/lib\libc.a(lib_a-freer.o)
 .debug_info    0x00011e85       0x84 c:/altera/13.1/nios2eds/bin/gnu/h-i686-mingw32/bin/../lib/gcc/nios2-elf/4.7.3/../../../../../H-i686-mingw32/nios2-elf/lib\libc.a(lib_a-int_errno.o)
 .debug_info    0x00011f09      0xc10 c:/altera/13.1/nios2eds/bin/gnu/h-i686-mingw32/bin/../lib/gcc/nios2-elf/4.7.3/../../../../../H-i686-mingw32/nios2-elf/lib\libc.a(lib_a-locale.o)
 .debug_info    0x00012b19      0x9cb c:/altera/13.1/nios2eds/bin/gnu/h-i686-mingw32/bin/../lib/gcc/nios2-elf/4.7.3/../../../../../H-i686-mingw32/nios2-elf/lib\libc.a(lib_a-lseekr.o)
 .debug_info    0x000134e4      0xbc2 c:/altera/13.1/nios2eds/bin/gnu/h-i686-mingw32/bin/../lib/gcc/nios2-elf/4.7.3/../../../../../H-i686-mingw32/nios2-elf/lib\libc.a(lib_a-makebuf.o)
 .debug_info    0x000140a6     0x172a c:/altera/13.1/nios2eds/bin/gnu/h-i686-mingw32/bin/../lib/gcc/nios2-elf/4.7.3/../../../../../H-i686-mingw32/nios2-elf/lib\libc.a(lib_a-mprec.o)
 .debug_info    0x000157d0      0x9cb c:/altera/13.1/nios2eds/bin/gnu/h-i686-mingw32/bin/../lib/gcc/nios2-elf/4.7.3/../../../../../H-i686-mingw32/nios2-elf/lib\libc.a(lib_a-readr.o)
 .debug_info    0x0001619b       0xe8 c:/altera/13.1/nios2eds/bin/gnu/h-i686-mingw32/bin/../lib/gcc/nios2-elf/4.7.3/../../../../../H-i686-mingw32/nios2-elf/lib\libc.a(lib_a-s_isinfd.o)
 .debug_info    0x00016283       0xe8 c:/altera/13.1/nios2eds/bin/gnu/h-i686-mingw32/bin/../lib/gcc/nios2-elf/4.7.3/../../../../../H-i686-mingw32/nios2-elf/lib\libc.a(lib_a-s_isnand.o)
 .debug_info    0x0001636b       0xe1 c:/altera/13.1/nios2eds/bin/gnu/h-i686-mingw32/bin/../lib/gcc/nios2-elf/4.7.3/../../../../../H-i686-mingw32/nios2-elf/lib\libc.a(lib_a-strcmp.o)
 .debug_info    0x0001644c      0xa9b c:/altera/13.1/nios2eds/bin/gnu/h-i686-mingw32/bin/../lib/gcc/nios2-elf/4.7.3/../../../../../H-i686-mingw32/nios2-elf/lib\libc.a(lib_a-callocr.o)
 .debug_info    0x00016ee7      0xb2f c:/altera/13.1/nios2eds/bin/gnu/h-i686-mingw32/bin/../lib/gcc/nios2-elf/4.7.3/../../../../../H-i686-mingw32/nios2-elf/lib\libc.a(lib_a-fstatr.o)
 .debug_info    0x00017a16      0x97f c:/altera/13.1/nios2eds/bin/gnu/h-i686-mingw32/bin/../lib/gcc/nios2-elf/4.7.3/../../../../../H-i686-mingw32/nios2-elf/lib\libc.a(lib_a-isattyr.o)
 .debug_info    0x00018395      0x1ea c:/altera/13.1/nios2eds/bin/gnu/h-i686-mingw32/bin/../lib/gcc/nios2-elf/4.7.3\libgcc.a(_muldi3.o)
 .debug_info    0x0001857f      0x718 c:/altera/13.1/nios2eds/bin/gnu/h-i686-mingw32/bin/../lib/gcc/nios2-elf/4.7.3\libgcc.a(_udivdi3.o)
 .debug_info    0x00018c97      0x771 c:/altera/13.1/nios2eds/bin/gnu/h-i686-mingw32/bin/../lib/gcc/nios2-elf/4.7.3\libgcc.a(_umoddi3.o)
 .debug_info    0x00019408      0x588 c:/altera/13.1/nios2eds/bin/gnu/h-i686-mingw32/bin/../lib/gcc/nios2-elf/4.7.3\libgcc.a(_addsub_df.o)
 .debug_info    0x00019990      0x519 c:/altera/13.1/nios2eds/bin/gnu/h-i686-mingw32/bin/../lib/gcc/nios2-elf/4.7.3\libgcc.a(_mul_df.o)
 .debug_info    0x00019ea9      0x443 c:/altera/13.1/nios2eds/bin/gnu/h-i686-mingw32/bin/../lib/gcc/nios2-elf/4.7.3\libgcc.a(_div_df.o)
 .debug_info    0x0001a2ec      0x320 c:/altera/13.1/nios2eds/bin/gnu/h-i686-mingw32/bin/../lib/gcc/nios2-elf/4.7.3\libgcc.a(_eq_df.o)
 .debug_info    0x0001a60c      0x320 c:/altera/13.1/nios2eds/bin/gnu/h-i686-mingw32/bin/../lib/gcc/nios2-elf/4.7.3\libgcc.a(_ne_df.o)
 .debug_info    0x0001a92c      0x320 c:/altera/13.1/nios2eds/bin/gnu/h-i686-mingw32/bin/../lib/gcc/nios2-elf/4.7.3\libgcc.a(_gt_df.o)
 .debug_info    0x0001ac4c      0x320 c:/altera/13.1/nios2eds/bin/gnu/h-i686-mingw32/bin/../lib/gcc/nios2-elf/4.7.3\libgcc.a(_ge_df.o)
 .debug_info    0x0001af6c      0x320 c:/altera/13.1/nios2eds/bin/gnu/h-i686-mingw32/bin/../lib/gcc/nios2-elf/4.7.3\libgcc.a(_lt_df.o)
 .debug_info    0x0001b28c      0x261 c:/altera/13.1/nios2eds/bin/gnu/h-i686-mingw32/bin/../lib/gcc/nios2-elf/4.7.3\libgcc.a(_si_to_df.o)
 .debug_info    0x0001b4ed      0x30b c:/altera/13.1/nios2eds/bin/gnu/h-i686-mingw32/bin/../lib/gcc/nios2-elf/4.7.3\libgcc.a(_df_to_si.o)
 .debug_info    0x0001b7f8      0x155 c:/altera/13.1/nios2eds/bin/gnu/h-i686-mingw32/bin/../lib/gcc/nios2-elf/4.7.3\libgcc.a(_thenan_df.o)
 .debug_info    0x0001b94d      0x284 c:/altera/13.1/nios2eds/bin/gnu/h-i686-mingw32/bin/../lib/gcc/nios2-elf/4.7.3\libgcc.a(_usi_to_df.o)
 .debug_info    0x0001bbd1       0xac c:/altera/13.1/nios2eds/bin/gnu/h-i686-mingw32/bin/../lib/gcc/nios2-elf/4.7.3\libgcc.a(_clz.o)
 .debug_info    0x0001bc7d      0x123 c:/altera/13.1/nios2eds/bin/gnu/h-i686-mingw32/bin/../lib/gcc/nios2-elf/4.7.3\libgcc.a(_clzsi2.o)
 .debug_info    0x0001bda0      0x2f7 c:/altera/13.1/nios2eds/bin/gnu/h-i686-mingw32/bin/../lib/gcc/nios2-elf/4.7.3\libgcc.a(_pack_df.o)
 .debug_info    0x0001c097      0x265 c:/altera/13.1/nios2eds/bin/gnu/h-i686-mingw32/bin/../lib/gcc/nios2-elf/4.7.3\libgcc.a(_unpack_df.o)
 .debug_info    0x0001c2fc      0x226 c:/altera/13.1/nios2eds/bin/gnu/h-i686-mingw32/bin/../lib/gcc/nios2-elf/4.7.3\libgcc.a(_fpcmp_parts_df.o)
 .debug_info    0x0001c522      0x185 c:/altera/13.1/nios2eds/bin/gnu/h-i686-mingw32/bin/../lib/gcc/nios2-elf/4.7.3\libgcc.a(_lshrdi3.o)
 .debug_info    0x0001c6a7      0x185 c:/altera/13.1/nios2eds/bin/gnu/h-i686-mingw32/bin/../lib/gcc/nios2-elf/4.7.3\libgcc.a(_ashldi3.o)
 .debug_info    0x0001c82c      0x3e9 ../UcosiiBSP_for_cpu_s1/\libucosii_bsp.a(alt_close.o)
 .debug_info    0x0001cc15      0x5f3 ../UcosiiBSP_for_cpu_s1/\libucosii_bsp.a(alt_dev.o)
 .debug_info    0x0001d208       0xa3 ../UcosiiBSP_for_cpu_s1/\libucosii_bsp.a(alt_errno.o)
 .debug_info    0x0001d2ab      0x157 ../UcosiiBSP_for_cpu_s1/\libucosii_bsp.a(alt_exit.o)
 .debug_info    0x0001d402      0x547 ../UcosiiBSP_for_cpu_s1/\libucosii_bsp.a(alt_fstat.o)
 .debug_info    0x0001d949      0x322 ../UcosiiBSP_for_cpu_s1/\libucosii_bsp.a(alt_irq_register.o)
 .debug_info    0x0001dc6b       0x8a ../UcosiiBSP_for_cpu_s1/\libucosii_bsp.a(alt_irq_vars.o)
 .debug_info    0x0001dcf5      0x560 ../UcosiiBSP_for_cpu_s1/\libucosii_bsp.a(alt_isatty.o)
 .debug_info    0x0001e255      0x1b5 ../UcosiiBSP_for_cpu_s1/\libucosii_bsp.a(alt_load.o)
 .debug_info    0x0001e40a      0x3f8 ../UcosiiBSP_for_cpu_s1/\libucosii_bsp.a(alt_lseek.o)
 .debug_info    0x0001e802      0x414 ../UcosiiBSP_for_cpu_s1/\libucosii_bsp.a(alt_main.o)
 .debug_info    0x0001ec16      0x591 ../UcosiiBSP_for_cpu_s1/\libucosii_bsp.a(alt_read.o)
 .debug_info    0x0001f1a7      0x33d ../UcosiiBSP_for_cpu_s1/\libucosii_bsp.a(alt_release_fd.o)
 .debug_info    0x0001f4e4      0x1d9 ../UcosiiBSP_for_cpu_s1/\libucosii_bsp.a(alt_sbrk.o)
 .debug_info    0x0001f6bd      0x1d0 ../UcosiiBSP_for_cpu_s1/\libucosii_bsp.a(alt_usleep.o)
 .debug_info    0x0001f88d      0x598 ../UcosiiBSP_for_cpu_s1/\libucosii_bsp.a(alt_write.o)
 .debug_info    0x0001fe25      0xe47 ../UcosiiBSP_for_cpu_s1/\libucosii_bsp.a(alt_env_lock.o)
 .debug_info    0x00020c6c      0xf81 ../UcosiiBSP_for_cpu_s1/\libucosii_bsp.a(alt_malloc_lock.o)
 .debug_info    0x00021bed     0x1c96 ../UcosiiBSP_for_cpu_s1/\libucosii_bsp.a(os_core.o)
 .debug_info    0x00023883      0xba9 ../UcosiiBSP_for_cpu_s1/\libucosii_bsp.a(os_dbg.o)
 .debug_info    0x0002442c     0x107d ../UcosiiBSP_for_cpu_s1/\libucosii_bsp.a(os_flag.o)
 .debug_info    0x000254a9      0x784 ../UcosiiBSP_for_cpu_s1/\libucosii_bsp.a(os_mem.o)
 .debug_info    0x00025c2d      0xc52 ../UcosiiBSP_for_cpu_s1/\libucosii_bsp.a(os_mutex.o)
 .debug_info    0x0002687f     0x10b1 ../UcosiiBSP_for_cpu_s1/\libucosii_bsp.a(os_q.o)
 .debug_info    0x00027930      0xc26 ../UcosiiBSP_for_cpu_s1/\libucosii_bsp.a(os_sem.o)
 .debug_info    0x00028556     0x1473 ../UcosiiBSP_for_cpu_s1/\libucosii_bsp.a(os_task.o)
 .debug_info    0x000299c9      0x7fe ../UcosiiBSP_for_cpu_s1/\libucosii_bsp.a(os_time.o)
 .debug_info    0x0002a1c7      0x50e ../UcosiiBSP_for_cpu_s1/\libucosii_bsp.a(alt_sys_init.o)
 .debug_info    0x0002a6d5      0x4aa ../UcosiiBSP_for_cpu_s1/\libucosii_bsp.a(altera_avalon_jtag_uart_fd.o)
 .debug_info    0x0002ab7f      0x1fe ../UcosiiBSP_for_cpu_s1/\libucosii_bsp.a(altera_avalon_jtag_uart_read.o)
 .debug_info    0x0002ad7d      0x1e1 ../UcosiiBSP_for_cpu_s1/\libucosii_bsp.a(altera_avalon_jtag_uart_write.o)
 .debug_info    0x0002af5e      0x2d9 ../UcosiiBSP_for_cpu_s1/\libucosii_bsp.a(altera_avalon_timer_sc.o)
 .debug_info    0x0002b237       0xd6 ../UcosiiBSP_for_cpu_s1/\libucosii_bsp.a(alt_busy_sleep.o)
 .debug_info    0x0002b30d       0x8f ../UcosiiBSP_for_cpu_s1/\libucosii_bsp.a(alt_dcache_flush_all.o)
 .debug_info    0x0002b39c      0x1c0 ../UcosiiBSP_for_cpu_s1/\libucosii_bsp.a(alt_dev_llist_insert.o)
 .debug_info    0x0002b55c       0xcd ../UcosiiBSP_for_cpu_s1/\libucosii_bsp.a(alt_icache_flush_all.o)
 .debug_info    0x0002b629      0x61e ../UcosiiBSP_for_cpu_s1/\libucosii_bsp.a(alt_io_redirect.o)
 .debug_info    0x0002bc47       0x9e ../UcosiiBSP_for_cpu_s1/\libucosii_bsp.a(alt_irq_entry.o)
 .debug_info    0x0002bce5      0x20e ../UcosiiBSP_for_cpu_s1/\libucosii_bsp.a(alt_irq_handler.o)
 .debug_info    0x0002bef3      0x521 ../UcosiiBSP_for_cpu_s1/\libucosii_bsp.a(alt_open.o)
 .debug_info    0x0002c414      0x2ff ../UcosiiBSP_for_cpu_s1/\libucosii_bsp.a(alt_tick.o)
 .debug_info    0x0002c713       0xb9 ../UcosiiBSP_for_cpu_s1/\libucosii_bsp.a(altera_nios2_qsys_irq.o)
 .debug_info    0x0002c7cc       0x9d ../UcosiiBSP_for_cpu_s1/\libucosii_bsp.a(os_cpu_a.o)
 .debug_info    0x0002c869      0xe8c ../UcosiiBSP_for_cpu_s1/\libucosii_bsp.a(os_cpu_c.o)
 .debug_info    0x0002d6f5       0xa4 ../UcosiiBSP_for_cpu_s1/\libucosii_bsp.a(alt_exception_entry.o)
 .debug_info    0x0002d799      0x3d9 ../UcosiiBSP_for_cpu_s1/\libucosii_bsp.a(alt_find_dev.o)
 .debug_info    0x0002db72      0x3d7 ../UcosiiBSP_for_cpu_s1/\libucosii_bsp.a(alt_find_file.o)
 .debug_info    0x0002df49      0x4fa ../UcosiiBSP_for_cpu_s1/\libucosii_bsp.a(alt_get_fd.o)
 .debug_info    0x0002e443       0xdb ../UcosiiBSP_for_cpu_s1/\libucosii_bsp.a(alt_icache_flush.o)
 .debug_info    0x0002e51e      0x117 c:/altera/13.1/nios2eds/bin/gnu/h-i686-mingw32/bin/../lib/gcc/nios2-elf/4.7.3/../../../../../H-i686-mingw32/nios2-elf/lib\libc.a(lib_a-memcmp.o)
 .debug_info    0x0002e635       0xc5 c:/altera/13.1/nios2eds/bin/gnu/h-i686-mingw32/bin/../lib/gcc/nios2-elf/4.7.3\libgcc.a(_fixunsdfsi.o)

.debug_abbrev   0x00000000     0xb2c3
 *(.debug_abbrev)
 .debug_abbrev  0x00000000       0x12 ../UcosiiBSP_for_cpu_s1//obj/HAL/src/crt0.o
 .debug_abbrev  0x00000012      0x112 c:/altera/13.1/nios2eds/bin/gnu/h-i686-mingw32/bin/../lib/gcc/nios2-elf/4.7.3\libgcc.a(lib2-divmod.o)
 .debug_abbrev  0x00000124      0x1c8 c:/altera/13.1/nios2eds/bin/gnu/h-i686-mingw32/bin/../lib/gcc/nios2-elf/4.7.3/../../../../../H-i686-mingw32/nios2-elf/lib\libc.a(lib_a-exit.o)
 .debug_abbrev  0x000002ec      0x259 c:/altera/13.1/nios2eds/bin/gnu/h-i686-mingw32/bin/../lib/gcc/nios2-elf/4.7.3/../../../../../H-i686-mingw32/nios2-elf/lib\libc.a(lib_a-fflush.o)
 .debug_abbrev  0x00000545      0x317 c:/altera/13.1/nios2eds/bin/gnu/h-i686-mingw32/bin/../lib/gcc/nios2-elf/4.7.3/../../../../../H-i686-mingw32/nios2-elf/lib\libc.a(lib_a-findfp.o)
 .debug_abbrev  0x0000085c      0x1e3 c:/altera/13.1/nios2eds/bin/gnu/h-i686-mingw32/bin/../lib/gcc/nios2-elf/4.7.3/../../../../../H-i686-mingw32/nios2-elf/lib\libc.a(lib_a-fprintf.o)
 .debug_abbrev  0x00000a3f      0x21b c:/altera/13.1/nios2eds/bin/gnu/h-i686-mingw32/bin/../lib/gcc/nios2-elf/4.7.3/../../../../../H-i686-mingw32/nios2-elf/lib\libc.a(lib_a-fputs.o)
 .debug_abbrev  0x00000c5a      0x234 c:/altera/13.1/nios2eds/bin/gnu/h-i686-mingw32/bin/../lib/gcc/nios2-elf/4.7.3/../../../../../H-i686-mingw32/nios2-elf/lib\libc.a(lib_a-fvwrite.o)
 .debug_abbrev  0x00000e8e      0x224 c:/altera/13.1/nios2eds/bin/gnu/h-i686-mingw32/bin/../lib/gcc/nios2-elf/4.7.3/../../../../../H-i686-mingw32/nios2-elf/lib\libc.a(lib_a-fwalk.o)
 .debug_abbrev  0x000010b2      0x162 c:/altera/13.1/nios2eds/bin/gnu/h-i686-mingw32/bin/../lib/gcc/nios2-elf/4.7.3/../../../../../H-i686-mingw32/nios2-elf/lib\libc.a(lib_a-impure.o)
 .debug_abbrev  0x00001214      0x284 c:/altera/13.1/nios2eds/bin/gnu/h-i686-mingw32/bin/../lib/gcc/nios2-elf/4.7.3/../../../../../H-i686-mingw32/nios2-elf/lib\libc.a(lib_a-mallocr.o)
 .debug_abbrev  0x00001498       0xab c:/altera/13.1/nios2eds/bin/gnu/h-i686-mingw32/bin/../lib/gcc/nios2-elf/4.7.3/../../../../../H-i686-mingw32/nios2-elf/lib\libc.a(lib_a-memchr.o)
 .debug_abbrev  0x00001543       0x9c c:/altera/13.1/nios2eds/bin/gnu/h-i686-mingw32/bin/../lib/gcc/nios2-elf/4.7.3/../../../../../H-i686-mingw32/nios2-elf/lib\libc.a(lib_a-memcpy.o)
 .debug_abbrev  0x000015df       0x9c c:/altera/13.1/nios2eds/bin/gnu/h-i686-mingw32/bin/../lib/gcc/nios2-elf/4.7.3/../../../../../H-i686-mingw32/nios2-elf/lib\libc.a(lib_a-memmove.o)
 .debug_abbrev  0x0000167b       0xac c:/altera/13.1/nios2eds/bin/gnu/h-i686-mingw32/bin/../lib/gcc/nios2-elf/4.7.3/../../../../../H-i686-mingw32/nios2-elf/lib\libc.a(lib_a-memset.o)
 .debug_abbrev  0x00001727      0x209 c:/altera/13.1/nios2eds/bin/gnu/h-i686-mingw32/bin/../lib/gcc/nios2-elf/4.7.3/../../../../../H-i686-mingw32/nios2-elf/lib\libc.a(lib_a-printf.o)
 .debug_abbrev  0x00001930      0x208 c:/altera/13.1/nios2eds/bin/gnu/h-i686-mingw32/bin/../lib/gcc/nios2-elf/4.7.3/../../../../../H-i686-mingw32/nios2-elf/lib\libc.a(lib_a-puts.o)
 .debug_abbrev  0x00001b38      0x19a c:/altera/13.1/nios2eds/bin/gnu/h-i686-mingw32/bin/../lib/gcc/nios2-elf/4.7.3/../../../../../H-i686-mingw32/nios2-elf/lib\libc.a(lib_a-rand.o)
 .debug_abbrev  0x00001cd2      0x242 c:/altera/13.1/nios2eds/bin/gnu/h-i686-mingw32/bin/../lib/gcc/nios2-elf/4.7.3/../../../../../H-i686-mingw32/nios2-elf/lib\libc.a(lib_a-reallocr.o)
 .debug_abbrev  0x00001f14      0x1df c:/altera/13.1/nios2eds/bin/gnu/h-i686-mingw32/bin/../lib/gcc/nios2-elf/4.7.3/../../../../../H-i686-mingw32/nios2-elf/lib\libc.a(lib_a-sbrkr.o)
 .debug_abbrev  0x000020f3      0x226 c:/altera/13.1/nios2eds/bin/gnu/h-i686-mingw32/bin/../lib/gcc/nios2-elf/4.7.3/../../../../../H-i686-mingw32/nios2-elf/lib\libc.a(lib_a-stdio.o)
 .debug_abbrev  0x00002319       0x83 c:/altera/13.1/nios2eds/bin/gnu/h-i686-mingw32/bin/../lib/gcc/nios2-elf/4.7.3/../../../../../H-i686-mingw32/nios2-elf/lib\libc.a(lib_a-strcpy.o)
 .debug_abbrev  0x0000239c       0x90 c:/altera/13.1/nios2eds/bin/gnu/h-i686-mingw32/bin/../lib/gcc/nios2-elf/4.7.3/../../../../../H-i686-mingw32/nios2-elf/lib\libc.a(lib_a-strlen.o)
 .debug_abbrev  0x0000242c      0x3d9 c:/altera/13.1/nios2eds/bin/gnu/h-i686-mingw32/bin/../lib/gcc/nios2-elf/4.7.3/../../../../../H-i686-mingw32/nios2-elf/lib\libc.a(lib_a-vfprintf.o)
 .debug_abbrev  0x00002805      0x1c0 c:/altera/13.1/nios2eds/bin/gnu/h-i686-mingw32/bin/../lib/gcc/nios2-elf/4.7.3/../../../../../H-i686-mingw32/nios2-elf/lib\libc.a(lib_a-writer.o)
 .debug_abbrev  0x000029c5      0x1d5 c:/altera/13.1/nios2eds/bin/gnu/h-i686-mingw32/bin/../lib/gcc/nios2-elf/4.7.3/../../../../../H-i686-mingw32/nios2-elf/lib\libc.a(lib_a-wsetup.o)
 .debug_abbrev  0x00002b9a      0x203 c:/altera/13.1/nios2eds/bin/gnu/h-i686-mingw32/bin/../lib/gcc/nios2-elf/4.7.3/../../../../../H-i686-mingw32/nios2-elf/lib\libc.a(lib_a-__call_atexit.o)
 .debug_abbrev  0x00002d9d      0x1bb c:/altera/13.1/nios2eds/bin/gnu/h-i686-mingw32/bin/../lib/gcc/nios2-elf/4.7.3/../../../../../H-i686-mingw32/nios2-elf/lib\libc.a(lib_a-closer.o)
 .debug_abbrev  0x00002f58      0x2ab c:/altera/13.1/nios2eds/bin/gnu/h-i686-mingw32/bin/../lib/gcc/nios2-elf/4.7.3/../../../../../H-i686-mingw32/nios2-elf/lib\libc.a(lib_a-dtoa.o)
 .debug_abbrev  0x00003203      0x24e c:/altera/13.1/nios2eds/bin/gnu/h-i686-mingw32/bin/../lib/gcc/nios2-elf/4.7.3/../../../../../H-i686-mingw32/nios2-elf/lib\libc.a(lib_a-fclose.o)
 .debug_abbrev  0x00003451      0x25d c:/altera/13.1/nios2eds/bin/gnu/h-i686-mingw32/bin/../lib/gcc/nios2-elf/4.7.3/../../../../../H-i686-mingw32/nios2-elf/lib\libc.a(lib_a-freer.o)
 .debug_abbrev  0x000036ae       0x37 c:/altera/13.1/nios2eds/bin/gnu/h-i686-mingw32/bin/../lib/gcc/nios2-elf/4.7.3/../../../../../H-i686-mingw32/nios2-elf/lib\libc.a(lib_a-int_errno.o)
 .debug_abbrev  0x000036e5      0x29f c:/altera/13.1/nios2eds/bin/gnu/h-i686-mingw32/bin/../lib/gcc/nios2-elf/4.7.3/../../../../../H-i686-mingw32/nios2-elf/lib\libc.a(lib_a-locale.o)
 .debug_abbrev  0x00003984      0x1ca c:/altera/13.1/nios2eds/bin/gnu/h-i686-mingw32/bin/../lib/gcc/nios2-elf/4.7.3/../../../../../H-i686-mingw32/nios2-elf/lib\libc.a(lib_a-lseekr.o)
 .debug_abbrev  0x00003b4e      0x1e8 c:/altera/13.1/nios2eds/bin/gnu/h-i686-mingw32/bin/../lib/gcc/nios2-elf/4.7.3/../../../../../H-i686-mingw32/nios2-elf/lib\libc.a(lib_a-makebuf.o)
 .debug_abbrev  0x00003d36      0x394 c:/altera/13.1/nios2eds/bin/gnu/h-i686-mingw32/bin/../lib/gcc/nios2-elf/4.7.3/../../../../../H-i686-mingw32/nios2-elf/lib\libc.a(lib_a-mprec.o)
 .debug_abbrev  0x000040ca      0x1bb c:/altera/13.1/nios2eds/bin/gnu/h-i686-mingw32/bin/../lib/gcc/nios2-elf/4.7.3/../../../../../H-i686-mingw32/nios2-elf/lib\libc.a(lib_a-readr.o)
 .debug_abbrev  0x00004285       0x6f c:/altera/13.1/nios2eds/bin/gnu/h-i686-mingw32/bin/../lib/gcc/nios2-elf/4.7.3/../../../../../H-i686-mingw32/nios2-elf/lib\libc.a(lib_a-s_isinfd.o)
 .debug_abbrev  0x000042f4       0x6f c:/altera/13.1/nios2eds/bin/gnu/h-i686-mingw32/bin/../lib/gcc/nios2-elf/4.7.3/../../../../../H-i686-mingw32/nios2-elf/lib\libc.a(lib_a-s_isnand.o)
 .debug_abbrev  0x00004363       0x74 c:/altera/13.1/nios2eds/bin/gnu/h-i686-mingw32/bin/../lib/gcc/nios2-elf/4.7.3/../../../../../H-i686-mingw32/nios2-elf/lib\libc.a(lib_a-strcmp.o)
 .debug_abbrev  0x000043d7      0x1f5 c:/altera/13.1/nios2eds/bin/gnu/h-i686-mingw32/bin/../lib/gcc/nios2-elf/4.7.3/../../../../../H-i686-mingw32/nios2-elf/lib\libc.a(lib_a-callocr.o)
 .debug_abbrev  0x000045cc      0x1ca c:/altera/13.1/nios2eds/bin/gnu/h-i686-mingw32/bin/../lib/gcc/nios2-elf/4.7.3/../../../../../H-i686-mingw32/nios2-elf/lib\libc.a(lib_a-fstatr.o)
 .debug_abbrev  0x00004796      0x1bb c:/altera/13.1/nios2eds/bin/gnu/h-i686-mingw32/bin/../lib/gcc/nios2-elf/4.7.3/../../../../../H-i686-mingw32/nios2-elf/lib\libc.a(lib_a-isattyr.o)
 .debug_abbrev  0x00004951       0xe0 c:/altera/13.1/nios2eds/bin/gnu/h-i686-mingw32/bin/../lib/gcc/nios2-elf/4.7.3\libgcc.a(_muldi3.o)
 .debug_abbrev  0x00004a31      0x170 c:/altera/13.1/nios2eds/bin/gnu/h-i686-mingw32/bin/../lib/gcc/nios2-elf/4.7.3\libgcc.a(_udivdi3.o)
 .debug_abbrev  0x00004ba1      0x193 c:/altera/13.1/nios2eds/bin/gnu/h-i686-mingw32/bin/../lib/gcc/nios2-elf/4.7.3\libgcc.a(_umoddi3.o)
 .debug_abbrev  0x00004d34      0x22d c:/altera/13.1/nios2eds/bin/gnu/h-i686-mingw32/bin/../lib/gcc/nios2-elf/4.7.3\libgcc.a(_addsub_df.o)
 .debug_abbrev  0x00004f61      0x240 c:/altera/13.1/nios2eds/bin/gnu/h-i686-mingw32/bin/../lib/gcc/nios2-elf/4.7.3\libgcc.a(_mul_df.o)
 .debug_abbrev  0x000051a1      0x245 c:/altera/13.1/nios2eds/bin/gnu/h-i686-mingw32/bin/../lib/gcc/nios2-elf/4.7.3\libgcc.a(_div_df.o)
 .debug_abbrev  0x000053e6      0x1a5 c:/altera/13.1/nios2eds/bin/gnu/h-i686-mingw32/bin/../lib/gcc/nios2-elf/4.7.3\libgcc.a(_eq_df.o)
 .debug_abbrev  0x0000558b      0x1a5 c:/altera/13.1/nios2eds/bin/gnu/h-i686-mingw32/bin/../lib/gcc/nios2-elf/4.7.3\libgcc.a(_ne_df.o)
 .debug_abbrev  0x00005730      0x1a5 c:/altera/13.1/nios2eds/bin/gnu/h-i686-mingw32/bin/../lib/gcc/nios2-elf/4.7.3\libgcc.a(_gt_df.o)
 .debug_abbrev  0x000058d5      0x1a5 c:/altera/13.1/nios2eds/bin/gnu/h-i686-mingw32/bin/../lib/gcc/nios2-elf/4.7.3\libgcc.a(_ge_df.o)
 .debug_abbrev  0x00005a7a      0x1a5 c:/altera/13.1/nios2eds/bin/gnu/h-i686-mingw32/bin/../lib/gcc/nios2-elf/4.7.3\libgcc.a(_lt_df.o)
 .debug_abbrev  0x00005c1f      0x19c c:/altera/13.1/nios2eds/bin/gnu/h-i686-mingw32/bin/../lib/gcc/nios2-elf/4.7.3\libgcc.a(_si_to_df.o)
 .debug_abbrev  0x00005dbb      0x1ae c:/altera/13.1/nios2eds/bin/gnu/h-i686-mingw32/bin/../lib/gcc/nios2-elf/4.7.3\libgcc.a(_df_to_si.o)
 .debug_abbrev  0x00005f69       0xb6 c:/altera/13.1/nios2eds/bin/gnu/h-i686-mingw32/bin/../lib/gcc/nios2-elf/4.7.3\libgcc.a(_thenan_df.o)
 .debug_abbrev  0x0000601f      0x1bf c:/altera/13.1/nios2eds/bin/gnu/h-i686-mingw32/bin/../lib/gcc/nios2-elf/4.7.3\libgcc.a(_usi_to_df.o)
 .debug_abbrev  0x000061de       0x5d c:/altera/13.1/nios2eds/bin/gnu/h-i686-mingw32/bin/../lib/gcc/nios2-elf/4.7.3\libgcc.a(_clz.o)
 .debug_abbrev  0x0000623b       0xbe c:/altera/13.1/nios2eds/bin/gnu/h-i686-mingw32/bin/../lib/gcc/nios2-elf/4.7.3\libgcc.a(_clzsi2.o)
 .debug_abbrev  0x000062f9      0x1b6 c:/altera/13.1/nios2eds/bin/gnu/h-i686-mingw32/bin/../lib/gcc/nios2-elf/4.7.3\libgcc.a(_pack_df.o)
 .debug_abbrev  0x000064af      0x15d c:/altera/13.1/nios2eds/bin/gnu/h-i686-mingw32/bin/../lib/gcc/nios2-elf/4.7.3\libgcc.a(_unpack_df.o)
 .debug_abbrev  0x0000660c      0x146 c:/altera/13.1/nios2eds/bin/gnu/h-i686-mingw32/bin/../lib/gcc/nios2-elf/4.7.3\libgcc.a(_fpcmp_parts_df.o)
 .debug_abbrev  0x00006752       0xf1 c:/altera/13.1/nios2eds/bin/gnu/h-i686-mingw32/bin/../lib/gcc/nios2-elf/4.7.3\libgcc.a(_lshrdi3.o)
 .debug_abbrev  0x00006843       0xf1 c:/altera/13.1/nios2eds/bin/gnu/h-i686-mingw32/bin/../lib/gcc/nios2-elf/4.7.3\libgcc.a(_ashldi3.o)
 .debug_abbrev  0x00006934      0x170 ../UcosiiBSP_for_cpu_s1/\libucosii_bsp.a(alt_close.o)
 .debug_abbrev  0x00006aa4      0x11c ../UcosiiBSP_for_cpu_s1/\libucosii_bsp.a(alt_dev.o)
 .debug_abbrev  0x00006bc0       0x5a ../UcosiiBSP_for_cpu_s1/\libucosii_bsp.a(alt_errno.o)
 .debug_abbrev  0x00006c1a       0xde ../UcosiiBSP_for_cpu_s1/\libucosii_bsp.a(alt_exit.o)
 .debug_abbrev  0x00006cf8      0x146 ../UcosiiBSP_for_cpu_s1/\libucosii_bsp.a(alt_fstat.o)
 .debug_abbrev  0x00006e3e      0x1b6 ../UcosiiBSP_for_cpu_s1/\libucosii_bsp.a(alt_irq_register.o)
 .debug_abbrev  0x00006ff4       0x40 ../UcosiiBSP_for_cpu_s1/\libucosii_bsp.a(alt_irq_vars.o)
 .debug_abbrev  0x00007034      0x158 ../UcosiiBSP_for_cpu_s1/\libucosii_bsp.a(alt_isatty.o)
 .debug_abbrev  0x0000718c       0xd6 ../UcosiiBSP_for_cpu_s1/\libucosii_bsp.a(alt_load.o)
 .debug_abbrev  0x00007262      0x143 ../UcosiiBSP_for_cpu_s1/\libucosii_bsp.a(alt_lseek.o)
 .debug_abbrev  0x000073a5      0x1f4 ../UcosiiBSP_for_cpu_s1/\libucosii_bsp.a(alt_main.o)
 .debug_abbrev  0x00007599      0x154 ../UcosiiBSP_for_cpu_s1/\libucosii_bsp.a(alt_read.o)
 .debug_abbrev  0x000076ed       0xe5 ../UcosiiBSP_for_cpu_s1/\libucosii_bsp.a(alt_release_fd.o)
 .debug_abbrev  0x000077d2      0x122 ../UcosiiBSP_for_cpu_s1/\libucosii_bsp.a(alt_sbrk.o)
 .debug_abbrev  0x000078f4      0x12a ../UcosiiBSP_for_cpu_s1/\libucosii_bsp.a(alt_usleep.o)
 .debug_abbrev  0x00007a1e      0x159 ../UcosiiBSP_for_cpu_s1/\libucosii_bsp.a(alt_write.o)
 .debug_abbrev  0x00007b77      0x24c ../UcosiiBSP_for_cpu_s1/\libucosii_bsp.a(alt_env_lock.o)
 .debug_abbrev  0x00007dc3      0x2d6 ../UcosiiBSP_for_cpu_s1/\libucosii_bsp.a(alt_malloc_lock.o)
 .debug_abbrev  0x00008099      0x425 ../UcosiiBSP_for_cpu_s1/\libucosii_bsp.a(os_core.o)
 .debug_abbrev  0x000084be       0xf5 ../UcosiiBSP_for_cpu_s1/\libucosii_bsp.a(os_dbg.o)
 .debug_abbrev  0x000085b3      0x315 ../UcosiiBSP_for_cpu_s1/\libucosii_bsp.a(os_flag.o)
 .debug_abbrev  0x000088c8      0x295 ../UcosiiBSP_for_cpu_s1/\libucosii_bsp.a(os_mem.o)
 .debug_abbrev  0x00008b5d      0x32a ../UcosiiBSP_for_cpu_s1/\libucosii_bsp.a(os_mutex.o)
 .debug_abbrev  0x00008e87      0x30b ../UcosiiBSP_for_cpu_s1/\libucosii_bsp.a(os_q.o)
 .debug_abbrev  0x00009192      0x327 ../UcosiiBSP_for_cpu_s1/\libucosii_bsp.a(os_sem.o)
 .debug_abbrev  0x000094b9      0x2cf ../UcosiiBSP_for_cpu_s1/\libucosii_bsp.a(os_task.o)
 .debug_abbrev  0x00009788      0x2c6 ../UcosiiBSP_for_cpu_s1/\libucosii_bsp.a(os_time.o)
 .debug_abbrev  0x00009a4e      0x1d6 ../UcosiiBSP_for_cpu_s1/\libucosii_bsp.a(alt_sys_init.o)
 .debug_abbrev  0x00009c24      0x14a ../UcosiiBSP_for_cpu_s1/\libucosii_bsp.a(altera_avalon_jtag_uart_fd.o)
 .debug_abbrev  0x00009d6e      0x113 ../UcosiiBSP_for_cpu_s1/\libucosii_bsp.a(altera_avalon_jtag_uart_read.o)
 .debug_abbrev  0x00009e81       0xe6 ../UcosiiBSP_for_cpu_s1/\libucosii_bsp.a(altera_avalon_jtag_uart_write.o)
 .debug_abbrev  0x00009f67      0x1b0 ../UcosiiBSP_for_cpu_s1/\libucosii_bsp.a(altera_avalon_timer_sc.o)
 .debug_abbrev  0x0000a117       0x8d ../UcosiiBSP_for_cpu_s1/\libucosii_bsp.a(alt_busy_sleep.o)
 .debug_abbrev  0x0000a1a4       0x42 ../UcosiiBSP_for_cpu_s1/\libucosii_bsp.a(alt_dcache_flush_all.o)
 .debug_abbrev  0x0000a1e6      0x11c ../UcosiiBSP_for_cpu_s1/\libucosii_bsp.a(alt_dev_llist_insert.o)
 .debug_abbrev  0x0000a302       0x8a ../UcosiiBSP_for_cpu_s1/\libucosii_bsp.a(alt_icache_flush_all.o)
 .debug_abbrev  0x0000a38c      0x1aa ../UcosiiBSP_for_cpu_s1/\libucosii_bsp.a(alt_io_redirect.o)
 .debug_abbrev  0x0000a536       0x12 ../UcosiiBSP_for_cpu_s1/\libucosii_bsp.a(alt_irq_entry.o)
 .debug_abbrev  0x0000a548      0x157 ../UcosiiBSP_for_cpu_s1/\libucosii_bsp.a(alt_irq_handler.o)
 .debug_abbrev  0x0000a69f      0x1da ../UcosiiBSP_for_cpu_s1/\libucosii_bsp.a(alt_open.o)
 .debug_abbrev  0x0000a879      0x1b2 ../UcosiiBSP_for_cpu_s1/\libucosii_bsp.a(alt_tick.o)
 .debug_abbrev  0x0000aa2b       0x67 ../UcosiiBSP_for_cpu_s1/\libucosii_bsp.a(altera_nios2_qsys_irq.o)
 .debug_abbrev  0x0000aa92       0x14 ../UcosiiBSP_for_cpu_s1/\libucosii_bsp.a(os_cpu_a.o)
 .debug_abbrev  0x0000aaa6      0x23b ../UcosiiBSP_for_cpu_s1/\libucosii_bsp.a(os_cpu_c.o)
 .debug_abbrev  0x0000ace1       0x12 ../UcosiiBSP_for_cpu_s1/\libucosii_bsp.a(alt_exception_entry.o)
 .debug_abbrev  0x0000acf3      0x135 ../UcosiiBSP_for_cpu_s1/\libucosii_bsp.a(alt_find_dev.o)
 .debug_abbrev  0x0000ae28      0x135 ../UcosiiBSP_for_cpu_s1/\libucosii_bsp.a(alt_find_file.o)
 .debug_abbrev  0x0000af5d      0x1ec ../UcosiiBSP_for_cpu_s1/\libucosii_bsp.a(alt_get_fd.o)
 .debug_abbrev  0x0000b149       0x9b ../UcosiiBSP_for_cpu_s1/\libucosii_bsp.a(alt_icache_flush.o)
 .debug_abbrev  0x0000b1e4       0x7f c:/altera/13.1/nios2eds/bin/gnu/h-i686-mingw32/bin/../lib/gcc/nios2-elf/4.7.3/../../../../../H-i686-mingw32/nios2-elf/lib\libc.a(lib_a-memcmp.o)
 .debug_abbrev  0x0000b263       0x60 c:/altera/13.1/nios2eds/bin/gnu/h-i686-mingw32/bin/../lib/gcc/nios2-elf/4.7.3\libgcc.a(_fixunsdfsi.o)

.debug_line     0x00000000     0xc9d8
 *(.debug_line)
 .debug_line    0x00000000       0x6c ../UcosiiBSP_for_cpu_s1//obj/HAL/src/crt0.o
 .debug_line    0x0000006c       0xd3 c:/altera/13.1/nios2eds/bin/gnu/h-i686-mingw32/bin/../lib/gcc/nios2-elf/4.7.3\libgcc.a(lib2-divmod.o)
 .debug_line    0x0000013f      0x219 c:/altera/13.1/nios2eds/bin/gnu/h-i686-mingw32/bin/../lib/gcc/nios2-elf/4.7.3/../../../../../H-i686-mingw32/nios2-elf/lib\libc.a(lib_a-exit.o)
 .debug_line    0x00000358      0x29c c:/altera/13.1/nios2eds/bin/gnu/h-i686-mingw32/bin/../lib/gcc/nios2-elf/4.7.3/../../../../../H-i686-mingw32/nios2-elf/lib\libc.a(lib_a-fflush.o)
 .debug_line    0x000005f4      0x2e6 c:/altera/13.1/nios2eds/bin/gnu/h-i686-mingw32/bin/../lib/gcc/nios2-elf/4.7.3/../../../../../H-i686-mingw32/nios2-elf/lib\libc.a(lib_a-findfp.o)
 .debug_line    0x000008da      0x218 c:/altera/13.1/nios2eds/bin/gnu/h-i686-mingw32/bin/../lib/gcc/nios2-elf/4.7.3/../../../../../H-i686-mingw32/nios2-elf/lib\libc.a(lib_a-fprintf.o)
 .debug_line    0x00000af2      0x23c c:/altera/13.1/nios2eds/bin/gnu/h-i686-mingw32/bin/../lib/gcc/nios2-elf/4.7.3/../../../../../H-i686-mingw32/nios2-elf/lib\libc.a(lib_a-fputs.o)
 .debug_line    0x00000d2e      0x360 c:/altera/13.1/nios2eds/bin/gnu/h-i686-mingw32/bin/../lib/gcc/nios2-elf/4.7.3/../../../../../H-i686-mingw32/nios2-elf/lib\libc.a(lib_a-fvwrite.o)
 .debug_line    0x0000108e      0x259 c:/altera/13.1/nios2eds/bin/gnu/h-i686-mingw32/bin/../lib/gcc/nios2-elf/4.7.3/../../../../../H-i686-mingw32/nios2-elf/lib\libc.a(lib_a-fwalk.o)
 .debug_line    0x000012e7      0x173 c:/altera/13.1/nios2eds/bin/gnu/h-i686-mingw32/bin/../lib/gcc/nios2-elf/4.7.3/../../../../../H-i686-mingw32/nios2-elf/lib\libc.a(lib_a-impure.o)
 .debug_line    0x0000145a      0x421 c:/altera/13.1/nios2eds/bin/gnu/h-i686-mingw32/bin/../lib/gcc/nios2-elf/4.7.3/../../../../../H-i686-mingw32/nios2-elf/lib\libc.a(lib_a-mallocr.o)
 .debug_line    0x0000187b      0x1f1 c:/altera/13.1/nios2eds/bin/gnu/h-i686-mingw32/bin/../lib/gcc/nios2-elf/4.7.3/../../../../../H-i686-mingw32/nios2-elf/lib\libc.a(lib_a-memchr.o)
 .debug_line    0x00001a6c      0x13d c:/altera/13.1/nios2eds/bin/gnu/h-i686-mingw32/bin/../lib/gcc/nios2-elf/4.7.3/../../../../../H-i686-mingw32/nios2-elf/lib\libc.a(lib_a-memcpy.o)
 .debug_line    0x00001ba9      0x1ed c:/altera/13.1/nios2eds/bin/gnu/h-i686-mingw32/bin/../lib/gcc/nios2-elf/4.7.3/../../../../../H-i686-mingw32/nios2-elf/lib\libc.a(lib_a-memmove.o)
 .debug_line    0x00001d96      0x1f1 c:/altera/13.1/nios2eds/bin/gnu/h-i686-mingw32/bin/../lib/gcc/nios2-elf/4.7.3/../../../../../H-i686-mingw32/nios2-elf/lib\libc.a(lib_a-memset.o)
 .debug_line    0x00001f87      0x218 c:/altera/13.1/nios2eds/bin/gnu/h-i686-mingw32/bin/../lib/gcc/nios2-elf/4.7.3/../../../../../H-i686-mingw32/nios2-elf/lib\libc.a(lib_a-printf.o)
 .debug_line    0x0000219f      0x235 c:/altera/13.1/nios2eds/bin/gnu/h-i686-mingw32/bin/../lib/gcc/nios2-elf/4.7.3/../../../../../H-i686-mingw32/nios2-elf/lib\libc.a(lib_a-puts.o)
 .debug_line    0x000023d4      0x20b c:/altera/13.1/nios2eds/bin/gnu/h-i686-mingw32/bin/../lib/gcc/nios2-elf/4.7.3/../../../../../H-i686-mingw32/nios2-elf/lib\libc.a(lib_a-rand.o)
 .debug_line    0x000025df      0x330 c:/altera/13.1/nios2eds/bin/gnu/h-i686-mingw32/bin/../lib/gcc/nios2-elf/4.7.3/../../../../../H-i686-mingw32/nios2-elf/lib\libc.a(lib_a-reallocr.o)
 .debug_line    0x0000290f      0x212 c:/altera/13.1/nios2eds/bin/gnu/h-i686-mingw32/bin/../lib/gcc/nios2-elf/4.7.3/../../../../../H-i686-mingw32/nios2-elf/lib\libc.a(lib_a-sbrkr.o)
 .debug_line    0x00002b21      0x245 c:/altera/13.1/nios2eds/bin/gnu/h-i686-mingw32/bin/../lib/gcc/nios2-elf/4.7.3/../../../../../H-i686-mingw32/nios2-elf/lib\libc.a(lib_a-stdio.o)
 .debug_line    0x00002d66      0x10b c:/altera/13.1/nios2eds/bin/gnu/h-i686-mingw32/bin/../lib/gcc/nios2-elf/4.7.3/../../../../../H-i686-mingw32/nios2-elf/lib\libc.a(lib_a-strcpy.o)
 .debug_line    0x00002e71      0x182 c:/altera/13.1/nios2eds/bin/gnu/h-i686-mingw32/bin/../lib/gcc/nios2-elf/4.7.3/../../../../../H-i686-mingw32/nios2-elf/lib\libc.a(lib_a-strlen.o)
 .debug_line    0x00002ff3      0xaf9 c:/altera/13.1/nios2eds/bin/gnu/h-i686-mingw32/bin/../lib/gcc/nios2-elf/4.7.3/../../../../../H-i686-mingw32/nios2-elf/lib\libc.a(lib_a-vfprintf.o)
 .debug_line    0x00003aec      0x213 c:/altera/13.1/nios2eds/bin/gnu/h-i686-mingw32/bin/../lib/gcc/nios2-elf/4.7.3/../../../../../H-i686-mingw32/nios2-elf/lib\libc.a(lib_a-writer.o)
 .debug_line    0x00003cff      0x26b c:/altera/13.1/nios2eds/bin/gnu/h-i686-mingw32/bin/../lib/gcc/nios2-elf/4.7.3/../../../../../H-i686-mingw32/nios2-elf/lib\libc.a(lib_a-wsetup.o)
 .debug_line    0x00003f6a      0x264 c:/altera/13.1/nios2eds/bin/gnu/h-i686-mingw32/bin/../lib/gcc/nios2-elf/4.7.3/../../../../../H-i686-mingw32/nios2-elf/lib\libc.a(lib_a-__call_atexit.o)
 .debug_line    0x000041ce      0x213 c:/altera/13.1/nios2eds/bin/gnu/h-i686-mingw32/bin/../lib/gcc/nios2-elf/4.7.3/../../../../../H-i686-mingw32/nios2-elf/lib\libc.a(lib_a-closer.o)
 .debug_line    0x000043e1      0x876 c:/altera/13.1/nios2eds/bin/gnu/h-i686-mingw32/bin/../lib/gcc/nios2-elf/4.7.3/../../../../../H-i686-mingw32/nios2-elf/lib\libc.a(lib_a-dtoa.o)
 .debug_line    0x00004c57      0x266 c:/altera/13.1/nios2eds/bin/gnu/h-i686-mingw32/bin/../lib/gcc/nios2-elf/4.7.3/../../../../../H-i686-mingw32/nios2-elf/lib\libc.a(lib_a-fclose.o)
 .debug_line    0x00004ebd      0x311 c:/altera/13.1/nios2eds/bin/gnu/h-i686-mingw32/bin/../lib/gcc/nios2-elf/4.7.3/../../../../../H-i686-mingw32/nios2-elf/lib\libc.a(lib_a-freer.o)
 .debug_line    0x000051ce       0x5d c:/altera/13.1/nios2eds/bin/gnu/h-i686-mingw32/bin/../lib/gcc/nios2-elf/4.7.3/../../../../../H-i686-mingw32/nios2-elf/lib\libc.a(lib_a-int_errno.o)
 .debug_line    0x0000522b      0x231 c:/altera/13.1/nios2eds/bin/gnu/h-i686-mingw32/bin/../lib/gcc/nios2-elf/4.7.3/../../../../../H-i686-mingw32/nios2-elf/lib\libc.a(lib_a-locale.o)
 .debug_line    0x0000545c      0x21e c:/altera/13.1/nios2eds/bin/gnu/h-i686-mingw32/bin/../lib/gcc/nios2-elf/4.7.3/../../../../../H-i686-mingw32/nios2-elf/lib\libc.a(lib_a-lseekr.o)
 .debug_line    0x0000567a      0x293 c:/altera/13.1/nios2eds/bin/gnu/h-i686-mingw32/bin/../lib/gcc/nios2-elf/4.7.3/../../../../../H-i686-mingw32/nios2-elf/lib\libc.a(lib_a-makebuf.o)
 .debug_line    0x0000590d      0x725 c:/altera/13.1/nios2eds/bin/gnu/h-i686-mingw32/bin/../lib/gcc/nios2-elf/4.7.3/../../../../../H-i686-mingw32/nios2-elf/lib\libc.a(lib_a-mprec.o)
 .debug_line    0x00006032      0x212 c:/altera/13.1/nios2eds/bin/gnu/h-i686-mingw32/bin/../lib/gcc/nios2-elf/4.7.3/../../../../../H-i686-mingw32/nios2-elf/lib\libc.a(lib_a-readr.o)
 .debug_line    0x00006244      0x170 c:/altera/13.1/nios2eds/bin/gnu/h-i686-mingw32/bin/../lib/gcc/nios2-elf/4.7.3/../../../../../H-i686-mingw32/nios2-elf/lib\libc.a(lib_a-s_isinfd.o)
 .debug_line    0x000063b4      0x170 c:/altera/13.1/nios2eds/bin/gnu/h-i686-mingw32/bin/../lib/gcc/nios2-elf/4.7.3/../../../../../H-i686-mingw32/nios2-elf/lib\libc.a(lib_a-s_isnand.o)
 .debug_line    0x00006524      0x110 c:/altera/13.1/nios2eds/bin/gnu/h-i686-mingw32/bin/../lib/gcc/nios2-elf/4.7.3/../../../../../H-i686-mingw32/nios2-elf/lib\libc.a(lib_a-strcmp.o)
 .debug_line    0x00006634      0x1c9 c:/altera/13.1/nios2eds/bin/gnu/h-i686-mingw32/bin/../lib/gcc/nios2-elf/4.7.3/../../../../../H-i686-mingw32/nios2-elf/lib\libc.a(lib_a-callocr.o)
 .debug_line    0x000067fd      0x21c c:/altera/13.1/nios2eds/bin/gnu/h-i686-mingw32/bin/../lib/gcc/nios2-elf/4.7.3/../../../../../H-i686-mingw32/nios2-elf/lib\libc.a(lib_a-fstatr.o)
 .debug_line    0x00006a19      0x214 c:/altera/13.1/nios2eds/bin/gnu/h-i686-mingw32/bin/../lib/gcc/nios2-elf/4.7.3/../../../../../H-i686-mingw32/nios2-elf/lib\libc.a(lib_a-isattyr.o)
 .debug_line    0x00006c2d       0x8b c:/altera/13.1/nios2eds/bin/gnu/h-i686-mingw32/bin/../lib/gcc/nios2-elf/4.7.3\libgcc.a(_muldi3.o)
 .debug_line    0x00006cb8      0x119 c:/altera/13.1/nios2eds/bin/gnu/h-i686-mingw32/bin/../lib/gcc/nios2-elf/4.7.3\libgcc.a(_udivdi3.o)
 .debug_line    0x00006dd1      0x121 c:/altera/13.1/nios2eds/bin/gnu/h-i686-mingw32/bin/../lib/gcc/nios2-elf/4.7.3\libgcc.a(_umoddi3.o)
 .debug_line    0x00006ef2      0x131 c:/altera/13.1/nios2eds/bin/gnu/h-i686-mingw32/bin/../lib/gcc/nios2-elf/4.7.3\libgcc.a(_addsub_df.o)
 .debug_line    0x00007023      0x114 c:/altera/13.1/nios2eds/bin/gnu/h-i686-mingw32/bin/../lib/gcc/nios2-elf/4.7.3\libgcc.a(_mul_df.o)
 .debug_line    0x00007137       0xce c:/altera/13.1/nios2eds/bin/gnu/h-i686-mingw32/bin/../lib/gcc/nios2-elf/4.7.3\libgcc.a(_div_df.o)
 .debug_line    0x00007205       0x6d c:/altera/13.1/nios2eds/bin/gnu/h-i686-mingw32/bin/../lib/gcc/nios2-elf/4.7.3\libgcc.a(_eq_df.o)
 .debug_line    0x00007272       0x6d c:/altera/13.1/nios2eds/bin/gnu/h-i686-mingw32/bin/../lib/gcc/nios2-elf/4.7.3\libgcc.a(_ne_df.o)
 .debug_line    0x000072df       0x6e c:/altera/13.1/nios2eds/bin/gnu/h-i686-mingw32/bin/../lib/gcc/nios2-elf/4.7.3\libgcc.a(_gt_df.o)
 .debug_line    0x0000734d       0x6e c:/altera/13.1/nios2eds/bin/gnu/h-i686-mingw32/bin/../lib/gcc/nios2-elf/4.7.3\libgcc.a(_ge_df.o)
 .debug_line    0x000073bb       0x6d c:/altera/13.1/nios2eds/bin/gnu/h-i686-mingw32/bin/../lib/gcc/nios2-elf/4.7.3\libgcc.a(_lt_df.o)
 .debug_line    0x00007428       0x94 c:/altera/13.1/nios2eds/bin/gnu/h-i686-mingw32/bin/../lib/gcc/nios2-elf/4.7.3\libgcc.a(_si_to_df.o)
 .debug_line    0x000074bc       0x8d c:/altera/13.1/nios2eds/bin/gnu/h-i686-mingw32/bin/../lib/gcc/nios2-elf/4.7.3\libgcc.a(_df_to_si.o)
 .debug_line    0x00007549       0x51 c:/altera/13.1/nios2eds/bin/gnu/h-i686-mingw32/bin/../lib/gcc/nios2-elf/4.7.3\libgcc.a(_thenan_df.o)
 .debug_line    0x0000759a       0x9e c:/altera/13.1/nios2eds/bin/gnu/h-i686-mingw32/bin/../lib/gcc/nios2-elf/4.7.3\libgcc.a(_usi_to_df.o)
 .debug_line    0x00007638       0x53 c:/altera/13.1/nios2eds/bin/gnu/h-i686-mingw32/bin/../lib/gcc/nios2-elf/4.7.3\libgcc.a(_clz.o)
 .debug_line    0x0000768b       0x8c c:/altera/13.1/nios2eds/bin/gnu/h-i686-mingw32/bin/../lib/gcc/nios2-elf/4.7.3\libgcc.a(_clzsi2.o)
 .debug_line    0x00007717       0xc7 c:/altera/13.1/nios2eds/bin/gnu/h-i686-mingw32/bin/../lib/gcc/nios2-elf/4.7.3\libgcc.a(_pack_df.o)
 .debug_line    0x000077de       0xa2 c:/altera/13.1/nios2eds/bin/gnu/h-i686-mingw32/bin/../lib/gcc/nios2-elf/4.7.3\libgcc.a(_unpack_df.o)
 .debug_line    0x00007880       0x96 c:/altera/13.1/nios2eds/bin/gnu/h-i686-mingw32/bin/../lib/gcc/nios2-elf/4.7.3\libgcc.a(_fpcmp_parts_df.o)
 .debug_line    0x00007916       0x77 c:/altera/13.1/nios2eds/bin/gnu/h-i686-mingw32/bin/../lib/gcc/nios2-elf/4.7.3\libgcc.a(_lshrdi3.o)
 .debug_line    0x0000798d       0x75 c:/altera/13.1/nios2eds/bin/gnu/h-i686-mingw32/bin/../lib/gcc/nios2-elf/4.7.3\libgcc.a(_ashldi3.o)
 .debug_line    0x00007a02      0x198 ../UcosiiBSP_for_cpu_s1/\libucosii_bsp.a(alt_close.o)
 .debug_line    0x00007b9a      0x16f ../UcosiiBSP_for_cpu_s1/\libucosii_bsp.a(alt_dev.o)
 .debug_line    0x00007d09       0x51 ../UcosiiBSP_for_cpu_s1/\libucosii_bsp.a(alt_errno.o)
 .debug_line    0x00007d5a       0xd6 ../UcosiiBSP_for_cpu_s1/\libucosii_bsp.a(alt_exit.o)
 .debug_line    0x00007e30      0x196 ../UcosiiBSP_for_cpu_s1/\libucosii_bsp.a(alt_fstat.o)
 .debug_line    0x00007fc6       0xf8 ../UcosiiBSP_for_cpu_s1/\libucosii_bsp.a(alt_irq_register.o)
 .debug_line    0x000080be       0x50 ../UcosiiBSP_for_cpu_s1/\libucosii_bsp.a(alt_irq_vars.o)
 .debug_line    0x0000810e      0x197 ../UcosiiBSP_for_cpu_s1/\libucosii_bsp.a(alt_isatty.o)
 .debug_line    0x000082a5       0xd6 ../UcosiiBSP_for_cpu_s1/\libucosii_bsp.a(alt_load.o)
 .debug_line    0x0000837b      0x191 ../UcosiiBSP_for_cpu_s1/\libucosii_bsp.a(alt_lseek.o)
 .debug_line    0x0000850c      0x25e ../UcosiiBSP_for_cpu_s1/\libucosii_bsp.a(alt_main.o)
 .debug_line    0x0000876a      0x208 ../UcosiiBSP_for_cpu_s1/\libucosii_bsp.a(alt_read.o)
 .debug_line    0x00008972       0xcf ../UcosiiBSP_for_cpu_s1/\libucosii_bsp.a(alt_release_fd.o)
 .debug_line    0x00008a41      0x14a ../UcosiiBSP_for_cpu_s1/\libucosii_bsp.a(alt_sbrk.o)
 .debug_line    0x00008b8b      0x199 ../UcosiiBSP_for_cpu_s1/\libucosii_bsp.a(alt_usleep.o)
 .debug_line    0x00008d24      0x202 ../UcosiiBSP_for_cpu_s1/\libucosii_bsp.a(alt_write.o)
 .debug_line    0x00008f26      0x1ce ../UcosiiBSP_for_cpu_s1/\libucosii_bsp.a(alt_env_lock.o)
 .debug_line    0x000090f4      0x218 ../UcosiiBSP_for_cpu_s1/\libucosii_bsp.a(alt_malloc_lock.o)
 .debug_line    0x0000930c      0x63f ../UcosiiBSP_for_cpu_s1/\libucosii_bsp.a(os_core.o)
 .debug_line    0x0000994b       0xb5 ../UcosiiBSP_for_cpu_s1/\libucosii_bsp.a(os_dbg.o)
 .debug_line    0x00009a00      0x428 ../UcosiiBSP_for_cpu_s1/\libucosii_bsp.a(os_flag.o)
 .debug_line    0x00009e28      0x245 ../UcosiiBSP_for_cpu_s1/\libucosii_bsp.a(os_mem.o)
 .debug_line    0x0000a06d      0x33e ../UcosiiBSP_for_cpu_s1/\libucosii_bsp.a(os_mutex.o)
 .debug_line    0x0000a3ab      0x40d ../UcosiiBSP_for_cpu_s1/\libucosii_bsp.a(os_q.o)
 .debug_line    0x0000a7b8      0x2ca ../UcosiiBSP_for_cpu_s1/\libucosii_bsp.a(os_sem.o)
 .debug_line    0x0000aa82      0x4ef ../UcosiiBSP_for_cpu_s1/\libucosii_bsp.a(os_task.o)
 .debug_line    0x0000af71      0x19a ../UcosiiBSP_for_cpu_s1/\libucosii_bsp.a(os_time.o)
 .debug_line    0x0000b10b      0x199 ../UcosiiBSP_for_cpu_s1/\libucosii_bsp.a(alt_sys_init.o)
 .debug_line    0x0000b2a4      0x147 ../UcosiiBSP_for_cpu_s1/\libucosii_bsp.a(altera_avalon_jtag_uart_fd.o)
 .debug_line    0x0000b3eb      0x13e ../UcosiiBSP_for_cpu_s1/\libucosii_bsp.a(altera_avalon_jtag_uart_read.o)
 .debug_line    0x0000b529      0x12f ../UcosiiBSP_for_cpu_s1/\libucosii_bsp.a(altera_avalon_jtag_uart_write.o)
 .debug_line    0x0000b658      0x113 ../UcosiiBSP_for_cpu_s1/\libucosii_bsp.a(altera_avalon_timer_sc.o)
 .debug_line    0x0000b76b       0x9d ../UcosiiBSP_for_cpu_s1/\libucosii_bsp.a(alt_busy_sleep.o)
 .debug_line    0x0000b808       0x4e ../UcosiiBSP_for_cpu_s1/\libucosii_bsp.a(alt_dcache_flush_all.o)
 .debug_line    0x0000b856       0xc0 ../UcosiiBSP_for_cpu_s1/\libucosii_bsp.a(alt_dev_llist_insert.o)
 .debug_line    0x0000b916       0x87 ../UcosiiBSP_for_cpu_s1/\libucosii_bsp.a(alt_icache_flush_all.o)
 .debug_line    0x0000b99d      0x18c ../UcosiiBSP_for_cpu_s1/\libucosii_bsp.a(alt_io_redirect.o)
 .debug_line    0x0000bb29       0x6b ../UcosiiBSP_for_cpu_s1/\libucosii_bsp.a(alt_irq_entry.o)
 .debug_line    0x0000bb94       0xf7 ../UcosiiBSP_for_cpu_s1/\libucosii_bsp.a(alt_irq_handler.o)
 .debug_line    0x0000bc8b      0x12c ../UcosiiBSP_for_cpu_s1/\libucosii_bsp.a(alt_open.o)
 .debug_line    0x0000bdb7      0x13b ../UcosiiBSP_for_cpu_s1/\libucosii_bsp.a(alt_tick.o)
 .debug_line    0x0000bef2       0x8c ../UcosiiBSP_for_cpu_s1/\libucosii_bsp.a(altera_nios2_qsys_irq.o)
 .debug_line    0x0000bf7e       0x86 ../UcosiiBSP_for_cpu_s1/\libucosii_bsp.a(os_cpu_a.o)
 .debug_line    0x0000c004      0x1e2 ../UcosiiBSP_for_cpu_s1/\libucosii_bsp.a(os_cpu_c.o)
 .debug_line    0x0000c1e6       0xab ../UcosiiBSP_for_cpu_s1/\libucosii_bsp.a(alt_exception_entry.o)
 .debug_line    0x0000c291      0x1b6 ../UcosiiBSP_for_cpu_s1/\libucosii_bsp.a(alt_find_dev.o)
 .debug_line    0x0000c447      0x1ce ../UcosiiBSP_for_cpu_s1/\libucosii_bsp.a(alt_find_file.o)
 .debug_line    0x0000c615      0x14b ../UcosiiBSP_for_cpu_s1/\libucosii_bsp.a(alt_get_fd.o)
 .debug_line    0x0000c760       0x7d ../UcosiiBSP_for_cpu_s1/\libucosii_bsp.a(alt_icache_flush.o)
 .debug_line    0x0000c7dd      0x18d c:/altera/13.1/nios2eds/bin/gnu/h-i686-mingw32/bin/../lib/gcc/nios2-elf/4.7.3/../../../../../H-i686-mingw32/nios2-elf/lib\libc.a(lib_a-memcmp.o)
 .debug_line    0x0000c96a       0x6e c:/altera/13.1/nios2eds/bin/gnu/h-i686-mingw32/bin/../lib/gcc/nios2-elf/4.7.3\libgcc.a(_fixunsdfsi.o)

.debug_frame    0x00000000     0x1e88
 *(.debug_frame)
 .debug_frame   0x00000000       0x70 c:/altera/13.1/nios2eds/bin/gnu/h-i686-mingw32/bin/../lib/gcc/nios2-elf/4.7.3\libgcc.a(lib2-divmod.o)
 .debug_frame   0x00000070       0x28 c:/altera/13.1/nios2eds/bin/gnu/h-i686-mingw32/bin/../lib/gcc/nios2-elf/4.7.3/../../../../../H-i686-mingw32/nios2-elf/lib\libc.a(lib_a-exit.o)
 .debug_frame   0x00000098       0x40 c:/altera/13.1/nios2eds/bin/gnu/h-i686-mingw32/bin/../lib/gcc/nios2-elf/4.7.3/../../../../../H-i686-mingw32/nios2-elf/lib\libc.a(lib_a-fflush.o)
 .debug_frame   0x000000d8      0x100 c:/altera/13.1/nios2eds/bin/gnu/h-i686-mingw32/bin/../lib/gcc/nios2-elf/4.7.3/../../../../../H-i686-mingw32/nios2-elf/lib\libc.a(lib_a-findfp.o)
 .debug_frame   0x000001d8       0x40 c:/altera/13.1/nios2eds/bin/gnu/h-i686-mingw32/bin/../lib/gcc/nios2-elf/4.7.3/../../../../../H-i686-mingw32/nios2-elf/lib\libc.a(lib_a-fprintf.o)
 .debug_frame   0x00000218       0x3c c:/altera/13.1/nios2eds/bin/gnu/h-i686-mingw32/bin/../lib/gcc/nios2-elf/4.7.3/../../../../../H-i686-mingw32/nios2-elf/lib\libc.a(lib_a-fputs.o)
 .debug_frame   0x00000254       0x38 c:/altera/13.1/nios2eds/bin/gnu/h-i686-mingw32/bin/../lib/gcc/nios2-elf/4.7.3/../../../../../H-i686-mingw32/nios2-elf/lib\libc.a(lib_a-fvwrite.o)
 .debug_frame   0x0000028c       0x5c c:/altera/13.1/nios2eds/bin/gnu/h-i686-mingw32/bin/../lib/gcc/nios2-elf/4.7.3/../../../../../H-i686-mingw32/nios2-elf/lib\libc.a(lib_a-fwalk.o)
 .debug_frame   0x000002e8       0x38 c:/altera/13.1/nios2eds/bin/gnu/h-i686-mingw32/bin/../lib/gcc/nios2-elf/4.7.3/../../../../../H-i686-mingw32/nios2-elf/lib\libc.a(lib_a-mallocr.o)
 .debug_frame   0x00000320       0x20 c:/altera/13.1/nios2eds/bin/gnu/h-i686-mingw32/bin/../lib/gcc/nios2-elf/4.7.3/../../../../../H-i686-mingw32/nios2-elf/lib\libc.a(lib_a-memchr.o)
 .debug_frame   0x00000340       0x20 c:/altera/13.1/nios2eds/bin/gnu/h-i686-mingw32/bin/../lib/gcc/nios2-elf/4.7.3/../../../../../H-i686-mingw32/nios2-elf/lib\libc.a(lib_a-memcpy.o)
 .debug_frame   0x00000360       0x20 c:/altera/13.1/nios2eds/bin/gnu/h-i686-mingw32/bin/../lib/gcc/nios2-elf/4.7.3/../../../../../H-i686-mingw32/nios2-elf/lib\libc.a(lib_a-memmove.o)
 .debug_frame   0x00000380       0x20 c:/altera/13.1/nios2eds/bin/gnu/h-i686-mingw32/bin/../lib/gcc/nios2-elf/4.7.3/../../../../../H-i686-mingw32/nios2-elf/lib\libc.a(lib_a-memset.o)
 .debug_frame   0x000003a0       0x40 c:/altera/13.1/nios2eds/bin/gnu/h-i686-mingw32/bin/../lib/gcc/nios2-elf/4.7.3/../../../../../H-i686-mingw32/nios2-elf/lib\libc.a(lib_a-printf.o)
 .debug_frame   0x000003e0       0x3c c:/altera/13.1/nios2eds/bin/gnu/h-i686-mingw32/bin/../lib/gcc/nios2-elf/4.7.3/../../../../../H-i686-mingw32/nios2-elf/lib\libc.a(lib_a-puts.o)
 .debug_frame   0x0000041c       0x3c c:/altera/13.1/nios2eds/bin/gnu/h-i686-mingw32/bin/../lib/gcc/nios2-elf/4.7.3/../../../../../H-i686-mingw32/nios2-elf/lib\libc.a(lib_a-rand.o)
 .debug_frame   0x00000458       0x38 c:/altera/13.1/nios2eds/bin/gnu/h-i686-mingw32/bin/../lib/gcc/nios2-elf/4.7.3/../../../../../H-i686-mingw32/nios2-elf/lib\libc.a(lib_a-reallocr.o)
 .debug_frame   0x00000490       0x2c c:/altera/13.1/nios2eds/bin/gnu/h-i686-mingw32/bin/../lib/gcc/nios2-elf/4.7.3/../../../../../H-i686-mingw32/nios2-elf/lib\libc.a(lib_a-sbrkr.o)
 .debug_frame   0x000004bc       0x78 c:/altera/13.1/nios2eds/bin/gnu/h-i686-mingw32/bin/../lib/gcc/nios2-elf/4.7.3/../../../../../H-i686-mingw32/nios2-elf/lib\libc.a(lib_a-stdio.o)
 .debug_frame   0x00000534       0x20 c:/altera/13.1/nios2eds/bin/gnu/h-i686-mingw32/bin/../lib/gcc/nios2-elf/4.7.3/../../../../../H-i686-mingw32/nios2-elf/lib\libc.a(lib_a-strcpy.o)
 .debug_frame   0x00000554       0x20 c:/altera/13.1/nios2eds/bin/gnu/h-i686-mingw32/bin/../lib/gcc/nios2-elf/4.7.3/../../../../../H-i686-mingw32/nios2-elf/lib\libc.a(lib_a-strlen.o)
 .debug_frame   0x00000574       0x64 c:/altera/13.1/nios2eds/bin/gnu/h-i686-mingw32/bin/../lib/gcc/nios2-elf/4.7.3/../../../../../H-i686-mingw32/nios2-elf/lib\libc.a(lib_a-vfprintf.o)
 .debug_frame   0x000005d8       0x2c c:/altera/13.1/nios2eds/bin/gnu/h-i686-mingw32/bin/../lib/gcc/nios2-elf/4.7.3/../../../../../H-i686-mingw32/nios2-elf/lib\libc.a(lib_a-writer.o)
 .debug_frame   0x00000604       0x2c c:/altera/13.1/nios2eds/bin/gnu/h-i686-mingw32/bin/../lib/gcc/nios2-elf/4.7.3/../../../../../H-i686-mingw32/nios2-elf/lib\libc.a(lib_a-wsetup.o)
 .debug_frame   0x00000630       0x38 c:/altera/13.1/nios2eds/bin/gnu/h-i686-mingw32/bin/../lib/gcc/nios2-elf/4.7.3/../../../../../H-i686-mingw32/nios2-elf/lib\libc.a(lib_a-__call_atexit.o)
 .debug_frame   0x00000668       0x2c c:/altera/13.1/nios2eds/bin/gnu/h-i686-mingw32/bin/../lib/gcc/nios2-elf/4.7.3/../../../../../H-i686-mingw32/nios2-elf/lib\libc.a(lib_a-closer.o)
 .debug_frame   0x00000694       0x64 c:/altera/13.1/nios2eds/bin/gnu/h-i686-mingw32/bin/../lib/gcc/nios2-elf/4.7.3/../../../../../H-i686-mingw32/nios2-elf/lib\libc.a(lib_a-dtoa.o)
 .debug_frame   0x000006f8       0x3c c:/altera/13.1/nios2eds/bin/gnu/h-i686-mingw32/bin/../lib/gcc/nios2-elf/4.7.3/../../../../../H-i686-mingw32/nios2-elf/lib\libc.a(lib_a-fclose.o)
 .debug_frame   0x00000734       0x4c c:/altera/13.1/nios2eds/bin/gnu/h-i686-mingw32/bin/../lib/gcc/nios2-elf/4.7.3/../../../../../H-i686-mingw32/nios2-elf/lib\libc.a(lib_a-freer.o)
 .debug_frame   0x00000780       0x6c c:/altera/13.1/nios2eds/bin/gnu/h-i686-mingw32/bin/../lib/gcc/nios2-elf/4.7.3/../../../../../H-i686-mingw32/nios2-elf/lib\libc.a(lib_a-locale.o)
 .debug_frame   0x000007ec       0x2c c:/altera/13.1/nios2eds/bin/gnu/h-i686-mingw32/bin/../lib/gcc/nios2-elf/4.7.3/../../../../../H-i686-mingw32/nios2-elf/lib\libc.a(lib_a-lseekr.o)
 .debug_frame   0x00000818       0x2c c:/altera/13.1/nios2eds/bin/gnu/h-i686-mingw32/bin/../lib/gcc/nios2-elf/4.7.3/../../../../../H-i686-mingw32/nios2-elf/lib\libc.a(lib_a-makebuf.o)
 .debug_frame   0x00000844      0x204 c:/altera/13.1/nios2eds/bin/gnu/h-i686-mingw32/bin/../lib/gcc/nios2-elf/4.7.3/../../../../../H-i686-mingw32/nios2-elf/lib\libc.a(lib_a-mprec.o)
 .debug_frame   0x00000a48       0x2c c:/altera/13.1/nios2eds/bin/gnu/h-i686-mingw32/bin/../lib/gcc/nios2-elf/4.7.3/../../../../../H-i686-mingw32/nios2-elf/lib\libc.a(lib_a-readr.o)
 .debug_frame   0x00000a74       0x20 c:/altera/13.1/nios2eds/bin/gnu/h-i686-mingw32/bin/../lib/gcc/nios2-elf/4.7.3/../../../../../H-i686-mingw32/nios2-elf/lib\libc.a(lib_a-s_isinfd.o)
 .debug_frame   0x00000a94       0x20 c:/altera/13.1/nios2eds/bin/gnu/h-i686-mingw32/bin/../lib/gcc/nios2-elf/4.7.3/../../../../../H-i686-mingw32/nios2-elf/lib\libc.a(lib_a-s_isnand.o)
 .debug_frame   0x00000ab4       0x20 c:/altera/13.1/nios2eds/bin/gnu/h-i686-mingw32/bin/../lib/gcc/nios2-elf/4.7.3/../../../../../H-i686-mingw32/nios2-elf/lib\libc.a(lib_a-strcmp.o)
 .debug_frame   0x00000ad4       0x28 c:/altera/13.1/nios2eds/bin/gnu/h-i686-mingw32/bin/../lib/gcc/nios2-elf/4.7.3/../../../../../H-i686-mingw32/nios2-elf/lib\libc.a(lib_a-callocr.o)
 .debug_frame   0x00000afc       0x2c c:/altera/13.1/nios2eds/bin/gnu/h-i686-mingw32/bin/../lib/gcc/nios2-elf/4.7.3/../../../../../H-i686-mingw32/nios2-elf/lib\libc.a(lib_a-fstatr.o)
 .debug_frame   0x00000b28       0x2c c:/altera/13.1/nios2eds/bin/gnu/h-i686-mingw32/bin/../lib/gcc/nios2-elf/4.7.3/../../../../../H-i686-mingw32/nios2-elf/lib\libc.a(lib_a-isattyr.o)
 .debug_frame   0x00000b54       0x20 c:/altera/13.1/nios2eds/bin/gnu/h-i686-mingw32/bin/../lib/gcc/nios2-elf/4.7.3\libgcc.a(_muldi3.o)
 .debug_frame   0x00000b74       0x38 c:/altera/13.1/nios2eds/bin/gnu/h-i686-mingw32/bin/../lib/gcc/nios2-elf/4.7.3\libgcc.a(_udivdi3.o)
 .debug_frame   0x00000bac       0x38 c:/altera/13.1/nios2eds/bin/gnu/h-i686-mingw32/bin/../lib/gcc/nios2-elf/4.7.3\libgcc.a(_umoddi3.o)
 .debug_frame   0x00000be4       0x50 c:/altera/13.1/nios2eds/bin/gnu/h-i686-mingw32/bin/../lib/gcc/nios2-elf/4.7.3\libgcc.a(_addsub_df.o)
 .debug_frame   0x00000c34       0x38 c:/altera/13.1/nios2eds/bin/gnu/h-i686-mingw32/bin/../lib/gcc/nios2-elf/4.7.3\libgcc.a(_mul_df.o)
 .debug_frame   0x00000c6c       0x28 c:/altera/13.1/nios2eds/bin/gnu/h-i686-mingw32/bin/../lib/gcc/nios2-elf/4.7.3\libgcc.a(_div_df.o)
 .debug_frame   0x00000c94       0x28 c:/altera/13.1/nios2eds/bin/gnu/h-i686-mingw32/bin/../lib/gcc/nios2-elf/4.7.3\libgcc.a(_eq_df.o)
 .debug_frame   0x00000cbc       0x28 c:/altera/13.1/nios2eds/bin/gnu/h-i686-mingw32/bin/../lib/gcc/nios2-elf/4.7.3\libgcc.a(_ne_df.o)
 .debug_frame   0x00000ce4       0x28 c:/altera/13.1/nios2eds/bin/gnu/h-i686-mingw32/bin/../lib/gcc/nios2-elf/4.7.3\libgcc.a(_gt_df.o)
 .debug_frame   0x00000d0c       0x28 c:/altera/13.1/nios2eds/bin/gnu/h-i686-mingw32/bin/../lib/gcc/nios2-elf/4.7.3\libgcc.a(_ge_df.o)
 .debug_frame   0x00000d34       0x28 c:/altera/13.1/nios2eds/bin/gnu/h-i686-mingw32/bin/../lib/gcc/nios2-elf/4.7.3\libgcc.a(_lt_df.o)
 .debug_frame   0x00000d5c       0x28 c:/altera/13.1/nios2eds/bin/gnu/h-i686-mingw32/bin/../lib/gcc/nios2-elf/4.7.3\libgcc.a(_si_to_df.o)
 .debug_frame   0x00000d84       0x28 c:/altera/13.1/nios2eds/bin/gnu/h-i686-mingw32/bin/../lib/gcc/nios2-elf/4.7.3\libgcc.a(_df_to_si.o)
 .debug_frame   0x00000dac       0x28 c:/altera/13.1/nios2eds/bin/gnu/h-i686-mingw32/bin/../lib/gcc/nios2-elf/4.7.3\libgcc.a(_usi_to_df.o)
 .debug_frame   0x00000dd4       0x20 c:/altera/13.1/nios2eds/bin/gnu/h-i686-mingw32/bin/../lib/gcc/nios2-elf/4.7.3\libgcc.a(_clzsi2.o)
 .debug_frame   0x00000df4       0x34 c:/altera/13.1/nios2eds/bin/gnu/h-i686-mingw32/bin/../lib/gcc/nios2-elf/4.7.3\libgcc.a(_pack_df.o)
 .debug_frame   0x00000e28       0x20 c:/altera/13.1/nios2eds/bin/gnu/h-i686-mingw32/bin/../lib/gcc/nios2-elf/4.7.3\libgcc.a(_unpack_df.o)
 .debug_frame   0x00000e48       0x20 c:/altera/13.1/nios2eds/bin/gnu/h-i686-mingw32/bin/../lib/gcc/nios2-elf/4.7.3\libgcc.a(_fpcmp_parts_df.o)
 .debug_frame   0x00000e68       0x20 c:/altera/13.1/nios2eds/bin/gnu/h-i686-mingw32/bin/../lib/gcc/nios2-elf/4.7.3\libgcc.a(_lshrdi3.o)
 .debug_frame   0x00000e88       0x20 c:/altera/13.1/nios2eds/bin/gnu/h-i686-mingw32/bin/../lib/gcc/nios2-elf/4.7.3\libgcc.a(_ashldi3.o)
 .debug_frame   0x00000ea8       0x2c ../UcosiiBSP_for_cpu_s1/\libucosii_bsp.a(alt_close.o)
 .debug_frame   0x00000ed4       0x20 ../UcosiiBSP_for_cpu_s1/\libucosii_bsp.a(alt_dev.o)
 .debug_frame   0x00000ef4       0x20 ../UcosiiBSP_for_cpu_s1/\libucosii_bsp.a(alt_exit.o)
 .debug_frame   0x00000f14       0x28 ../UcosiiBSP_for_cpu_s1/\libucosii_bsp.a(alt_fstat.o)
 .debug_frame   0x00000f3c       0x20 ../UcosiiBSP_for_cpu_s1/\libucosii_bsp.a(alt_irq_register.o)
 .debug_frame   0x00000f5c       0x28 ../UcosiiBSP_for_cpu_s1/\libucosii_bsp.a(alt_isatty.o)
 .debug_frame   0x00000f84       0x28 ../UcosiiBSP_for_cpu_s1/\libucosii_bsp.a(alt_load.o)
 .debug_frame   0x00000fac       0x28 ../UcosiiBSP_for_cpu_s1/\libucosii_bsp.a(alt_lseek.o)
 .debug_frame   0x00000fd4       0x2c ../UcosiiBSP_for_cpu_s1/\libucosii_bsp.a(alt_main.o)
 .debug_frame   0x00001000       0x38 ../UcosiiBSP_for_cpu_s1/\libucosii_bsp.a(alt_read.o)
 .debug_frame   0x00001038       0x20 ../UcosiiBSP_for_cpu_s1/\libucosii_bsp.a(alt_release_fd.o)
 .debug_frame   0x00001058       0x20 ../UcosiiBSP_for_cpu_s1/\libucosii_bsp.a(alt_sbrk.o)
 .debug_frame   0x00001078       0x30 ../UcosiiBSP_for_cpu_s1/\libucosii_bsp.a(alt_usleep.o)
 .debug_frame   0x000010a8       0x38 ../UcosiiBSP_for_cpu_s1/\libucosii_bsp.a(alt_write.o)
 .debug_frame   0x000010e0       0x3c ../UcosiiBSP_for_cpu_s1/\libucosii_bsp.a(alt_env_lock.o)
 .debug_frame   0x0000111c       0x3c ../UcosiiBSP_for_cpu_s1/\libucosii_bsp.a(alt_malloc_lock.o)
 .debug_frame   0x00001158      0x280 ../UcosiiBSP_for_cpu_s1/\libucosii_bsp.a(os_core.o)
 .debug_frame   0x000013d8       0x20 ../UcosiiBSP_for_cpu_s1/\libucosii_bsp.a(os_dbg.o)
 .debug_frame   0x000013f8      0x148 ../UcosiiBSP_for_cpu_s1/\libucosii_bsp.a(os_flag.o)
 .debug_frame   0x00001540       0xa0 ../UcosiiBSP_for_cpu_s1/\libucosii_bsp.a(os_mem.o)
 .debug_frame   0x000015e0       0xbc ../UcosiiBSP_for_cpu_s1/\libucosii_bsp.a(os_mutex.o)
 .debug_frame   0x0000169c      0x124 ../UcosiiBSP_for_cpu_s1/\libucosii_bsp.a(os_q.o)
 .debug_frame   0x000017c0       0xd0 ../UcosiiBSP_for_cpu_s1/\libucosii_bsp.a(os_sem.o)
 .debug_frame   0x00001890      0x148 ../UcosiiBSP_for_cpu_s1/\libucosii_bsp.a(os_task.o)
 .debug_frame   0x000019d8       0x74 ../UcosiiBSP_for_cpu_s1/\libucosii_bsp.a(os_time.o)
 .debug_frame   0x00001a4c       0x40 ../UcosiiBSP_for_cpu_s1/\libucosii_bsp.a(alt_sys_init.o)
 .debug_frame   0x00001a8c       0x30 ../UcosiiBSP_for_cpu_s1/\libucosii_bsp.a(altera_avalon_jtag_uart_fd.o)
 .debug_frame   0x00001abc       0x20 ../UcosiiBSP_for_cpu_s1/\libucosii_bsp.a(altera_avalon_jtag_uart_read.o)
 .debug_frame   0x00001adc       0x20 ../UcosiiBSP_for_cpu_s1/\libucosii_bsp.a(altera_avalon_jtag_uart_write.o)
 .debug_frame   0x00001afc       0x38 ../UcosiiBSP_for_cpu_s1/\libucosii_bsp.a(altera_avalon_timer_sc.o)
 .debug_frame   0x00001b34       0x28 ../UcosiiBSP_for_cpu_s1/\libucosii_bsp.a(alt_busy_sleep.o)
 .debug_frame   0x00001b5c       0x20 ../UcosiiBSP_for_cpu_s1/\libucosii_bsp.a(alt_dcache_flush_all.o)
 .debug_frame   0x00001b7c       0x28 ../UcosiiBSP_for_cpu_s1/\libucosii_bsp.a(alt_dev_llist_insert.o)
 .debug_frame   0x00001ba4       0x20 ../UcosiiBSP_for_cpu_s1/\libucosii_bsp.a(alt_icache_flush_all.o)
 .debug_frame   0x00001bc4       0x4c ../UcosiiBSP_for_cpu_s1/\libucosii_bsp.a(alt_io_redirect.o)
 .debug_frame   0x00001c10       0x28 ../UcosiiBSP_for_cpu_s1/\libucosii_bsp.a(alt_irq_handler.o)
 .debug_frame   0x00001c38       0x34 ../UcosiiBSP_for_cpu_s1/\libucosii_bsp.a(alt_open.o)
 .debug_frame   0x00001c6c       0x40 ../UcosiiBSP_for_cpu_s1/\libucosii_bsp.a(alt_tick.o)
 .debug_frame   0x00001cac       0x20 ../UcosiiBSP_for_cpu_s1/\libucosii_bsp.a(altera_nios2_qsys_irq.o)
 .debug_frame   0x00001ccc       0xc4 ../UcosiiBSP_for_cpu_s1/\libucosii_bsp.a(os_cpu_c.o)
 .debug_frame   0x00001d90       0x30 ../UcosiiBSP_for_cpu_s1/\libucosii_bsp.a(alt_find_dev.o)
 .debug_frame   0x00001dc0       0x30 ../UcosiiBSP_for_cpu_s1/\libucosii_bsp.a(alt_find_file.o)
 .debug_frame   0x00001df0       0x2c ../UcosiiBSP_for_cpu_s1/\libucosii_bsp.a(alt_get_fd.o)
 .debug_frame   0x00001e1c       0x20 ../UcosiiBSP_for_cpu_s1/\libucosii_bsp.a(alt_icache_flush.o)
 .debug_frame   0x00001e3c       0x20 c:/altera/13.1/nios2eds/bin/gnu/h-i686-mingw32/bin/../lib/gcc/nios2-elf/4.7.3/../../../../../H-i686-mingw32/nios2-elf/lib\libc.a(lib_a-memcmp.o)
 .debug_frame   0x00001e5c       0x2c c:/altera/13.1/nios2eds/bin/gnu/h-i686-mingw32/bin/../lib/gcc/nios2-elf/4.7.3\libgcc.a(_fixunsdfsi.o)

.debug_str      0x00000000     0x3c08
 *(.debug_str)
 .debug_str     0x00000000      0x13b c:/altera/13.1/nios2eds/bin/gnu/h-i686-mingw32/bin/../lib/gcc/nios2-elf/4.7.3\libgcc.a(lib2-divmod.o)
                                0x15b (size before relaxing)
 .debug_str     0x0000013b      0x455 c:/altera/13.1/nios2eds/bin/gnu/h-i686-mingw32/bin/../lib/gcc/nios2-elf/4.7.3/../../../../../H-i686-mingw32/nios2-elf/lib\libc.a(lib_a-exit.o)
                                0x52f (size before relaxing)
 .debug_str     0x00000590       0xe8 c:/altera/13.1/nios2eds/bin/gnu/h-i686-mingw32/bin/../lib/gcc/nios2-elf/4.7.3/../../../../../H-i686-mingw32/nios2-elf/lib\libc.a(lib_a-fflush.o)
                                0x553 (size before relaxing)
 .debug_str     0x00000678      0x10b c:/altera/13.1/nios2eds/bin/gnu/h-i686-mingw32/bin/../lib/gcc/nios2-elf/4.7.3/../../../../../H-i686-mingw32/nios2-elf/lib\libc.a(lib_a-findfp.o)
                                0x61f (size before relaxing)
 .debug_str     0x00000783       0x83 c:/altera/13.1/nios2eds/bin/gnu/h-i686-mingw32/bin/../lib/gcc/nios2-elf/4.7.3/../../../../../H-i686-mingw32/nios2-elf/lib\libc.a(lib_a-fprintf.o)
                                0x551 (size before relaxing)
 .debug_str     0x00000806       0x98 c:/altera/13.1/nios2eds/bin/gnu/h-i686-mingw32/bin/../lib/gcc/nios2-elf/4.7.3/../../../../../H-i686-mingw32/nios2-elf/lib\libc.a(lib_a-fputs.o)
                                0x580 (size before relaxing)
 .debug_str     0x0000089e       0x8e c:/altera/13.1/nios2eds/bin/gnu/h-i686-mingw32/bin/../lib/gcc/nios2-elf/4.7.3/../../../../../H-i686-mingw32/nios2-elf/lib\libc.a(lib_a-fvwrite.o)
                                0x5b8 (size before relaxing)
 .debug_str     0x0000092c       0x5e c:/altera/13.1/nios2eds/bin/gnu/h-i686-mingw32/bin/../lib/gcc/nios2-elf/4.7.3/../../../../../H-i686-mingw32/nios2-elf/lib\libc.a(lib_a-fwalk.o)
                                0x567 (size before relaxing)
 .debug_str     0x0000098a       0xd4 c:/altera/13.1/nios2eds/bin/gnu/h-i686-mingw32/bin/../lib/gcc/nios2-elf/4.7.3/../../../../../H-i686-mingw32/nios2-elf/lib\libc.a(lib_a-impure.o)
                                0x526 (size before relaxing)
 .debug_str     0x00000a5e      0x234 c:/altera/13.1/nios2eds/bin/gnu/h-i686-mingw32/bin/../lib/gcc/nios2-elf/4.7.3/../../../../../H-i686-mingw32/nios2-elf/lib\libc.a(lib_a-mallocr.o)
                                0x735 (size before relaxing)
 .debug_str     0x00000c92       0xe6 c:/altera/13.1/nios2eds/bin/gnu/h-i686-mingw32/bin/../lib/gcc/nios2-elf/4.7.3/../../../../../H-i686-mingw32/nios2-elf/lib\libc.a(lib_a-memchr.o)
                                0x197 (size before relaxing)
 .debug_str     0x00000d78       0x62 c:/altera/13.1/nios2eds/bin/gnu/h-i686-mingw32/bin/../lib/gcc/nios2-elf/4.7.3/../../../../../H-i686-mingw32/nios2-elf/lib\libc.a(lib_a-memcpy.o)
                                0x126 (size before relaxing)
 .debug_str     0x00000dda       0x45 c:/altera/13.1/nios2eds/bin/gnu/h-i686-mingw32/bin/../lib/gcc/nios2-elf/4.7.3/../../../../../H-i686-mingw32/nios2-elf/lib\libc.a(lib_a-memmove.o)
                                0x1a9 (size before relaxing)
 .debug_str     0x00000e1f       0x48 c:/altera/13.1/nios2eds/bin/gnu/h-i686-mingw32/bin/../lib/gcc/nios2-elf/4.7.3/../../../../../H-i686-mingw32/nios2-elf/lib\libc.a(lib_a-memset.o)
                                0x18a (size before relaxing)
 .debug_str     0x00000e67       0x5b c:/altera/13.1/nios2eds/bin/gnu/h-i686-mingw32/bin/../lib/gcc/nios2-elf/4.7.3/../../../../../H-i686-mingw32/nios2-elf/lib\libc.a(lib_a-printf.o)
                                0x571 (size before relaxing)
 .debug_str     0x00000ec2       0x40 c:/altera/13.1/nios2eds/bin/gnu/h-i686-mingw32/bin/../lib/gcc/nios2-elf/4.7.3/../../../../../H-i686-mingw32/nios2-elf/lib\libc.a(lib_a-puts.o)
                                0x56e (size before relaxing)
 .debug_str     0x00000f02       0x3f c:/altera/13.1/nios2eds/bin/gnu/h-i686-mingw32/bin/../lib/gcc/nios2-elf/4.7.3/../../../../../H-i686-mingw32/nios2-elf/lib\libc.a(lib_a-rand.o)
                                0x517 (size before relaxing)
 .debug_str     0x00000f41       0x49 c:/altera/13.1/nios2eds/bin/gnu/h-i686-mingw32/bin/../lib/gcc/nios2-elf/4.7.3/../../../../../H-i686-mingw32/nios2-elf/lib\libc.a(lib_a-reallocr.o)
                                0x607 (size before relaxing)
 .debug_str     0x00000f8a       0x43 c:/altera/13.1/nios2eds/bin/gnu/h-i686-mingw32/bin/../lib/gcc/nios2-elf/4.7.3/../../../../../H-i686-mingw32/nios2-elf/lib\libc.a(lib_a-sbrkr.o)
                                0x51c (size before relaxing)
 .debug_str     0x00000fcd       0x95 c:/altera/13.1/nios2eds/bin/gnu/h-i686-mingw32/bin/../lib/gcc/nios2-elf/4.7.3/../../../../../H-i686-mingw32/nios2-elf/lib\libc.a(lib_a-stdio.o)
                                0x570 (size before relaxing)
 .debug_str     0x00001062       0x42 c:/altera/13.1/nios2eds/bin/gnu/h-i686-mingw32/bin/../lib/gcc/nios2-elf/4.7.3/../../../../../H-i686-mingw32/nios2-elf/lib\libc.a(lib_a-strcpy.o)
                                0x191 (size before relaxing)
 .debug_str     0x000010a4       0x3b c:/altera/13.1/nios2eds/bin/gnu/h-i686-mingw32/bin/../lib/gcc/nios2-elf/4.7.3/../../../../../H-i686-mingw32/nios2-elf/lib\libc.a(lib_a-strlen.o)
                                0x189 (size before relaxing)
 .debug_str     0x000010df      0x269 c:/altera/13.1/nios2eds/bin/gnu/h-i686-mingw32/bin/../lib/gcc/nios2-elf/4.7.3/../../../../../H-i686-mingw32/nios2-elf/lib\libc.a(lib_a-vfprintf.o)
                                0x888 (size before relaxing)
 .debug_str     0x00001348       0x3a c:/altera/13.1/nios2eds/bin/gnu/h-i686-mingw32/bin/../lib/gcc/nios2-elf/4.7.3/../../../../../H-i686-mingw32/nios2-elf/lib\libc.a(lib_a-writer.o)
                                0x520 (size before relaxing)
 .debug_str     0x00001382       0x47 c:/altera/13.1/nios2eds/bin/gnu/h-i686-mingw32/bin/../lib/gcc/nios2-elf/4.7.3/../../../../../H-i686-mingw32/nios2-elf/lib\libc.a(lib_a-wsetup.o)
                                0x535 (size before relaxing)
 .debug_str     0x000013c9       0x5c c:/altera/13.1/nios2eds/bin/gnu/h-i686-mingw32/bin/../lib/gcc/nios2-elf/4.7.3/../../../../../H-i686-mingw32/nios2-elf/lib\libc.a(lib_a-__call_atexit.o)
                                0x551 (size before relaxing)
 .debug_str     0x00001425       0x3a c:/altera/13.1/nios2eds/bin/gnu/h-i686-mingw32/bin/../lib/gcc/nios2-elf/4.7.3/../../../../../H-i686-mingw32/nios2-elf/lib\libc.a(lib_a-closer.o)
                                0x510 (size before relaxing)
 .debug_str     0x0000145f      0x157 c:/altera/13.1/nios2eds/bin/gnu/h-i686-mingw32/bin/../lib/gcc/nios2-elf/4.7.3/../../../../../H-i686-mingw32/nios2-elf/lib\libc.a(lib_a-dtoa.o)
                                0x678 (size before relaxing)
 .debug_str     0x000015b6       0x4b c:/altera/13.1/nios2eds/bin/gnu/h-i686-mingw32/bin/../lib/gcc/nios2-elf/4.7.3/../../../../../H-i686-mingw32/nios2-elf/lib\libc.a(lib_a-fclose.o)
                                0x562 (size before relaxing)
 .debug_str     0x00001601       0x34 c:/altera/13.1/nios2eds/bin/gnu/h-i686-mingw32/bin/../lib/gcc/nios2-elf/4.7.3/../../../../../H-i686-mingw32/nios2-elf/lib\libc.a(lib_a-freer.o)
                                0x67f (size before relaxing)
 .debug_str     0x00001635       0x3d c:/altera/13.1/nios2eds/bin/gnu/h-i686-mingw32/bin/../lib/gcc/nios2-elf/4.7.3/../../../../../H-i686-mingw32/nios2-elf/lib\libc.a(lib_a-int_errno.o)
                                0x16f (size before relaxing)
 .debug_str     0x00001672      0x14c c:/altera/13.1/nios2eds/bin/gnu/h-i686-mingw32/bin/../lib/gcc/nios2-elf/4.7.3/../../../../../H-i686-mingw32/nios2-elf/lib\libc.a(lib_a-locale.o)
                                0x6bc (size before relaxing)
 .debug_str     0x000017be       0x40 c:/altera/13.1/nios2eds/bin/gnu/h-i686-mingw32/bin/../lib/gcc/nios2-elf/4.7.3/../../../../../H-i686-mingw32/nios2-elf/lib\libc.a(lib_a-lseekr.o)
                                0x524 (size before relaxing)
 .debug_str     0x000017fe      0x122 c:/altera/13.1/nios2eds/bin/gnu/h-i686-mingw32/bin/../lib/gcc/nios2-elf/4.7.3/../../../../../H-i686-mingw32/nios2-elf/lib\libc.a(lib_a-makebuf.o)
                                0x62f (size before relaxing)
 .debug_str     0x00001920       0xa5 c:/altera/13.1/nios2eds/bin/gnu/h-i686-mingw32/bin/../lib/gcc/nios2-elf/4.7.3/../../../../../H-i686-mingw32/nios2-elf/lib\libc.a(lib_a-mprec.o)
                                0x632 (size before relaxing)
 .debug_str     0x000019c5       0x39 c:/altera/13.1/nios2eds/bin/gnu/h-i686-mingw32/bin/../lib/gcc/nios2-elf/4.7.3/../../../../../H-i686-mingw32/nios2-elf/lib\libc.a(lib_a-readr.o)
                                0x51d (size before relaxing)
 .debug_str     0x000019fe       0xd6 c:/altera/13.1/nios2eds/bin/gnu/h-i686-mingw32/bin/../lib/gcc/nios2-elf/4.7.3/../../../../../H-i686-mingw32/nios2-elf/lib\libc.a(lib_a-s_isinfd.o)
                                0x1a1 (size before relaxing)
 .debug_str     0x00001ad4       0x3d c:/altera/13.1/nios2eds/bin/gnu/h-i686-mingw32/bin/../lib/gcc/nios2-elf/4.7.3/../../../../../H-i686-mingw32/nios2-elf/lib\libc.a(lib_a-s_isnand.o)
                                0x1a1 (size before relaxing)
 .debug_str     0x00001b11       0x3b c:/altera/13.1/nios2eds/bin/gnu/h-i686-mingw32/bin/../lib/gcc/nios2-elf/4.7.3/../../../../../H-i686-mingw32/nios2-elf/lib\libc.a(lib_a-strcmp.o)
                                0x16f (size before relaxing)
 .debug_str     0x00001b4c        0xf c:/altera/13.1/nios2eds/bin/gnu/h-i686-mingw32/bin/../lib/gcc/nios2-elf/4.7.3/../../../../../H-i686-mingw32/nios2-elf/lib\libc.a(lib_a-callocr.o)
                                0x55f (size before relaxing)
 .debug_str     0x00001b5b       0x46 c:/altera/13.1/nios2eds/bin/gnu/h-i686-mingw32/bin/../lib/gcc/nios2-elf/4.7.3/../../../../../H-i686-mingw32/nios2-elf/lib\libc.a(lib_a-fstatr.o)
                                0x603 (size before relaxing)
 .debug_str     0x00001ba1       0x42 c:/altera/13.1/nios2eds/bin/gnu/h-i686-mingw32/bin/../lib/gcc/nios2-elf/4.7.3/../../../../../H-i686-mingw32/nios2-elf/lib\libc.a(lib_a-isattyr.o)
                                0x513 (size before relaxing)
 .debug_str     0x00001be3       0x8a c:/altera/13.1/nios2eds/bin/gnu/h-i686-mingw32/bin/../lib/gcc/nios2-elf/4.7.3\libgcc.a(_muldi3.o)
                                0x1a2 (size before relaxing)
 .debug_str     0x00001c6d       0x54 c:/altera/13.1/nios2eds/bin/gnu/h-i686-mingw32/bin/../lib/gcc/nios2-elf/4.7.3\libgcc.a(_udivdi3.o)
                                0x1f6 (size before relaxing)
 .debug_str     0x00001cc1        0xa c:/altera/13.1/nios2eds/bin/gnu/h-i686-mingw32/bin/../lib/gcc/nios2-elf/4.7.3\libgcc.a(_umoddi3.o)
                                0x1f6 (size before relaxing)
 .debug_str     0x00001ccb      0x16f c:/altera/13.1/nios2eds/bin/gnu/h-i686-mingw32/bin/../lib/gcc/nios2-elf/4.7.3\libgcc.a(_addsub_df.o)
                                0x2a9 (size before relaxing)
 .debug_str     0x00001e3a       0x40 c:/altera/13.1/nios2eds/bin/gnu/h-i686-mingw32/bin/../lib/gcc/nios2-elf/4.7.3\libgcc.a(_mul_df.o)
                                0x27b (size before relaxing)
 .debug_str     0x00001e7a       0x35 c:/altera/13.1/nios2eds/bin/gnu/h-i686-mingw32/bin/../lib/gcc/nios2-elf/4.7.3\libgcc.a(_div_df.o)
                                0x26b (size before relaxing)
 .debug_str     0x00001eaf       0x20 c:/altera/13.1/nios2eds/bin/gnu/h-i686-mingw32/bin/../lib/gcc/nios2-elf/4.7.3\libgcc.a(_eq_df.o)
                                0x238 (size before relaxing)
 .debug_str     0x00001ecf        0x8 c:/altera/13.1/nios2eds/bin/gnu/h-i686-mingw32/bin/../lib/gcc/nios2-elf/4.7.3\libgcc.a(_ne_df.o)
                                0x238 (size before relaxing)
 .debug_str     0x00001ed7        0x8 c:/altera/13.1/nios2eds/bin/gnu/h-i686-mingw32/bin/../lib/gcc/nios2-elf/4.7.3\libgcc.a(_gt_df.o)
                                0x238 (size before relaxing)
 .debug_str     0x00001edf        0x8 c:/altera/13.1/nios2eds/bin/gnu/h-i686-mingw32/bin/../lib/gcc/nios2-elf/4.7.3\libgcc.a(_ge_df.o)
                                0x238 (size before relaxing)
 .debug_str     0x00001ee7        0x8 c:/altera/13.1/nios2eds/bin/gnu/h-i686-mingw32/bin/../lib/gcc/nios2-elf/4.7.3\libgcc.a(_lt_df.o)
                                0x238 (size before relaxing)
 .debug_str     0x00001eef       0x21 c:/altera/13.1/nios2eds/bin/gnu/h-i686-mingw32/bin/../lib/gcc/nios2-elf/4.7.3\libgcc.a(_si_to_df.o)
                                0x20e (size before relaxing)
 .debug_str     0x00001f10        0xa c:/altera/13.1/nios2eds/bin/gnu/h-i686-mingw32/bin/../lib/gcc/nios2-elf/4.7.3\libgcc.a(_df_to_si.o)
                                0x230 (size before relaxing)
 .debug_str     0x00000000      0x1c1 c:/altera/13.1/nios2eds/bin/gnu/h-i686-mingw32/bin/../lib/gcc/nios2-elf/4.7.3\libgcc.a(_thenan_df.o)
 .debug_str     0x00001f1a       0x14 c:/altera/13.1/nios2eds/bin/gnu/h-i686-mingw32/bin/../lib/gcc/nios2-elf/4.7.3\libgcc.a(_usi_to_df.o)
                                0x20a (size before relaxing)
 .debug_str     0x00000000      0x160 c:/altera/13.1/nios2eds/bin/gnu/h-i686-mingw32/bin/../lib/gcc/nios2-elf/4.7.3\libgcc.a(_clz.o)
 .debug_str     0x00000000      0x17d c:/altera/13.1/nios2eds/bin/gnu/h-i686-mingw32/bin/../lib/gcc/nios2-elf/4.7.3\libgcc.a(_clzsi2.o)
 .debug_str     0x00001f2e        0x7 c:/altera/13.1/nios2eds/bin/gnu/h-i686-mingw32/bin/../lib/gcc/nios2-elf/4.7.3\libgcc.a(_pack_df.o)
                                0x224 (size before relaxing)
 .debug_str     0x00000000      0x206 c:/altera/13.1/nios2eds/bin/gnu/h-i686-mingw32/bin/../lib/gcc/nios2-elf/4.7.3\libgcc.a(_unpack_df.o)
 .debug_str     0x00000000      0x1e4 c:/altera/13.1/nios2eds/bin/gnu/h-i686-mingw32/bin/../lib/gcc/nios2-elf/4.7.3\libgcc.a(_fpcmp_parts_df.o)
 .debug_str     0x00001f35       0x23 c:/altera/13.1/nios2eds/bin/gnu/h-i686-mingw32/bin/../lib/gcc/nios2-elf/4.7.3\libgcc.a(_lshrdi3.o)
                                0x194 (size before relaxing)
 .debug_str     0x00001f58        0xa c:/altera/13.1/nios2eds/bin/gnu/h-i686-mingw32/bin/../lib/gcc/nios2-elf/4.7.3\libgcc.a(_ashldi3.o)
                                0x194 (size before relaxing)
 .debug_str     0x00001f62      0x166 ../UcosiiBSP_for_cpu_s1/\libucosii_bsp.a(alt_close.o)
                                0x249 (size before relaxing)
 .debug_str     0x000020c8       0xc4 ../UcosiiBSP_for_cpu_s1/\libucosii_bsp.a(alt_dev.o)
                                0x3a8 (size before relaxing)
 .debug_str     0x0000218c       0x14 ../UcosiiBSP_for_cpu_s1/\libucosii_bsp.a(alt_errno.o)
                                0x123 (size before relaxing)
 .debug_str     0x000021a0       0x3c ../UcosiiBSP_for_cpu_s1/\libucosii_bsp.a(alt_exit.o)
                                0x192 (size before relaxing)
 .debug_str     0x000021dc       0x14 ../UcosiiBSP_for_cpu_s1/\libucosii_bsp.a(alt_fstat.o)
                                0x31b (size before relaxing)
 .debug_str     0x000021f0       0xae ../UcosiiBSP_for_cpu_s1/\libucosii_bsp.a(alt_irq_register.o)
                                0x20e (size before relaxing)
 .debug_str     0x0000229e       0x17 ../UcosiiBSP_for_cpu_s1/\libucosii_bsp.a(alt_irq_vars.o)
                                0x124 (size before relaxing)
 .debug_str     0x000022b5       0x15 ../UcosiiBSP_for_cpu_s1/\libucosii_bsp.a(alt_isatty.o)
                                0x323 (size before relaxing)
 .debug_str     0x000022ca      0x113 ../UcosiiBSP_for_cpu_s1/\libucosii_bsp.a(alt_load.o)
                                0x21a (size before relaxing)
 .debug_str     0x000023dd       0x14 ../UcosiiBSP_for_cpu_s1/\libucosii_bsp.a(alt_lseek.o)
                                0x240 (size before relaxing)
 .debug_str     0x000023f1       0x9a ../UcosiiBSP_for_cpu_s1/\libucosii_bsp.a(alt_main.o)
                                0x2ac (size before relaxing)
 .debug_str     0x0000248b       0x13 ../UcosiiBSP_for_cpu_s1/\libucosii_bsp.a(alt_read.o)
                                0x326 (size before relaxing)
 .debug_str     0x0000249e       0x19 ../UcosiiBSP_for_cpu_s1/\libucosii_bsp.a(alt_release_fd.o)
                                0x224 (size before relaxing)
 .debug_str     0x000024b7       0x61 ../UcosiiBSP_for_cpu_s1/\libucosii_bsp.a(alt_sbrk.o)
                                0x1db (size before relaxing)
 .debug_str     0x00002518       0x55 ../UcosiiBSP_for_cpu_s1/\libucosii_bsp.a(alt_usleep.o)
                                0x1ce (size before relaxing)
 .debug_str     0x0000256d       0x14 ../UcosiiBSP_for_cpu_s1/\libucosii_bsp.a(alt_write.o)
                                0x327 (size before relaxing)
 .debug_str     0x00002581      0x278 ../UcosiiBSP_for_cpu_s1/\libucosii_bsp.a(alt_env_lock.o)
                                0x7d1 (size before relaxing)
 .debug_str     0x000027f9       0x24 ../UcosiiBSP_for_cpu_s1/\libucosii_bsp.a(alt_malloc_lock.o)
                                0x833 (size before relaxing)
 .debug_str     0x0000281d      0x628 ../UcosiiBSP_for_cpu_s1/\libucosii_bsp.a(os_core.o)
                                0xa50 (size before relaxing)
 .debug_str     0x00002e45      0x2d9 ../UcosiiBSP_for_cpu_s1/\libucosii_bsp.a(os_dbg.o)
                                0x8c4 (size before relaxing)
 .debug_str     0x0000311e      0x12a ../UcosiiBSP_for_cpu_s1/\libucosii_bsp.a(os_flag.o)
                                0x619 (size before relaxing)
 .debug_str     0x00003248       0xc4 ../UcosiiBSP_for_cpu_s1/\libucosii_bsp.a(os_mem.o)
                                0x319 (size before relaxing)
 .debug_str     0x0000330c       0xd0 ../UcosiiBSP_for_cpu_s1/\libucosii_bsp.a(os_mutex.o)
                                0x5a3 (size before relaxing)
 .debug_str     0x000033dc       0xa9 ../UcosiiBSP_for_cpu_s1/\libucosii_bsp.a(os_q.o)
                                0x5d0 (size before relaxing)
 .debug_str     0x00003485       0x4c ../UcosiiBSP_for_cpu_s1/\libucosii_bsp.a(os_sem.o)
                                0x54f (size before relaxing)
 .debug_str     0x000034d1       0xef ../UcosiiBSP_for_cpu_s1/\libucosii_bsp.a(os_task.o)
                                0x692 (size before relaxing)
 .debug_str     0x000035c0       0x5d ../UcosiiBSP_for_cpu_s1/\libucosii_bsp.a(os_time.o)
                                0x4a9 (size before relaxing)
 .debug_str     0x0000361d      0x151 ../UcosiiBSP_for_cpu_s1/\libucosii_bsp.a(alt_sys_init.o)
                                0x378 (size before relaxing)
 .debug_str     0x0000376e       0xa5 ../UcosiiBSP_for_cpu_s1/\libucosii_bsp.a(altera_avalon_jtag_uart_fd.o)
                                0x337 (size before relaxing)
 .debug_str     0x00003813       0x2b ../UcosiiBSP_for_cpu_s1/\libucosii_bsp.a(altera_avalon_jtag_uart_read.o)
                                0x23d (size before relaxing)
 .debug_str     0x0000383e       0x2c ../UcosiiBSP_for_cpu_s1/\libucosii_bsp.a(altera_avalon_jtag_uart_write.o)
                                0x233 (size before relaxing)
 .debug_str     0x0000386a       0x68 ../UcosiiBSP_for_cpu_s1/\libucosii_bsp.a(altera_avalon_timer_sc.o)
                                0x271 (size before relaxing)
 .debug_str     0x000038d2       0x33 ../UcosiiBSP_for_cpu_s1/\libucosii_bsp.a(alt_busy_sleep.o)
                                0x149 (size before relaxing)
 .debug_str     0x00003905       0x1f ../UcosiiBSP_for_cpu_s1/\libucosii_bsp.a(alt_dcache_flush_all.o)
                                0x133 (size before relaxing)
 .debug_str     0x00003924       0x36 ../UcosiiBSP_for_cpu_s1/\libucosii_bsp.a(alt_dev_llist_insert.o)
                                0x1aa (size before relaxing)
 .debug_str     0x0000395a       0x30 ../UcosiiBSP_for_cpu_s1/\libucosii_bsp.a(alt_icache_flush_all.o)
                                0x14c (size before relaxing)
 .debug_str     0x0000398a       0x46 ../UcosiiBSP_for_cpu_s1/\libucosii_bsp.a(alt_io_redirect.o)
                                0x354 (size before relaxing)
 .debug_str     0x000039d0       0x3a ../UcosiiBSP_for_cpu_s1/\libucosii_bsp.a(alt_irq_handler.o)
                                0x1d3 (size before relaxing)
 .debug_str     0x00003a0a       0x4f ../UcosiiBSP_for_cpu_s1/\libucosii_bsp.a(alt_open.o)
                                0x2a7 (size before relaxing)
 .debug_str     0x00003a59       0x6f ../UcosiiBSP_for_cpu_s1/\libucosii_bsp.a(alt_tick.o)
                                0x269 (size before relaxing)
 .debug_str     0x00003ac8       0x20 ../UcosiiBSP_for_cpu_s1/\libucosii_bsp.a(altera_nios2_qsys_irq.o)
                                0x163 (size before relaxing)
 .debug_str     0x00003ae8       0x55 ../UcosiiBSP_for_cpu_s1/\libucosii_bsp.a(os_cpu_c.o)
                                0x822 (size before relaxing)
 .debug_str     0x00003b3d       0x1e ../UcosiiBSP_for_cpu_s1/\libucosii_bsp.a(alt_find_dev.o)
                                0x230 (size before relaxing)
 .debug_str     0x00003b5b       0x18 ../UcosiiBSP_for_cpu_s1/\libucosii_bsp.a(alt_find_file.o)
                                0x23e (size before relaxing)
 .debug_str     0x00003b73       0x32 ../UcosiiBSP_for_cpu_s1/\libucosii_bsp.a(alt_get_fd.o)
                                0x2db (size before relaxing)
 .debug_str     0x00003ba5       0x1b ../UcosiiBSP_for_cpu_s1/\libucosii_bsp.a(alt_icache_flush.o)
                                0x139 (size before relaxing)
 .debug_str     0x00003bc0       0x3b c:/altera/13.1/nios2eds/bin/gnu/h-i686-mingw32/bin/../lib/gcc/nios2-elf/4.7.3/../../../../../H-i686-mingw32/nios2-elf/lib\libc.a(lib_a-memcmp.o)
                                0x176 (size before relaxing)
 .debug_str     0x00003bfb        0xd c:/altera/13.1/nios2eds/bin/gnu/h-i686-mingw32/bin/../lib/gcc/nios2-elf/4.7.3\libgcc.a(_fixunsdfsi.o)
                                0x168 (size before relaxing)

.debug_loc      0x00000000    0x16b28
 *(.debug_loc)
 .debug_loc     0x00000000      0x338 c:/altera/13.1/nios2eds/bin/gnu/h-i686-mingw32/bin/../lib/gcc/nios2-elf/4.7.3\libgcc.a(lib2-divmod.o)
 .debug_loc     0x00000338       0x3e c:/altera/13.1/nios2eds/bin/gnu/h-i686-mingw32/bin/../lib/gcc/nios2-elf/4.7.3/../../../../../H-i686-mingw32/nios2-elf/lib\libc.a(lib_a-exit.o)
 .debug_loc     0x00000376      0x259 c:/altera/13.1/nios2eds/bin/gnu/h-i686-mingw32/bin/../lib/gcc/nios2-elf/4.7.3/../../../../../H-i686-mingw32/nios2-elf/lib\libc.a(lib_a-fflush.o)
 .debug_loc     0x000005cf      0x29c c:/altera/13.1/nios2eds/bin/gnu/h-i686-mingw32/bin/../lib/gcc/nios2-elf/4.7.3/../../../../../H-i686-mingw32/nios2-elf/lib\libc.a(lib_a-findfp.o)
 .debug_loc     0x0000086b      0x155 c:/altera/13.1/nios2eds/bin/gnu/h-i686-mingw32/bin/../lib/gcc/nios2-elf/4.7.3/../../../../../H-i686-mingw32/nios2-elf/lib\libc.a(lib_a-fprintf.o)
 .debug_loc     0x000009c0       0xf1 c:/altera/13.1/nios2eds/bin/gnu/h-i686-mingw32/bin/../lib/gcc/nios2-elf/4.7.3/../../../../../H-i686-mingw32/nios2-elf/lib\libc.a(lib_a-fputs.o)
 .debug_loc     0x00000ab1      0x50c c:/altera/13.1/nios2eds/bin/gnu/h-i686-mingw32/bin/../lib/gcc/nios2-elf/4.7.3/../../../../../H-i686-mingw32/nios2-elf/lib\libc.a(lib_a-fvwrite.o)
 .debug_loc     0x00000fbd      0x2ae c:/altera/13.1/nios2eds/bin/gnu/h-i686-mingw32/bin/../lib/gcc/nios2-elf/4.7.3/../../../../../H-i686-mingw32/nios2-elf/lib\libc.a(lib_a-fwalk.o)
 .debug_loc     0x0000126b      0xb50 c:/altera/13.1/nios2eds/bin/gnu/h-i686-mingw32/bin/../lib/gcc/nios2-elf/4.7.3/../../../../../H-i686-mingw32/nios2-elf/lib\libc.a(lib_a-mallocr.o)
 .debug_loc     0x00001dbb      0x239 c:/altera/13.1/nios2eds/bin/gnu/h-i686-mingw32/bin/../lib/gcc/nios2-elf/4.7.3/../../../../../H-i686-mingw32/nios2-elf/lib\libc.a(lib_a-memchr.o)
 .debug_loc     0x00001ff4      0x1f2 c:/altera/13.1/nios2eds/bin/gnu/h-i686-mingw32/bin/../lib/gcc/nios2-elf/4.7.3/../../../../../H-i686-mingw32/nios2-elf/lib\libc.a(lib_a-memcpy.o)
 .debug_loc     0x000021e6      0x240 c:/altera/13.1/nios2eds/bin/gnu/h-i686-mingw32/bin/../lib/gcc/nios2-elf/4.7.3/../../../../../H-i686-mingw32/nios2-elf/lib\libc.a(lib_a-memmove.o)
 .debug_loc     0x00002426      0x1b7 c:/altera/13.1/nios2eds/bin/gnu/h-i686-mingw32/bin/../lib/gcc/nios2-elf/4.7.3/../../../../../H-i686-mingw32/nios2-elf/lib\libc.a(lib_a-memset.o)
 .debug_loc     0x000025dd      0x132 c:/altera/13.1/nios2eds/bin/gnu/h-i686-mingw32/bin/../lib/gcc/nios2-elf/4.7.3/../../../../../H-i686-mingw32/nios2-elf/lib\libc.a(lib_a-printf.o)
 .debug_loc     0x0000270f       0xd9 c:/altera/13.1/nios2eds/bin/gnu/h-i686-mingw32/bin/../lib/gcc/nios2-elf/4.7.3/../../../../../H-i686-mingw32/nios2-elf/lib\libc.a(lib_a-puts.o)
 .debug_loc     0x000027e8       0x20 c:/altera/13.1/nios2eds/bin/gnu/h-i686-mingw32/bin/../lib/gcc/nios2-elf/4.7.3/../../../../../H-i686-mingw32/nios2-elf/lib\libc.a(lib_a-rand.o)
 .debug_loc     0x00002808     0x1136 c:/altera/13.1/nios2eds/bin/gnu/h-i686-mingw32/bin/../lib/gcc/nios2-elf/4.7.3/../../../../../H-i686-mingw32/nios2-elf/lib\libc.a(lib_a-reallocr.o)
 .debug_loc     0x0000393e       0x86 c:/altera/13.1/nios2eds/bin/gnu/h-i686-mingw32/bin/../lib/gcc/nios2-elf/4.7.3/../../../../../H-i686-mingw32/nios2-elf/lib\libc.a(lib_a-sbrkr.o)
 .debug_loc     0x000039c4      0x379 c:/altera/13.1/nios2eds/bin/gnu/h-i686-mingw32/bin/../lib/gcc/nios2-elf/4.7.3/../../../../../H-i686-mingw32/nios2-elf/lib\libc.a(lib_a-stdio.o)
 .debug_loc     0x00003d3d      0x191 c:/altera/13.1/nios2eds/bin/gnu/h-i686-mingw32/bin/../lib/gcc/nios2-elf/4.7.3/../../../../../H-i686-mingw32/nios2-elf/lib\libc.a(lib_a-strcpy.o)
 .debug_loc     0x00003ece       0x52 c:/altera/13.1/nios2eds/bin/gnu/h-i686-mingw32/bin/../lib/gcc/nios2-elf/4.7.3/../../../../../H-i686-mingw32/nios2-elf/lib\libc.a(lib_a-strlen.o)
 .debug_loc     0x00003f20     0x2b6b c:/altera/13.1/nios2eds/bin/gnu/h-i686-mingw32/bin/../lib/gcc/nios2-elf/4.7.3/../../../../../H-i686-mingw32/nios2-elf/lib\libc.a(lib_a-vfprintf.o)
 .debug_loc     0x00006a8b       0xde c:/altera/13.1/nios2eds/bin/gnu/h-i686-mingw32/bin/../lib/gcc/nios2-elf/4.7.3/../../../../../H-i686-mingw32/nios2-elf/lib\libc.a(lib_a-writer.o)
 .debug_loc     0x00006b69       0xba c:/altera/13.1/nios2eds/bin/gnu/h-i686-mingw32/bin/../lib/gcc/nios2-elf/4.7.3/../../../../../H-i686-mingw32/nios2-elf/lib\libc.a(lib_a-wsetup.o)
 .debug_loc     0x00006c23      0x1e1 c:/altera/13.1/nios2eds/bin/gnu/h-i686-mingw32/bin/../lib/gcc/nios2-elf/4.7.3/../../../../../H-i686-mingw32/nios2-elf/lib\libc.a(lib_a-__call_atexit.o)
 .debug_loc     0x00006e04       0x86 c:/altera/13.1/nios2eds/bin/gnu/h-i686-mingw32/bin/../lib/gcc/nios2-elf/4.7.3/../../../../../H-i686-mingw32/nios2-elf/lib\libc.a(lib_a-closer.o)
 .debug_loc     0x00006e8a     0x2286 c:/altera/13.1/nios2eds/bin/gnu/h-i686-mingw32/bin/../lib/gcc/nios2-elf/4.7.3/../../../../../H-i686-mingw32/nios2-elf/lib\libc.a(lib_a-dtoa.o)
 .debug_loc     0x00009110      0x136 c:/altera/13.1/nios2eds/bin/gnu/h-i686-mingw32/bin/../lib/gcc/nios2-elf/4.7.3/../../../../../H-i686-mingw32/nios2-elf/lib\libc.a(lib_a-fclose.o)
 .debug_loc     0x00009246      0x668 c:/altera/13.1/nios2eds/bin/gnu/h-i686-mingw32/bin/../lib/gcc/nios2-elf/4.7.3/../../../../../H-i686-mingw32/nios2-elf/lib\libc.a(lib_a-freer.o)
 .debug_loc     0x000098ae      0x13e c:/altera/13.1/nios2eds/bin/gnu/h-i686-mingw32/bin/../lib/gcc/nios2-elf/4.7.3/../../../../../H-i686-mingw32/nios2-elf/lib\libc.a(lib_a-locale.o)
 .debug_loc     0x000099ec       0xde c:/altera/13.1/nios2eds/bin/gnu/h-i686-mingw32/bin/../lib/gcc/nios2-elf/4.7.3/../../../../../H-i686-mingw32/nios2-elf/lib\libc.a(lib_a-lseekr.o)
 .debug_loc     0x00009aca      0x16a c:/altera/13.1/nios2eds/bin/gnu/h-i686-mingw32/bin/../lib/gcc/nios2-elf/4.7.3/../../../../../H-i686-mingw32/nios2-elf/lib\libc.a(lib_a-makebuf.o)
 .debug_loc     0x00009c34     0x1b23 c:/altera/13.1/nios2eds/bin/gnu/h-i686-mingw32/bin/../lib/gcc/nios2-elf/4.7.3/../../../../../H-i686-mingw32/nios2-elf/lib\libc.a(lib_a-mprec.o)
 .debug_loc     0x0000b757       0xde c:/altera/13.1/nios2eds/bin/gnu/h-i686-mingw32/bin/../lib/gcc/nios2-elf/4.7.3/../../../../../H-i686-mingw32/nios2-elf/lib\libc.a(lib_a-readr.o)
 .debug_loc     0x0000b835       0x88 c:/altera/13.1/nios2eds/bin/gnu/h-i686-mingw32/bin/../lib/gcc/nios2-elf/4.7.3/../../../../../H-i686-mingw32/nios2-elf/lib\libc.a(lib_a-s_isinfd.o)
 .debug_loc     0x0000b8bd       0xa5 c:/altera/13.1/nios2eds/bin/gnu/h-i686-mingw32/bin/../lib/gcc/nios2-elf/4.7.3/../../../../../H-i686-mingw32/nios2-elf/lib\libc.a(lib_a-s_isnand.o)
 .debug_loc     0x0000b962       0xb0 c:/altera/13.1/nios2eds/bin/gnu/h-i686-mingw32/bin/../lib/gcc/nios2-elf/4.7.3/../../../../../H-i686-mingw32/nios2-elf/lib\libc.a(lib_a-strcmp.o)
 .debug_loc     0x0000ba12      0x283 c:/altera/13.1/nios2eds/bin/gnu/h-i686-mingw32/bin/../lib/gcc/nios2-elf/4.7.3/../../../../../H-i686-mingw32/nios2-elf/lib\libc.a(lib_a-callocr.o)
 .debug_loc     0x0000bc95       0xb2 c:/altera/13.1/nios2eds/bin/gnu/h-i686-mingw32/bin/../lib/gcc/nios2-elf/4.7.3/../../../../../H-i686-mingw32/nios2-elf/lib\libc.a(lib_a-fstatr.o)
 .debug_loc     0x0000bd47       0x86 c:/altera/13.1/nios2eds/bin/gnu/h-i686-mingw32/bin/../lib/gcc/nios2-elf/4.7.3/../../../../../H-i686-mingw32/nios2-elf/lib\libc.a(lib_a-isattyr.o)
 .debug_loc     0x0000bdcd      0x15d c:/altera/13.1/nios2eds/bin/gnu/h-i686-mingw32/bin/../lib/gcc/nios2-elf/4.7.3\libgcc.a(_muldi3.o)
 .debug_loc     0x0000bf2a     0x10da c:/altera/13.1/nios2eds/bin/gnu/h-i686-mingw32/bin/../lib/gcc/nios2-elf/4.7.3\libgcc.a(_udivdi3.o)
 .debug_loc     0x0000d004     0x104d c:/altera/13.1/nios2eds/bin/gnu/h-i686-mingw32/bin/../lib/gcc/nios2-elf/4.7.3\libgcc.a(_umoddi3.o)
 .debug_loc     0x0000e051      0x7a1 c:/altera/13.1/nios2eds/bin/gnu/h-i686-mingw32/bin/../lib/gcc/nios2-elf/4.7.3\libgcc.a(_addsub_df.o)
 .debug_loc     0x0000e7f2      0x3ba c:/altera/13.1/nios2eds/bin/gnu/h-i686-mingw32/bin/../lib/gcc/nios2-elf/4.7.3\libgcc.a(_mul_df.o)
 .debug_loc     0x0000ebac      0x25e c:/altera/13.1/nios2eds/bin/gnu/h-i686-mingw32/bin/../lib/gcc/nios2-elf/4.7.3\libgcc.a(_div_df.o)
 .debug_loc     0x0000ee0a       0x70 c:/altera/13.1/nios2eds/bin/gnu/h-i686-mingw32/bin/../lib/gcc/nios2-elf/4.7.3\libgcc.a(_eq_df.o)
 .debug_loc     0x0000ee7a       0x70 c:/altera/13.1/nios2eds/bin/gnu/h-i686-mingw32/bin/../lib/gcc/nios2-elf/4.7.3\libgcc.a(_ne_df.o)
 .debug_loc     0x0000eeea       0x70 c:/altera/13.1/nios2eds/bin/gnu/h-i686-mingw32/bin/../lib/gcc/nios2-elf/4.7.3\libgcc.a(_gt_df.o)
 .debug_loc     0x0000ef5a       0x70 c:/altera/13.1/nios2eds/bin/gnu/h-i686-mingw32/bin/../lib/gcc/nios2-elf/4.7.3\libgcc.a(_ge_df.o)
 .debug_loc     0x0000efca       0x70 c:/altera/13.1/nios2eds/bin/gnu/h-i686-mingw32/bin/../lib/gcc/nios2-elf/4.7.3\libgcc.a(_lt_df.o)
 .debug_loc     0x0000f03a       0xd3 c:/altera/13.1/nios2eds/bin/gnu/h-i686-mingw32/bin/../lib/gcc/nios2-elf/4.7.3\libgcc.a(_si_to_df.o)
 .debug_loc     0x0000f10d       0xce c:/altera/13.1/nios2eds/bin/gnu/h-i686-mingw32/bin/../lib/gcc/nios2-elf/4.7.3\libgcc.a(_df_to_si.o)
 .debug_loc     0x0000f1db      0x168 c:/altera/13.1/nios2eds/bin/gnu/h-i686-mingw32/bin/../lib/gcc/nios2-elf/4.7.3\libgcc.a(_usi_to_df.o)
 .debug_loc     0x0000f343      0x19a c:/altera/13.1/nios2eds/bin/gnu/h-i686-mingw32/bin/../lib/gcc/nios2-elf/4.7.3\libgcc.a(_clzsi2.o)
 .debug_loc     0x0000f4dd      0x2ae c:/altera/13.1/nios2eds/bin/gnu/h-i686-mingw32/bin/../lib/gcc/nios2-elf/4.7.3\libgcc.a(_pack_df.o)
 .debug_loc     0x0000f78b      0x179 c:/altera/13.1/nios2eds/bin/gnu/h-i686-mingw32/bin/../lib/gcc/nios2-elf/4.7.3\libgcc.a(_unpack_df.o)
 .debug_loc     0x0000f904       0x7c c:/altera/13.1/nios2eds/bin/gnu/h-i686-mingw32/bin/../lib/gcc/nios2-elf/4.7.3\libgcc.a(_fpcmp_parts_df.o)
 .debug_loc     0x0000f980       0xc4 c:/altera/13.1/nios2eds/bin/gnu/h-i686-mingw32/bin/../lib/gcc/nios2-elf/4.7.3\libgcc.a(_lshrdi3.o)
 .debug_loc     0x0000fa44       0xc4 c:/altera/13.1/nios2eds/bin/gnu/h-i686-mingw32/bin/../lib/gcc/nios2-elf/4.7.3\libgcc.a(_ashldi3.o)
 .debug_loc     0x0000fb08       0xed ../UcosiiBSP_for_cpu_s1/\libucosii_bsp.a(alt_close.o)
 .debug_loc     0x0000fbf5      0x100 ../UcosiiBSP_for_cpu_s1/\libucosii_bsp.a(alt_fstat.o)
 .debug_loc     0x0000fcf5      0x134 ../UcosiiBSP_for_cpu_s1/\libucosii_bsp.a(alt_irq_register.o)
 .debug_loc     0x0000fe29       0xdc ../UcosiiBSP_for_cpu_s1/\libucosii_bsp.a(alt_isatty.o)
 .debug_loc     0x0000ff05       0x20 ../UcosiiBSP_for_cpu_s1/\libucosii_bsp.a(alt_load.o)
 .debug_loc     0x0000ff25      0x163 ../UcosiiBSP_for_cpu_s1/\libucosii_bsp.a(alt_lseek.o)
 .debug_loc     0x00010088       0x3e ../UcosiiBSP_for_cpu_s1/\libucosii_bsp.a(alt_main.o)
 .debug_loc     0x000100c6      0x176 ../UcosiiBSP_for_cpu_s1/\libucosii_bsp.a(alt_read.o)
 .debug_loc     0x0001023c       0x21 ../UcosiiBSP_for_cpu_s1/\libucosii_bsp.a(alt_release_fd.o)
 .debug_loc     0x0001025d       0x34 ../UcosiiBSP_for_cpu_s1/\libucosii_bsp.a(alt_sbrk.o)
 .debug_loc     0x00010291       0x78 ../UcosiiBSP_for_cpu_s1/\libucosii_bsp.a(alt_usleep.o)
 .debug_loc     0x00010309      0x176 ../UcosiiBSP_for_cpu_s1/\libucosii_bsp.a(alt_write.o)
 .debug_loc     0x0001047f       0xaa ../UcosiiBSP_for_cpu_s1/\libucosii_bsp.a(alt_env_lock.o)
 .debug_loc     0x00010529      0x14f ../UcosiiBSP_for_cpu_s1/\libucosii_bsp.a(alt_malloc_lock.o)
 .debug_loc     0x00010678     0x11bc ../UcosiiBSP_for_cpu_s1/\libucosii_bsp.a(os_core.o)
 .debug_loc     0x00011834      0xef1 ../UcosiiBSP_for_cpu_s1/\libucosii_bsp.a(os_flag.o)
 .debug_loc     0x00012725      0x4c6 ../UcosiiBSP_for_cpu_s1/\libucosii_bsp.a(os_mem.o)
 .debug_loc     0x00012beb      0x748 ../UcosiiBSP_for_cpu_s1/\libucosii_bsp.a(os_mutex.o)
 .debug_loc     0x00013333      0xe13 ../UcosiiBSP_for_cpu_s1/\libucosii_bsp.a(os_q.o)
 .debug_loc     0x00014146      0x710 ../UcosiiBSP_for_cpu_s1/\libucosii_bsp.a(os_sem.o)
 .debug_loc     0x00014856     0x1106 ../UcosiiBSP_for_cpu_s1/\libucosii_bsp.a(os_task.o)
 .debug_loc     0x0001595c      0x32e ../UcosiiBSP_for_cpu_s1/\libucosii_bsp.a(os_time.o)
 .debug_loc     0x00015c8a       0x61 ../UcosiiBSP_for_cpu_s1/\libucosii_bsp.a(alt_sys_init.o)
 .debug_loc     0x00015ceb      0x132 ../UcosiiBSP_for_cpu_s1/\libucosii_bsp.a(altera_avalon_jtag_uart_fd.o)
 .debug_loc     0x00015e1d       0xb5 ../UcosiiBSP_for_cpu_s1/\libucosii_bsp.a(altera_avalon_jtag_uart_read.o)
 .debug_loc     0x00015ed2       0x7e ../UcosiiBSP_for_cpu_s1/\libucosii_bsp.a(altera_avalon_jtag_uart_write.o)
 .debug_loc     0x00015f50      0x122 ../UcosiiBSP_for_cpu_s1/\libucosii_bsp.a(altera_avalon_timer_sc.o)
 .debug_loc     0x00016072       0x7d ../UcosiiBSP_for_cpu_s1/\libucosii_bsp.a(alt_busy_sleep.o)
 .debug_loc     0x000160ef       0xec ../UcosiiBSP_for_cpu_s1/\libucosii_bsp.a(alt_dev_llist_insert.o)
 .debug_loc     0x000161db      0x18a ../UcosiiBSP_for_cpu_s1/\libucosii_bsp.a(alt_io_redirect.o)
 .debug_loc     0x00016365       0xc3 ../UcosiiBSP_for_cpu_s1/\libucosii_bsp.a(alt_irq_handler.o)
 .debug_loc     0x00016428      0x217 ../UcosiiBSP_for_cpu_s1/\libucosii_bsp.a(alt_open.o)
 .debug_loc     0x0001663f       0x64 ../UcosiiBSP_for_cpu_s1/\libucosii_bsp.a(alt_tick.o)
 .debug_loc     0x000166a3      0x12e ../UcosiiBSP_for_cpu_s1/\libucosii_bsp.a(os_cpu_c.o)
 .debug_loc     0x000167d1       0x9e ../UcosiiBSP_for_cpu_s1/\libucosii_bsp.a(alt_find_dev.o)
 .debug_loc     0x0001686f       0x72 ../UcosiiBSP_for_cpu_s1/\libucosii_bsp.a(alt_find_file.o)
 .debug_loc     0x000168e1       0xaa ../UcosiiBSP_for_cpu_s1/\libucosii_bsp.a(alt_get_fd.o)
 .debug_loc     0x0001698b       0x52 ../UcosiiBSP_for_cpu_s1/\libucosii_bsp.a(alt_icache_flush.o)
 .debug_loc     0x000169dd      0x103 c:/altera/13.1/nios2eds/bin/gnu/h-i686-mingw32/bin/../lib/gcc/nios2-elf/4.7.3/../../../../../H-i686-mingw32/nios2-elf/lib\libc.a(lib_a-memcmp.o)
 .debug_loc     0x00016ae0       0x48 c:/altera/13.1/nios2eds/bin/gnu/h-i686-mingw32/bin/../lib/gcc/nios2-elf/4.7.3\libgcc.a(_fixunsdfsi.o)

.debug_macinfo
 *(.debug_macinfo)

.debug_weaknames
 *(.debug_weaknames)

.debug_funcnames
 *(.debug_funcnames)

.debug_typenames
 *(.debug_typenames)

.debug_varnames
 *(.debug_varnames)

.debug_alt_sim_info
                0x00000000       0x50
 *(.debug_alt_sim_info)
 .debug_alt_sim_info
                0x00000000       0x20 ../UcosiiBSP_for_cpu_s1//obj/HAL/src/crt0.o
 .debug_alt_sim_info
                0x00000020       0x30 ../UcosiiBSP_for_cpu_s1/\libucosii_bsp.a(alt_busy_sleep.o)
                0x00058000                __alt_data_end = 0x58000
                0x00058000                PROVIDE (__alt_stack_pointer, __alt_data_end)
                0x00042fb8                PROVIDE (__alt_stack_limit, __alt_stack_base)
                0x00042fb8                PROVIDE (__alt_heap_start, end)
                0x00058000                PROVIDE (__alt_heap_limit, 0x58000)
OUTPUT(MCAPI_SystemTest_node2_cpu_s1.elf elf32-littlenios2)

.debug_ranges   0x00000000      0xd68
 .debug_ranges  0x00000000       0x20 ../UcosiiBSP_for_cpu_s1//obj/HAL/src/crt0.o
 .debug_ranges  0x00000020       0x20 c:/altera/13.1/nios2eds/bin/gnu/h-i686-mingw32/bin/../lib/gcc/nios2-elf/4.7.3/../../../../../H-i686-mingw32/nios2-elf/lib\libc.a(lib_a-fflush.o)
 .debug_ranges  0x00000040       0x18 c:/altera/13.1/nios2eds/bin/gnu/h-i686-mingw32/bin/../lib/gcc/nios2-elf/4.7.3/../../../../../H-i686-mingw32/nios2-elf/lib\libc.a(lib_a-fvwrite.o)
 .debug_ranges  0x00000058       0x80 c:/altera/13.1/nios2eds/bin/gnu/h-i686-mingw32/bin/../lib/gcc/nios2-elf/4.7.3/../../../../../H-i686-mingw32/nios2-elf/lib\libc.a(lib_a-fwalk.o)
 .debug_ranges  0x000000d8       0x70 c:/altera/13.1/nios2eds/bin/gnu/h-i686-mingw32/bin/../lib/gcc/nios2-elf/4.7.3/../../../../../H-i686-mingw32/nios2-elf/lib\libc.a(lib_a-mallocr.o)
 .debug_ranges  0x00000148      0x158 c:/altera/13.1/nios2eds/bin/gnu/h-i686-mingw32/bin/../lib/gcc/nios2-elf/4.7.3/../../../../../H-i686-mingw32/nios2-elf/lib\libc.a(lib_a-reallocr.o)
 .debug_ranges  0x000002a0      0x150 c:/altera/13.1/nios2eds/bin/gnu/h-i686-mingw32/bin/../lib/gcc/nios2-elf/4.7.3/../../../../../H-i686-mingw32/nios2-elf/lib\libc.a(lib_a-vfprintf.o)
 .debug_ranges  0x000003f0       0x18 c:/altera/13.1/nios2eds/bin/gnu/h-i686-mingw32/bin/../lib/gcc/nios2-elf/4.7.3/../../../../../H-i686-mingw32/nios2-elf/lib\libc.a(lib_a-__call_atexit.o)
 .debug_ranges  0x00000408       0x40 c:/altera/13.1/nios2eds/bin/gnu/h-i686-mingw32/bin/../lib/gcc/nios2-elf/4.7.3/../../../../../H-i686-mingw32/nios2-elf/lib\libc.a(lib_a-mprec.o)
 .debug_ranges  0x00000448       0x48 c:/altera/13.1/nios2eds/bin/gnu/h-i686-mingw32/bin/../lib/gcc/nios2-elf/4.7.3/../../../../../H-i686-mingw32/nios2-elf/lib\libc.a(lib_a-callocr.o)
 .debug_ranges  0x00000490       0x30 c:/altera/13.1/nios2eds/bin/gnu/h-i686-mingw32/bin/../lib/gcc/nios2-elf/4.7.3\libgcc.a(_muldi3.o)
 .debug_ranges  0x000004c0      0x1a0 c:/altera/13.1/nios2eds/bin/gnu/h-i686-mingw32/bin/../lib/gcc/nios2-elf/4.7.3\libgcc.a(_udivdi3.o)
 .debug_ranges  0x00000660      0x160 c:/altera/13.1/nios2eds/bin/gnu/h-i686-mingw32/bin/../lib/gcc/nios2-elf/4.7.3\libgcc.a(_umoddi3.o)
 .debug_ranges  0x000007c0       0x38 c:/altera/13.1/nios2eds/bin/gnu/h-i686-mingw32/bin/../lib/gcc/nios2-elf/4.7.3\libgcc.a(_addsub_df.o)
 .debug_ranges  0x000007f8       0x78 c:/altera/13.1/nios2eds/bin/gnu/h-i686-mingw32/bin/../lib/gcc/nios2-elf/4.7.3\libgcc.a(_mul_df.o)
 .debug_ranges  0x00000870       0x50 c:/altera/13.1/nios2eds/bin/gnu/h-i686-mingw32/bin/../lib/gcc/nios2-elf/4.7.3\libgcc.a(_div_df.o)
 .debug_ranges  0x000008c0       0x30 c:/altera/13.1/nios2eds/bin/gnu/h-i686-mingw32/bin/../lib/gcc/nios2-elf/4.7.3\libgcc.a(_si_to_df.o)
 .debug_ranges  0x000008f0       0x48 c:/altera/13.1/nios2eds/bin/gnu/h-i686-mingw32/bin/../lib/gcc/nios2-elf/4.7.3\libgcc.a(_usi_to_df.o)
 .debug_ranges  0x00000938       0x28 c:/altera/13.1/nios2eds/bin/gnu/h-i686-mingw32/bin/../lib/gcc/nios2-elf/4.7.3\libgcc.a(_clzsi2.o)
 .debug_ranges  0x00000960       0x18 c:/altera/13.1/nios2eds/bin/gnu/h-i686-mingw32/bin/../lib/gcc/nios2-elf/4.7.3\libgcc.a(_pack_df.o)
 .debug_ranges  0x00000978       0x18 ../UcosiiBSP_for_cpu_s1/\libucosii_bsp.a(alt_close.o)
 .debug_ranges  0x00000990       0x18 ../UcosiiBSP_for_cpu_s1/\libucosii_bsp.a(alt_fstat.o)
 .debug_ranges  0x000009a8       0x30 ../UcosiiBSP_for_cpu_s1/\libucosii_bsp.a(alt_irq_register.o)
 .debug_ranges  0x000009d8       0x18 ../UcosiiBSP_for_cpu_s1/\libucosii_bsp.a(alt_isatty.o)
 .debug_ranges  0x000009f0       0x48 ../UcosiiBSP_for_cpu_s1/\libucosii_bsp.a(alt_load.o)
 .debug_ranges  0x00000a38       0x18 ../UcosiiBSP_for_cpu_s1/\libucosii_bsp.a(alt_main.o)
 .debug_ranges  0x00000a50      0x118 ../UcosiiBSP_for_cpu_s1/\libucosii_bsp.a(os_core.o)
 .debug_ranges  0x00000b68       0x30 ../UcosiiBSP_for_cpu_s1/\libucosii_bsp.a(os_mutex.o)
 .debug_ranges  0x00000b98       0x30 ../UcosiiBSP_for_cpu_s1/\libucosii_bsp.a(os_q.o)
 .debug_ranges  0x00000bc8       0x30 ../UcosiiBSP_for_cpu_s1/\libucosii_bsp.a(os_sem.o)
 .debug_ranges  0x00000bf8       0x30 ../UcosiiBSP_for_cpu_s1/\libucosii_bsp.a(os_time.o)
 .debug_ranges  0x00000c28       0x30 ../UcosiiBSP_for_cpu_s1/\libucosii_bsp.a(alt_sys_init.o)
 .debug_ranges  0x00000c58       0x20 ../UcosiiBSP_for_cpu_s1/\libucosii_bsp.a(altera_avalon_jtag_uart_read.o)
 .debug_ranges  0x00000c78       0x18 ../UcosiiBSP_for_cpu_s1/\libucosii_bsp.a(altera_avalon_timer_sc.o)
 .debug_ranges  0x00000c90       0x28 ../UcosiiBSP_for_cpu_s1/\libucosii_bsp.a(alt_irq_entry.o)
 .debug_ranges  0x00000cb8       0x10 ../UcosiiBSP_for_cpu_s1/\libucosii_bsp.a(alt_irq_handler.o)
 .debug_ranges  0x00000cc8       0x30 ../UcosiiBSP_for_cpu_s1/\libucosii_bsp.a(alt_open.o)
 .debug_ranges  0x00000cf8       0x30 ../UcosiiBSP_for_cpu_s1/\libucosii_bsp.a(alt_exception_entry.o)
 .debug_ranges  0x00000d28       0x40 ../UcosiiBSP_for_cpu_s1/\libucosii_bsp.a(alt_get_fd.o)
