
MCAPI_SystemTest_node1_cpu_s0.elf:     file format elf32-littlenios2
MCAPI_SystemTest_node1_cpu_s0.elf
architecture: nios2, flags 0x00000112:
EXEC_P, HAS_SYMS, D_PAGED
start address 0x00000154

Program Header:
    LOAD off    0x00001000 vaddr 0x00000000 paddr 0x00000000 align 2**12
         filesz 0x00000020 memsz 0x00000020 flags r-x
    LOAD off    0x00001020 vaddr 0x00000020 paddr 0x00000020 align 2**12
         filesz 0x000220cc memsz 0x000220cc flags r-x
    LOAD off    0x000230ec vaddr 0x000220ec paddr 0x00023cd8 align 2**12
         filesz 0x00001bec memsz 0x00001bec flags rw-
    LOAD off    0x000258c4 vaddr 0x000258c4 paddr 0x000258c4 align 2**12
         filesz 0x00000000 memsz 0x00026078 flags rw-

Sections:
Idx Name          Size      VMA       LMA       File off  Algn
  0 .entry        00000020  00000000  00000000  00001000  2**5
                  CONTENTS, ALLOC, LOAD, READONLY, CODE
  1 .exceptions   00000134  00000020  00000020  00001020  2**2
                  CONTENTS, ALLOC, LOAD, READONLY, CODE
  2 .text         000201c4  00000154  00000154  00001154  2**2
                  CONTENTS, ALLOC, LOAD, READONLY, CODE
  3 .rodata       00001dd4  00020318  00020318  00021318  2**2
                  CONTENTS, ALLOC, LOAD, READONLY, DATA
  4 .rwdata       00001bec  000220ec  00023cd8  000230ec  2**2
                  CONTENTS, ALLOC, LOAD, DATA, SMALL_DATA
  5 .bss          00026078  000258c4  000258c4  000258c4  2**2
                  ALLOC, SMALL_DATA
  6 .comment      00000023  00000000  00000000  00024cd8  2**0
                  CONTENTS, READONLY
  7 .debug_aranges 00001028  00000000  00000000  00024d00  2**3
                  CONTENTS, READONLY, DEBUGGING
  8 .debug_info   000497aa  00000000  00000000  00025d28  2**0
                  CONTENTS, READONLY, DEBUGGING
  9 .debug_abbrev 0000d8a1  00000000  00000000  0006f4d2  2**0
                  CONTENTS, READONLY, DEBUGGING
 10 .debug_line   00011e40  00000000  00000000  0007cd73  2**0
                  CONTENTS, READONLY, DEBUGGING
 11 .debug_frame  00003768  00000000  00000000  0008ebb4  2**2
                  CONTENTS, READONLY, DEBUGGING
 12 .debug_str    000066fc  00000000  00000000  0009231c  2**0
                  CONTENTS, READONLY, DEBUGGING
 13 .debug_loc    00030be5  00000000  00000000  00098a18  2**0
                  CONTENTS, READONLY, DEBUGGING
 14 .debug_alt_sim_info 00000050  00000000  00000000  000c9600  2**2
                  CONTENTS, READONLY, DEBUGGING
 15 .debug_ranges 00005138  00000000  00000000  000c9650  2**3
                  CONTENTS, READONLY, DEBUGGING
 16 .thread_model 00000006  00000000  00000000  000d56ca  2**0
                  CONTENTS, READONLY
 17 .cpu          00000006  00000000  00000000  000d56d0  2**0
                  CONTENTS, READONLY
 18 .qsys         00000001  00000000  00000000  000d56d6  2**0
                  CONTENTS, READONLY
 19 .simulation_enabled 00000001  00000000  00000000  000d56d7  2**0
                  CONTENTS, READONLY
 20 .stderr_dev   00000010  00000000  00000000  000d56d8  2**0
                  CONTENTS, READONLY
 21 .stdin_dev    00000010  00000000  00000000  000d56e8  2**0
                  CONTENTS, READONLY
 22 .stdout_dev   00000010  00000000  00000000  000d56f8  2**0
                  CONTENTS, READONLY
 23 .sopc_system_name 0000000a  00000000  00000000  000d5708  2**0
                  CONTENTS, READONLY
 24 .jdi          00011508  00000000  00000000  000d5712  2**0
                  CONTENTS, READONLY
 25 .sopcinfo     002e2898  00000000  00000000  000e6c1a  2**0
                  CONTENTS, READONLY
SYMBOL TABLE:
00000000 l    d  .entry	00000000 .entry
00000020 l    d  .exceptions	00000000 .exceptions
00000154 l    d  .text	00000000 .text
00020318 l    d  .rodata	00000000 .rodata
000220ec l    d  .rwdata	00000000 .rwdata
000258c4 l    d  .bss	00000000 .bss
00000000 l    d  .comment	00000000 .comment
00000000 l    d  .debug_aranges	00000000 .debug_aranges
00000000 l    d  .debug_info	00000000 .debug_info
00000000 l    d  .debug_abbrev	00000000 .debug_abbrev
00000000 l    d  .debug_line	00000000 .debug_line
00000000 l    d  .debug_frame	00000000 .debug_frame
00000000 l    d  .debug_str	00000000 .debug_str
00000000 l    d  .debug_loc	00000000 .debug_loc
00000000 l    d  .debug_alt_sim_info	00000000 .debug_alt_sim_info
00000000 l    d  .debug_ranges	00000000 .debug_ranges
00000000 l    df *ABS*	00000000 ../UcosiiBSP_for_cpu_s0//obj/HAL/src/crt0.o
0000018c l       .text	00000000 alt_after_alt_main
00000000 l    df *ABS*	00000000 alt_exception_entry.o
00000094 l       .exceptions	00000000 alt_exception_unknown
00000000 l    df *ABS*	00000000 alt_irq_handler.c
00000000 l    df *ABS*	00000000 mcapi.c
00000000 l    df *ABS*	00000000 mcapi_trans_nios.c
0000c878 l     F .text	00000030 MCAPI_ASSERT.part.0
00002508 l     F .text	0000029c setup_request_have_lock.constprop.7
0000b8b0 l     F .text	000002e4 mcapi_trans_recv_have_lock.constprop.3
0000bca4 l     F .text	000003a4 mcapi_trans_recv_have_lock.constprop.4
00000000 l    df *ABS*	00000000 NS_layer.c
000212d0 l     O .rodata	0000006c nios_node_mapping_db
00000000 l    df *ABS*	00000000 PH_layer.c
000215b8 l     O .rodata	0000006c nios_node_mapping_db
00000000 l    df *ABS*	00000000 SysTestNode1.c
00000000 l    df *ABS*	00000000 util_packet_handling.c
00000000 l    df *ABS*	00000000 lib2-divmod.c
0000f494 l     F .text	00000074 udivmodsi4
00000000 l    df *ABS*	00000000 lib2-divtable.c
00000000 l    df *ABS*	00000000 exit.c
00000000 l    df *ABS*	00000000 fflush.c
00000000 l    df *ABS*	00000000 findfp.c
0000f814 l     F .text	00000008 __fp_lock
0000f81c l     F .text	00000008 __fp_unlock
00000000 l    df *ABS*	00000000 fprintf.c
00000000 l    df *ABS*	00000000 fwalk.c
00000000 l    df *ABS*	00000000 fwrite.c
00000000 l    df *ABS*	00000000 impure.c
000221ec l     O .rwdata	00000400 impure_data
00000000 l    df *ABS*	00000000 mallocr.c
00000000 l    df *ABS*	00000000 memcpy.c
00000000 l    df *ABS*	00000000 memset.c
00000000 l    df *ABS*	00000000 printf.c
00000000 l    df *ABS*	00000000 puts.c
00000000 l    df *ABS*	00000000 rand.c
00000000 l    df *ABS*	00000000 sbrkr.c
00000000 l    df *ABS*	00000000 stdio.c
00000000 l    df *ABS*	00000000 strlen.c
00000000 l    df *ABS*	00000000 vfprintf.c
00010a7c l     F .text	00000034 __sprint_r
00021cff l     O .rodata	00000010 blanks.3515
00021d0f l     O .rodata	00000010 zeroes.3516
00000000 l    df *ABS*	00000000 writer.c
00000000 l    df *ABS*	00000000 wsetup.c
00000000 l    df *ABS*	00000000 __call_atexit.c
00000000 l    df *ABS*	00000000 closer.c
00000000 l    df *ABS*	00000000 dtoa.c
00012cb0 l     F .text	00000208 quorem
00000000 l    df *ABS*	00000000 fclose.c
00000000 l    df *ABS*	00000000 mallocr.c
00000000 l    df *ABS*	00000000 fvwrite.c
00000000 l    df *ABS*	00000000 int_errno.c
00000000 l    df *ABS*	00000000 locale.c
00021d40 l     O .rodata	00000030 lconv
00000000 l    df *ABS*	00000000 lseekr.c
00000000 l    df *ABS*	00000000 makebuf.c
00000000 l    df *ABS*	00000000 memchr.c
00000000 l    df *ABS*	00000000 memmove.c
00000000 l    df *ABS*	00000000 mprec.c
00021e88 l     O .rodata	0000000c p05.2435
00000000 l    df *ABS*	00000000 readr.c
00000000 l    df *ABS*	00000000 mallocr.c
00000000 l    df *ABS*	00000000 s_isinfd.c
00000000 l    df *ABS*	00000000 s_isnand.c
00000000 l    df *ABS*	00000000 strcmp.c
00000000 l    df *ABS*	00000000 mallocr.c
00000000 l    df *ABS*	00000000 fstatr.c
00000000 l    df *ABS*	00000000 isattyr.c
00000000 l    df *ABS*	00000000 libgcc2.c
00000000 l    df *ABS*	00000000 libgcc2.c
00000000 l    df *ABS*	00000000 libgcc2.c
00000000 l    df *ABS*	00000000 fp-bit.c
00017878 l     F .text	00000354 _fpadd_parts
00000000 l    df *ABS*	00000000 fp-bit.c
00000000 l    df *ABS*	00000000 fp-bit.c
00000000 l    df *ABS*	00000000 fp-bit.c
00000000 l    df *ABS*	00000000 fp-bit.c
00000000 l    df *ABS*	00000000 fp-bit.c
00000000 l    df *ABS*	00000000 fp-bit.c
00000000 l    df *ABS*	00000000 fp-bit.c
00000000 l    df *ABS*	00000000 fp-bit.c
00000000 l    df *ABS*	00000000 fp-bit.c
00000000 l    df *ABS*	00000000 fp-bit.c
00000000 l    df *ABS*	00000000 fp-bit.c
00000000 l    df *ABS*	00000000 libgcc2.c
00000000 l    df *ABS*	00000000 libgcc2.c
00000000 l    df *ABS*	00000000 fp-bit.c
00000000 l    df *ABS*	00000000 fp-bit.c
00000000 l    df *ABS*	00000000 fp-bit.c
00000000 l    df *ABS*	00000000 libgcc2.c
00000000 l    df *ABS*	00000000 libgcc2.c
00000000 l    df *ABS*	00000000 alt_close.c
00000000 l    df *ABS*	00000000 alt_dev.c
00018bc4 l     F .text	00000008 alt_dev_null_write
00000000 l    df *ABS*	00000000 alt_errno.c
00000000 l    df *ABS*	00000000 alt_exit.c
00000000 l    df *ABS*	00000000 alt_fstat.c
00000000 l    df *ABS*	00000000 alt_irq_register.c
00000000 l    df *ABS*	00000000 alt_irq_vars.c
00000000 l    df *ABS*	00000000 alt_isatty.c
00000000 l    df *ABS*	00000000 alt_load.c
00000000 l    df *ABS*	00000000 alt_lseek.c
00000000 l    df *ABS*	00000000 alt_main.c
00000000 l    df *ABS*	00000000 alt_read.c
00000000 l    df *ABS*	00000000 alt_release_fd.c
00000000 l    df *ABS*	00000000 alt_sbrk.c
00023c50 l     O .rwdata	00000004 heap_end
00000000 l    df *ABS*	00000000 alt_usleep.c
00000000 l    df *ABS*	00000000 alt_write.c
00000000 l    df *ABS*	00000000 alt_env_lock.c
00023c54 l     O .rwdata	00000004 lockid
0002597c l     O .bss	00000004 locks
00000000 l    df *ABS*	00000000 alt_malloc_lock.c
00023c58 l     O .rwdata	00000004 lockid
00025984 l     O .bss	00000004 locks
00000000 l    df *ABS*	00000000 os_core.c
00000000 l    df *ABS*	00000000 os_dbg.c
00000000 l    df *ABS*	00000000 os_flag.c
00000000 l    df *ABS*	00000000 os_mem.c
00000000 l    df *ABS*	00000000 os_mutex.c
00000000 l    df *ABS*	00000000 os_q.c
00000000 l    df *ABS*	00000000 os_sem.c
00000000 l    df *ABS*	00000000 os_task.c
00000000 l    df *ABS*	00000000 os_time.c
00000000 l    df *ABS*	00000000 alt_sys_init.c
00022ba8 l     O .rwdata	0000106c jtag_uart_cpu_s0
00000000 l    df *ABS*	00000000 altera_avalon_jtag_uart_fd.c
00000000 l    df *ABS*	00000000 altera_avalon_jtag_uart_init.c
0001edf4 l     F .text	000000a4 altera_avalon_jtag_uart_timeout
0001ee98 l     F .text	000001b0 altera_avalon_jtag_uart_irq
00000000 l    df *ABS*	00000000 altera_avalon_jtag_uart_ioctl.c
00000000 l    df *ABS*	00000000 altera_avalon_jtag_uart_read.c
00000000 l    df *ABS*	00000000 altera_avalon_jtag_uart_write.c
00000000 l    df *ABS*	00000000 altera_avalon_timer_sc.c
0001f524 l     F .text	0000003c alt_avalon_timer_sc_irq
00000000 l    df *ABS*	00000000 alt_alarm_start.c
00000000 l    df *ABS*	00000000 alt_busy_sleep.c
00000000 l    df *ABS*	00000000 alt_dcache_flush_all.c
00000000 l    df *ABS*	00000000 alt_dev_llist_insert.c
00000000 l    df *ABS*	00000000 alt_do_ctors.c
00000000 l    df *ABS*	00000000 alt_do_dtors.c
00000000 l    df *ABS*	00000000 alt_icache_flush_all.c
00000000 l    df *ABS*	00000000 alt_io_redirect.c
00000000 l    df *ABS*	00000000 alt_open.c
00000000 l    df *ABS*	00000000 alt_tick.c
00000000 l    df *ABS*	00000000 altera_nios2_qsys_irq.c
00000000 l    df *ABS*	00000000 os_cpu_a.o
00000040 l       *ABS*	00000000 OSCtxSw_SWITCH_PC
00000000 l    df *ABS*	00000000 os_cpu_c.c
00000014 l       *ABS*	00000000 OSTCBNext_OFFSET
00000032 l       *ABS*	00000000 OSTCBPrio_OFFSET
00000000 l       *ABS*	00000000 OSTCBStkPtr_OFFSET
00000000 l    df *ABS*	00000000 alt_find_dev.c
00000000 l    df *ABS*	00000000 alt_find_file.c
00000000 l    df *ABS*	00000000 alt_get_fd.c
00000000 l    df *ABS*	00000000 alt_icache_flush.c
00000000 l    df *ABS*	00000000 atexit.c
00000000 l    df *ABS*	00000000 memcmp.c
00000000 l    df *ABS*	00000000 __atexit.c
00000000 l    df *ABS*	00000000 libgcc2.c
00000000 l    df *ABS*	00000000 
0000cce4 g     F .text	00000290 NS_init
000027c8 g     F .text	00000014 mca_dprintf
0003dad8 g     O .bss	00002000 node1_sendMSG_to_node2_task_stk
00016258 g     F .text	00000074 _mprec_log10
00003624 g     F .text	000000f0 mcapi_trans_channel_type
00023c82 g     O .rwdata	00000002 OSTaskNameSize
0000f380 g     F .text	00000058 pack_get_64
00001924 g     F .text	0000010c mcapi_sclchan_connect_i
00016348 g     F .text	00000084 __any_on
00016c60 g     F .text	00000064 _isatty_r
00021d70 g     O .rodata	00000028 __mprec_tinytens
00018f34 g     F .text	000000a8 alt_main
00025a18 g     O .bss	00013ea0 mcapi_db_impl
00039ad8 g     O .bss	00002000 PH_FIFO2_RcvTask_stk
00018aa0 g     F .text	00000044 __ashldi3
00010738 g     F .text	00000084 _puts_r
00009dac g     F .text	00000110 mcapi_trans_msg_send
0004b6ac g     O .bss	00000100 alt_irq
00014ff0 g     F .text	0000006c _lseek_r
0001bc94 g     F .text	00000090 OS_MemInit
00023cd8 g       *ABS*	00000000 __flash_rwdata_start
0001ed20 g     F .text	00000024 OSTimeSet
000258e8 g     O .bss	00000004 semAlmostFull_fifo_1
00000ca0 g     F .text	000000a8 mcapi_endpoint_delete
00018118 g     F .text	0000005c __eqdf2
0001a110 g     F .text	0000053c OSEventPendMulti
0004b93c g       *ABS*	00000000 __alt_heap_start
0001fe3c g     F .text	00000004 OSTaskCreateHook
0003bad8 g     O .bss	00002000 PH_FIFO1_RcvTask_stk
000106fc g     F .text	0000003c printf
00023caa g     O .rwdata	00000002 OSMboxEn
00002314 g     F .text	000000dc mcapi_wait
000199c8 g     F .text	00000040 OSIntEnter
00008208 g     F .text	00000188 mcapi_trans_wait_any
000027dc g     F .text	00000020 mcapi_trans_get_node_num
0001098c g     F .text	0000005c __sseek
0000f8a4 g     F .text	0000010c __sinit
00023c9a g     O .rwdata	00000002 OSQEn
00014f14 g     F .text	0000009c _setlocale_r
00003814 g     F .text	00000100 mcapi_trans_recv_endpoint
0000f830 g     F .text	00000064 __sfmoreglue
00001a30 g     F .text	000000dc mcapi_sclchan_recv_open_i
00019478 g     F .text	00000058 __malloc_unlock
0000c270 g     F .text	000000c0 mcapi_trans_msg_recv
0001fe48 g     F .text	00000004 OSTaskStatHook
00000190 g     F .text	000005dc mcapi_display_status
0000a408 g     F .text	00000040 mcapi_trans_encode_handle
00008e24 g     F .text	000003c0 mcapi_trans_send_have_lock
0002598c g     O .bss	00000001 OSLockNesting
0000a244 g     F .text	000001c4 mcapi_trans_add_domain_and_node
00000950 g     F .text	0000003c mcapi_finalize
0000cf74 g     F .text	00000300 NS_getRemoteEndpoint_request
0000281c g     F .text	000000e4 mcapi_trans_remove_request_have_lock
000011c4 g     F .text	000000bc mcapi_pktchan_connect_i
00003574 g     F .text	000000b0 mcapi_trans_finalize
000024a4 g     F .text	00000064 mcapi_cancel
00023c5c g     O .rwdata	00000002 OSDataSize
00025990 g     O .bss	00000001 OSRunning
0000187c g     F .text	000000a8 mcapi_pktchan_send_close_i
000258ec g     O .bss	00000004 bridge_base_fifo_2
000152fc g     F .text	00000128 memmove
00008500 g     F .text	00000120 mcapi_trans_connect_channel_have_lock
0001fe50 g     F .text	00000004 OSInitHookBegin
000398b8 g     O .bss	00000020 callIDs
000258c8 g     O .bss	00000004 my_mcapi_nindex
00023c64 g     O .rwdata	00000002 OSTmrSize
0000f894 g     F .text	00000010 _cleanup
0000b48c g     F .text	00000424 mcapi_trans_pktchan_recv_close_i
00015424 g     F .text	000000a8 _Balloc
0000a0a0 g     F .text	00000030 mcapi_trans_close_channel_have_lock
0000a06c g     F .text	00000034 mcapi_trans_open_channel_have_lock
00025994 g     O .bss	00000004 OSIdleCtr
00025918 g     O .bss	00000004 prio
0000daf4 g     F .text	000002c0 NS_layer_receive
000181d0 g     F .text	00000064 __gtdf2
00025908 g     O .bss	00000004 node1_recvMSG_from_node2_thread_flag
0001fc4c g       .text	00000000 OSStartTsk
00000000  w      *UND*	00000000 __errno
0001a9dc g     F .text	0000018c OS_TCBInit
0000391c g     F .text	00000008 mcapi_trans_valid_node
00000000 g     F .entry	0000001c __reset
000047b8 g     F .text	000001f8 mcapi_trans_endpoint_create
00003ee8 g     F .text	00000004 mcapi_trans_sclchan_recv_isopen
00023c5e g     O .rwdata	00000002 OSTmrWheelTblSize
00000834 g     F .text	00000058 mcapi_node_init_attributes
00000020 g       *ABS*	00000000 __flash_exceptions_start
00023cbe g     O .rwdata	00000002 OSEventSize
0000e254 g     F .text	00000028 cpu_fifo_bridge_init
00025998 g     O .bss	00000001 OSPrioHighRdy
00016bf8 g     F .text	00000068 _fstat_r
0000e054 g     F .text	00000200 PH_send_request
0001fe40 g     F .text	00000004 OSTaskDelHook
00025958 g     O .bss	00000004 errno
0000d274 g     F .text	0000013c NS_getRemoteEndpoint_response
00003bc0 g     F .text	00000110 mcapi_trans_endpoint_exists_
0001fc2c g       .text	00000000 OSStartHighRdy
0001dd30 g     F .text	00000160 OSTaskCreateExt
0003fad8 g     O .bss	00002000 init_task_stk
0001b4c0 g     F .text	00000028 OSFlagPendGetFlagsRdy
00023c7e g     O .rwdata	00000002 OSTaskStatStkSize
0000d670 g     F .text	000000ec NS_endpointChannelIsopen_response
0001ab6c g     F .text	00000160 OSFlagAccept
0001cb50 g     F .text	00000050 OSQFlush
0000a5d4 g     F .text	00000368 print_queue
0001c7e4 g     F .text	000000ac OSQAccept
00025974 g     O .bss	00000004 alt_argv
0002bc14 g       *ABS*	00000000 _gp
00019138 g     F .text	000000f0 usleep
0001dc2c g     F .text	00000104 OSTaskCreate
0001d9bc g     F .text	00000270 OSTaskChangePrio
00025988 g     O .bss	00000004 alt_heapsem
00004b88 g     F .text	00000154 mcapi_trans_endpoint_get_attribute
00005a84 g     F .text	000000f0 mcapi_trans_pktchan_available
000075bc g     F .text	000002bc cancel_receive_request_have_lock
0001ab68 g     F .text	00000004 OSDebugInit
00041ad8 g     O .bss	00002000 node1_sendMSG_to_node0_task_stk
0001de90 g     F .text	0000029c OSTaskDel
0001bd24 g     F .text	000000e4 OSMutexAccept
0000a490 g     F .text	0000010c mcapi_trans_get_database_indices
000008ec g     F .text	00000064 mcapi_node_get_attribute
00022a00 g     O .rwdata	00000180 alt_fd_list
00047ad8 g     O .bss	00000370 OSFlagTbl
0000d75c g     F .text	00000178 NS_sendDataToRemote_request
0001a080 g     F .text	0000003c OS_EventTaskRemove
0001fe60 g     F .text	00000094 alt_find_dev
000104fc g     F .text	000000f8 memcpy
00005b74 g     F .text	000000c8 mcapi_trans_pktchan_free
00023c94 g     O .rwdata	00000002 OSRdyTblSize
0000f824 g     F .text	0000000c _cleanup_r
000182f4 g     F .text	000000d4 __floatsidf
0001f7f0 g     F .text	00000104 alt_io_redirect
00018298 g     F .text	0000005c __ltdf2
000093f8 g     F .text	00000470 mcapi_trans_pktchan_send_i
00004788 g     F .text	00000008 mcapi_trans_valid_buffer_param
00003eec g     F .text	00000004 mcapi_trans_pktchan_send_isopen
00020318 g       *ABS*	00000000 __DTOR_END__
0000de84 g     F .text	000000d0 PH_FIFO1_RcvTask
0000e27c g     F .text	00000500 PH_init
000068ec g     F .text	00000004 mcapi_trans_signal_handler
000107bc g     F .text	00000014 puts
0002591c g     O .bss	00000004 node2_recvEP_from_node0
00019600 g     F .text	000000c4 OSEventNameGet
00023cb0 g     O .rwdata	00000002 OSFlagMax
0000c8d0 g     F .text	00000150 NS_get_serviceRequestID
00004780 g     F .text	00000008 mcapi_trans_valid_version_param
0000ddb4 g     F .text	000000d0 PH_FIFO2_RcvTask
0001c1c8 g     F .text	00000338 OSMutexPend
000161b4 g     F .text	000000a4 __ratio
00019a08 g     F .text	000000f4 OSIntExit
000089d8 g     F .text	0000044c mcapi_trans_send
000258c4 g     O .bss	00000004 my_mcapi_dindex
00023c76 g     O .rwdata	00000002 OSTCBSize
0002599c g     O .bss	00000001 OSPrioCur
0001f1b8 g     F .text	00000188 altera_avalon_jtag_uart_read
00000000  w      *UND*	00000000 malloc
000106d0 g     F .text	0000002c _printf_r
0000f5b4 g     F .text	00000008 __udivsi3
00018d10 g     F .text	0000008c isatty
00025920 g     O .bss	00000004 node0_sendEP_to_node1
00023c90 g     O .rwdata	00000002 OSStkWidth
00025924 g     O .bss	00000004 node0_recvEP_from_node2
00004688 g     F .text	000000f0 mcapi_trans_connected
00025928 g     O .bss	00000004 node1_sendEP_to_node0
00021dc0 g     O .rodata	000000c8 __mprec_tens
00023c9c g     O .rwdata	00000002 OSPtrSize
000015a4 g     F .text	000000bc mcapi_pktchan_recv_i
00014fb0 g     F .text	0000000c __locale_charset
0000a170 g     F .text	0000006c mcapi_trans_access_database_pre
00023cbc g     O .rwdata	00000002 OSEventTblSize
000029a0 g     F .text	000000ac mcapi_trans_init_indexed_array_have_lock
0000c518 g     F .text	000000ac mcapi_trans_pktchan_recv
00020294 g     F .text	00000084 __fixunsdfsi
0001fba0 g       .text	00000000 OSCtxSw
00020084 g     F .text	00000050 alt_icache_flush
0002592c g     O .bss	00000004 node2_sendEP_to_node1
00001b0c g     F .text	000000dc mcapi_sclchan_send_open_i
00025954 g     O .bss	00000004 __malloc_top_pad
000259a0 g     O .bss	00000004 OSTCBList
0000535c g     F .text	000000f0 mcapi_trans_msg_available
00025968 g     O .bss	00000004 alt_fd_list_lock
0000098c g     F .text	0000004c mcapi_domain_id_get
00023c30 g     O .rwdata	00000004 __mb_cur_max
00001160 g     F .text	00000064 mcapi_msg_available
00014fbc g     F .text	0000000c _localeconv_r
00043ad8 g     O .bss	00002000 node1_recvMSG_from_node0_task_stk
00015824 g     F .text	0000003c __i2b
00014a30 g     F .text	000004e4 __sfvwrite_r
00047e48 g     O .bss	00000c30 OSMemTbl
000259a4 g     O .bss	00000001 OSTickStepState
0000e780 g     F .text	0000004c check_status
0000c5c4 g     F .text	00000148 mcapi_trans_compact_queue
0001084c g     F .text	00000064 _sbrk_r
000050a4 g     F .text	000001a8 mcapi_trans_endpoint_get_
00023c98 g     O .rwdata	00000002 OSQMax
0001bf30 g     F .text	00000298 OSMutexDel
00048a78 g     O .bss	00000800 OSTaskStatStk
0001ba34 g     F .text	000000b8 OSMemNameGet
00023cb8 g     O .rwdata	00000002 OSFlagEn
000163cc g     F .text	0000006c _read_r
0000c70c g     F .text	000000d8 mcapi_trans_empty_queue
00023c72 g     O .rwdata	00000002 OSTimeTickHookEn
00025904 g     O .bss	00000004 init_thread_flag
0001ced4 g     F .text	000000d4 OSQPost
0001b898 g     F .text	00000040 OS_FlagUnlink
00004dd4 g     F .text	000002d0 mcapi_trans_endpoint_get_i
000229f4 g     O .rwdata	0000000c __lc_ctype
00023c34 g     O .rwdata	00000004 alt_max_fd
000014dc g     F .text	000000c8 mcapi_pktchan_send
0001a768 g     F .text	000000c0 OS_MemCopy
0001a828 g     F .text	000000bc OS_Sched
00018888 g     F .text	00000104 __unpack_d
00003dd4 g     F .text	00000110 mcapi_trans_endpoint_channel_isopen
000144d4 g     F .text	0000013c _fclose_r
0001b9c8 g     F .text	0000006c OSMemGet
000027a4 g     F .text	00000024 MCAPI_ASSERT
00003914 g     F .text	00000008 mcapi_trans_valid_port
0001e304 g     F .text	00000140 OSTaskNameSet
000258f0 g     O .bss	00000004 mutexSend
0000f7e4 g     F .text	00000030 fflush
00045ad8 g     O .bss	00002000 node1_recvMSG_from_node2_task_stk
00025950 g     O .bss	00000004 __malloc_max_sbrked_mem
000259a8 g     O .bss	00000004 OSCtxSwCtr
0001fe4c g     F .text	00000004 OSTimeTickHook
00018c68 g     F .text	000000a8 alt_irq_register
00023cae g     O .rwdata	00000002 OSFlagNameSize
00003714 g     F .text	00000100 mcapi_trans_send_endpoint
0000c7e4 g     F .text	00000094 mcapi_trans_full_queue
0001a0bc g     F .text	00000054 OS_EventTaskRemoveMulti
00017bcc g     F .text	00000054 __adddf3
00001efc g     F .text	0000008c mcapi_sclchan_recv_uint32
000398d8 g     O .bss	00000020 sem_serviceRequest
00019ff0 g     F .text	00000090 OS_EventTaskWaitMulti
00015f28 g     F .text	00000148 __b2d
00000eb0 g     F .text	00000104 mcapi_msg_send
00023c96 g     O .rwdata	00000002 OSQSize
000172ec g     F .text	0000058c __umoddi3
00018eb0 g     F .text	00000084 lseek
0001d554 g     F .text	00000194 OSSemPend
00006538 g     F .text	000000f0 mcapi_trans_sclchan_available_i
00023c20 g     O .rwdata	00000004 _global_impure_ptr
00016438 g     F .text	000005fc _realloc_r
00023cac g     O .rwdata	00000002 OSLowestPrio
0004b93c g       *ABS*	00000000 __bss_end
0001fe5c g     F .text	00000004 OSTCBInitHook
00023c66 g     O .rwdata	00000002 OSTmrCfgTicksPerSec
0001faa4 g     F .text	000000f4 alt_tick
0000f260 g     F .text	00000034 pack_add_flt
0000a59c g     F .text	00000038 mcapi_trans_whoami
00016d24 g     F .text	000005c8 __udivdi3
00023cc4 g     O .rwdata	00000002 OSEventEn
00021d98 g     O .rodata	00000028 __mprec_bigtens
00015608 g     F .text	00000104 __s2b
00023c6a g     O .rwdata	00000002 OSTmrCfgNameSize
0001849c g     F .text	0000011c __floatunsidf
00015cc8 g     F .text	00000058 __mcmp
000091e4 g     F .text	00000214 mcapi_trans_sclchan_send
0000f2d0 g     F .text	00000024 pack_get_16
0000fabc g     F .text	00000018 __fp_lock_all
0000eefc g     F .text	000001b4 node1_sendMSG_to_node0_task
00002260 g     F .text	000000b4 mcapi_test
0001b810 g     F .text	00000088 OS_FlagInit
0001fa70 g     F .text	00000034 alt_alarm_stop
00000770 g     F .text	00000004 mcapi_display_state
00001dcc g     F .text	0000009c mcapi_sclchan_send_uint8
00023c88 g     O .rwdata	00000002 OSTaskIdleStkSize
0002596c g     O .bss	00000004 alt_irq_active
0001d2e4 g     F .text	00000044 OSSemAccept
0001bbd0 g     F .text	00000060 OSMemPut
00004148 g     F .text	000000f0 mcapi_trans_valid_pktchan_send_handle
00001be8 g     F .text	000000a0 mcapi_sclchan_send_uint64
0001b8d8 g     F .text	000000f0 OSMemCreate
000259ac g     O .bss	00000004 OSIdleCtrMax
0000b060 g     F .text	0000042c mcapi_trans_sclchan_recv_close_i
00004680 g     F .text	00000008 mcapi_trans_valid_priority
000000ec g     F .exceptions	00000068 alt_irq_handler
00022b80 g     O .rwdata	00000028 alt_dev_null
00023c74 g     O .rwdata	00000002 OSTicksPerSec
0000a448 g     F .text	00000048 mcapi_trans_decode_handle
000031dc g     F .text	00000018 mcapi_trans_node_init_attributes
0001fba0 g       .text	00000000 OSIntCtxSw
0001f6ac g     F .text	00000004 alt_dcache_flush_all
0001570c g     F .text	00000068 __hi0bits
000183c8 g     F .text	000000d4 __fixdfsi
00006628 g     F .text	000002c4 mcapi_trans_sclchan_send_close_i
0000e7cc g     F .text	0000029c init_task
0000f2b8 g     F .text	0000000c pack_get_8
000045b8 g     F .text	000000c8 mcapi_trans_num_endpoints
000259b0 g     O .bss	00000004 OSTCBFreeList
00023cd8 g       *ABS*	00000000 __ram_rwdata_end
0001d6e8 g     F .text	00000130 OSSemPendAbort
00002a4c g     F .text	000005b4 mcapi_trans_initialize
00023c38 g     O .rwdata	00000008 alt_dev_list
00009ebc g     F .text	000001b0 mcapi_trans_recv_have_lock_
00019228 g     F .text	000000e8 write
00025930 g     O .bss	00000004 node1_recvEP_from_node2
00023c70 g     O .rwdata	00000002 OSVersionNbr
0000f294 g     F .text	00000024 pack_add_adr
000220ec g       *ABS*	00000000 __ram_rodata_end
00018bec g     F .text	0000007c fstat
0000fb14 g     F .text	00000024 fprintf
00004d00 g     F .text	000000d4 mcapi_trans_endpoint_get_have_lock
00018a5c g     F .text	00000044 __lshrdi3
00023cc8 g     O .rwdata	00000004 OSEndiannessTest
00025910 g     O .bss	00000004 node1_sendMSG_to_node2_thread_flag
00015a40 g     F .text	0000012c __pow5mult
0002590c g     O .bss	00000004 node1_recvMSG_from_node0_thread_flag
00025964 g     O .bss	00000004 __nlocale_changed
0000f5bc g     F .text	00000008 __umodsi3
000087fc g     F .text	000001dc mcapi_trans_pktchan_connect_i
000031f4 g     F .text	00000320 mcapi_trans_node_get_attribute
0000f1e0 g     F .text	00000040 pack_add_64
00023cb6 g     O .rwdata	00000002 OSFlagGrpSize
0000d8d4 g     F .text	00000100 NS_sendDataToRemote_indication
0004b93c g       *ABS*	00000000 end
0000cb5c g     F .text	00000180 NS_releaseCallID
00025934 g     O .bss	00000004 node1_recvEP_from_node0
00001354 g     F .text	000000d4 mcapi_pktchan_send_open_i
0001f048 g     F .text	000000b4 altera_avalon_jtag_uart_init
00019504 g     F .text	000000fc OS_TaskStat
00003ef0 g     F .text	00000004 mcapi_trans_pktchan_recv_isopen
00003000 g     F .text	000001dc mcapi_trans_initialize_database
000258e4 g     O .bss	00000004 reentMutex
00020318 g       *ABS*	00000000 __CTOR_LIST__
04000000 g       *ABS*	00000000 __alt_stack_pointer
0001f560 g     F .text	00000030 alt_avalon_timer_sc_init
000185b8 g     F .text	000000ac __clzsi2
0000ea68 g     F .text	000001a4 node1_sendMSG_to_node2_task
00001d3c g     F .text	00000090 mcapi_sclchan_send_uint16
0001f340 g     F .text	000001e4 altera_avalon_jtag_uart_write
00023c1c g     O .rwdata	00000004 mcapi_debug
0000faac g     F .text	00000004 __sfp_lock_acquire
00015204 g     F .text	000000f8 memchr
0001a698 g     F .text	000000d0 OS_MemClr
00009868 g     F .text	000000ac mcapi_trans_pktchan_send
00010ab0 g     F .text	00001df8 ___vfprintf_internal_r
0001fc70 g     F .text	000001cc OSTaskStkInit
0000f318 g     F .text	00000034 pack_get_32
00014760 g     F .text	000002d0 _free_r
00019e40 g     F .text	00000140 OS_EventTaskRdy
0000ccdc g     F .text	00000008 NS_layer_exit
00012aac g     F .text	000001a0 __call_exitprocs
00003cd0 g     F .text	00000104 mcapi_trans_valid_endpoints
000259b4 g     O .bss	00000001 OSCPUUsage
0000f158 g     F .text	0000000c pack_add_8
00025960 g     O .bss	00000004 __mlocale_changed
0000f2f4 g     F .text	00000024 pack_get_u16
00023c28 g     O .rwdata	00000004 __malloc_sbrk_base
00000154 g     F .text	0000003c _start
000259ec g     O .bss	00000004 _alt_tick_rate
0001cba0 g     F .text	00000208 OSQPend
0000c048 g     F .text	00000228 mcapi_trans_msg_recv_i
0001e89c g     F .text	0000008c OSTimeDly
000107e8 g     F .text	00000064 rand
00025914 g     O .bss	00000004 node1_sendMSG_to_node0_thread_flag
00015b6c g     F .text	0000015c __lshift
00005f00 g     F .text	0000031c mcapi_trans_sclchan_recv_open_i
000259e8 g     O .bss	00000004 _alt_nticks
00018fdc g     F .text	000000ec read
0001ed64 g     F .text	00000054 alt_sys_init
00001428 g     F .text	000000b4 mcapi_pktchan_send_i
00020164 g     F .text	00000130 __register_exitproc
000259b5 g     O .bss	00000001 OSTaskCtr
00003514 g     F .text	00000060 mcapi_trans_node_set_attribute
000258d0 g     O .bss	00000004 global_rwl
00007878 g     F .text	0000017c mcapi_trans_cancel
000021b8 g     F .text	000000a8 mcapi_sclchan_send_close_i
00000fb4 g     F .text	000000d8 mcapi_msg_recv_i
0001e928 g     F .text	000002d0 OSTimeDlyHMSM
00001e68 g     F .text	00000094 mcapi_sclchan_recv_uint64
00015860 g     F .text	000001e0 __multiply
000068f0 g     F .text	000002ac setup_request_have_lock
0001f0fc g     F .text	00000048 altera_avalon_jtag_uart_close
000220ec g       *ABS*	00000000 __ram_rwdata_start
00023c18 g     O .rwdata	00000004 my_node_id
00020318 g       *ABS*	00000000 __ram_rodata_start
000259f0 g     O .bss	00000028 __malloc_current_mallinfo
00023cc2 g     O .rwdata	00000002 OSEventMax
00001660 g     F .text	000000d4 mcapi_pktchan_recv
0000f430 g     F .text	00000034 pack_get_flt
00016070 g     F .text	00000144 __d2b
0001d818 g     F .text	000000b0 OSSemPost
000258cc g     O .bss	00000001 locked
00004238 g     F .text	000000f0 mcapi_trans_valid_pktchan_recv_handle
0000dfd4 g     F .text	00000080 PH_FIFO1_ISR
0000524c g     F .text	00000110 mcapi_trans_endpoint_delete
00019b44 g     F .text	00000100 OSSchedUnlock
000258d4 g     O .bss	00000004 DatabaseMutex
00000b1c g     F .text	000000b0 mcapi_endpoint_get_i
0001edb8 g     F .text	00000010 altera_avalon_jtag_uart_read_fd
0001ffa0 g     F .text	000000e4 alt_get_fd
000259b8 g     O .bss	00000004 OSMemFreeList
00019cb4 g     F .text	00000064 OSStatInit
0001f624 g     F .text	00000088 alt_busy_sleep
0001b7b4 g     F .text	0000005c OSFlagQuery
0001898c g     F .text	000000d0 __fpcmp_parts_d
00004cdc g     F .text	00000024 mcapi_trans_endpoint_set_attribute
00002014 g     F .text	00000098 mcapi_sclchan_recv_uint8
00023c8c g     O .rwdata	00000002 OSTaskCreateExtEn
00012c4c g     F .text	00000064 _close_r
0000ec0c g     F .text	00000178 node1_recvMSG_from_node2_task
00005768 g     F .text	0000031c mcapi_trans_pktchan_send_open_i
00025938 g     O .bss	00000004 node1_sendEP_to_node2
000200e8 g     F .text	0000007c memcmp
00019e3c g     F .text	00000004 OS_Dummy
0001edd8 g     F .text	00000010 altera_avalon_jtag_uart_close_fd
0004b93c g       *ABS*	00000000 __alt_stack_base
000017d4 g     F .text	000000a8 mcapi_pktchan_recv_close_i
0001ede8 g     F .text	0000000c altera_avalon_jtag_uart_ioctl_fd
0000fc98 g     F .text	000000a0 _fwrite_r
00012938 g     F .text	00000174 __swsetup_r
00049278 g     O .bss	000001e0 OSQTbl
00017f64 g     F .text	000001b4 __divdf3
0000f9b0 g     F .text	000000fc __sfp
000162cc g     F .text	0000007c __copybits
00003924 g     F .text	00000008 mcapi_trans_valid_domain
000225ec g     O .rwdata	00000408 __malloc_av_
0000fab8 g     F .text	00000004 __sinit_lock_release
0000f198 g     F .text	00000024 pack_add_32
0000f1bc g     F .text	00000024 pack_add_u32
000259bc g     O .bss	00000004 OSTCBHighRdy
00017c80 g     F .text	000002e4 __muldf3
000108b0 g     F .text	00000054 __sread
00000a24 g     F .text	000000f8 mcapi_endpoint_create
000259c0 g     O .bss	00000004 OSQFreeList
0000aa18 g     F .text	00000250 mcapi_trans_pop_queue
0001fef4 g     F .text	000000ac alt_find_file
0000e77c g     F .text	00000004 sys_stop
0001f6b0 g     F .text	0000006c alt_dev_llist_insert
000193c8 g     F .text	000000b0 __malloc_lock
0000faec g     F .text	00000028 _fprintf_r
000190ec g     F .text	0000004c sbrk
00001280 g     F .text	000000d4 mcapi_pktchan_recv_open_i
000196c4 g     F .text	000000d8 OSEventNameSet
0000f5fc g     F .text	000001e8 _fflush_r
00004790 g     F .text	00000020 mcapi_trans_valid_request_handle
00007f00 g     F .text	00000308 mcapi_trans_test_i
00016b3c g     F .text	000000bc _calloc_r
000259c4 g     O .bss	00000001 OSRdyGrp
000220ec g     O .rwdata	00000100 __divsi3_table
000258c4 g       *ABS*	00000000 __bss_start
000105f4 g     F .text	000000dc memset
0000f0b0 g     F .text	000000a8 main
00025970 g     O .bss	00000004 alt_envp
0002594c g     O .bss	00000004 __malloc_max_total_mem
000079f4 g     F .text	0000050c check_receive_request_have_lock
0001edc8 g     F .text	00000010 altera_avalon_jtag_uart_write_fd
000107d0 g     F .text	00000018 srand
00021fec g     O .rodata	00000100 OSUnMapTbl
00023c92 g     O .rwdata	00000002 OSSemEn
0001b4e8 g     F .text	000002cc OSFlagPost
000109e8 g     F .text	00000008 __sclose
04000000 g       *ABS*	00000000 __alt_heap_limit
00007050 g     F .text	00000180 check_open_channel_request_have_lock
00014610 g     F .text	00000014 fclose
00019f80 g     F .text	00000070 OS_EventTaskWait
0001a948 g     F .text	00000094 OS_TaskStatStkChk
0004b7ac g     O .bss	00000190 _atexit0
0001e12c g     F .text	000000b4 OSTaskDelReq
00012eb8 g     F .text	0000161c _dtoa_r
0000fd78 g     F .text	00000784 _malloc_r
0001be08 g     F .text	00000128 OSMutexCreate
0000621c g     F .text	0000031c mcapi_trans_sclchan_send_open_i
00023c48 g     O .rwdata	00000004 alt_errno
0000401c g     F .text	00000124 mcapi_trans_channel_connected
00019c44 g     F .text	00000070 OSStart
000193a0 g     F .text	00000028 __env_unlock
0000fb38 g     F .text	000000a8 _fwalk
0001e444 g     F .text	00000114 OSTaskResume
0001bc30 g     F .text	00000064 OSMemQuery
00023c80 g     O .rwdata	00000002 OSTaskStatEn
0000f164 g     F .text	0000000c pack_add_u8
00003ef4 g     F .text	00000128 mcapi_trans_endpoint_isowner
00023ca6 g     O .rwdata	00000002 OSMemMax
0001cfa8 g     F .text	000000d0 OSQPostFront
0000df54 g     F .text	00000080 PH_FIFO2_ISR
0000f508 g     F .text	00000050 __divsi3
000259c5 g     O .bss	00000006 OSRdyTbl
00023ccc g     O .rwdata	00000002 OSDebugEn
00021e94 g     O .rodata	00000014 __thenan_df
00014624 g     F .text	0000013c _malloc_trim_r
00020318 g       *ABS*	00000000 __CTOR_END__
00023cb4 g     O .rwdata	00000002 OSFlagNodeSize
0000d9d4 g     F .text	00000120 NS_unlock_waiting_request
00023c6c g     O .rwdata	00000002 OSTmrCfgMax
00016a98 g     F .text	000000a4 strcmp
000020ac g     F .text	00000064 mcapi_sclchan_available
0001c890 g     F .text	00000100 OSQCreate
0001e1e0 g     F .text	00000124 OSTaskNameGet
00020318 g       *ABS*	00000000 __flash_rodata_start
0001d078 g     F .text	00000168 OSQPostOpt
00019d18 g     F .text	0000011c OSTimeTick
000258f4 g     O .bss	00000004 semAlmostFull_fifo_2
00023c84 g     O .rwdata	00000002 OSTaskMax
00020318 g       *ABS*	00000000 __DTOR_LIST__
0001d328 g     F .text	0000009c OSSemCreate
00023c60 g     O .rwdata	00000002 OSTmrWheelSize
0001c71c g     F .text	000000c8 OSMutexQuery
00001798 g     F .text	0000003c mcapi_pktchan_release
00018174 g     F .text	0000005c __nedf2
00001f88 g     F .text	0000008c mcapi_sclchan_recv_uint16
00023c8a g     O .rwdata	00000002 OSTaskDelEn
00004140 g     F .text	00000008 mcapi_trans_compatible_endpoint_attributes
0001d8c8 g     F .text	00000088 OSSemQuery
0001c990 g     F .text	000001c0 OSQDel
0001cda8 g     F .text	0000012c OSQPendAbort
0001ed44 g     F .text	00000020 alt_irq_init
000258f8 g     O .bss	00000004 bridge_base_fifo_1
000190c8 g     F .text	00000024 alt_release_fd
00021ea8 g     O .rodata	00000100 __clz_tab
00004508 g     F .text	000000b0 mcapi_trans_initialized
0002595c g     O .bss	00000004 _PathLocale
0002593c g     O .bss	00000004 node2_recvEP_from_node1
0000a0d0 g     F .text	000000a0 mcapi_trans_yield_have_lock
00004328 g     F .text	000000f0 mcapi_trans_valid_sclchan_send_handle
000200d4 g     F .text	00000014 atexit
000128cc g     F .text	0000006c _write_r
00019afc g     F .text	00000048 OSSchedLock
00014fc8 g     F .text	0000001c setlocale
0001accc g     F .text	0000008c OSFlagCreate
00023c24 g     O .rwdata	00000004 _impure_ptr
00025978 g     O .bss	00000004 alt_argc
0000392c g     F .text	000000f0 mcapi_trans_valid_endpoint
0001f780 g     F .text	00000064 _do_dtors
00001c88 g     F .text	000000b4 mcapi_sclchan_send_uint32
00023cba g     O .rwdata	00000002 OSEventMultiEn
00025940 g     O .bss	00000004 node2_sendEP_to_node0
0001ad58 g     F .text	000001e0 OSFlagDel
000259cc g     O .bss	00000004 OSEventFreeList
00000020 g       .exceptions	00000000 alt_irq_entry
00015ec8 g     F .text	00000060 __ulp
00016a34 g     F .text	00000038 __isinfd
0001b10c g     F .text	000003b4 OSFlagPend
00023c6e g     O .rwdata	00000002 OSTmrEn
0000fad4 g     F .text	00000018 __fp_unlock_all
00006b9c g     F .text	00000024 mcapi_trans_decode_request_handle
0000f184 g     F .text	00000014 pack_add_u16
00023c40 g     O .rwdata	00000008 alt_fs_list
00000bcc g     F .text	000000d4 mcapi_endpoint_get
0001a8e4 g     F .text	0000003c OS_StrCopy
0000a93c g     F .text	000000dc mcapi_trans_push_queue
0000bb94 g     F .text	00000110 mcapi_trans_sclchan_recv
00023c14 g     O .rwdata	00000004 my_domain_id
00025944 g     O .bss	00000004 node0_recvEP_from_node1
00023ca4 g     O .rwdata	00000002 OSMemNameSize
0000544c g     F .text	0000031c mcapi_trans_pktchan_recv_open_i
0001fe54 g     F .text	00000004 OSInitHookEnd
00000020 g       *ABS*	00000000 __ram_exceptions_start
00023c78 g     O .rwdata	00000002 OSTCBPrioTblMax
00014fe4 g     F .text	0000000c localeconv
00023c7c g     O .rwdata	00000002 OSTaskStatStkChkEn
000071d0 g     F .text	00000198 check_close_channel_request_have_lock
00006fb4 g     F .text	0000009c mcapi_trans_display_state
00023ca8 g     O .rwdata	00000002 OSMemEn
000258e0 g     O .bss	00000002 nextCallID
00009914 g     F .text	00000498 mcapi_trans_msg_send_i
0000fd38 g     F .text	00000040 fwrite
00023c9e g     O .rwdata	00000002 OSMutexEn
000258fc g     O .bss	00000004 bridge_irq_fifo_1
00002110 g     F .text	000000a8 mcapi_sclchan_recv_close_i
00023cd8 g       *ABS*	00000000 _edata
0000ca20 g     F .text	0000013c NS_getCallID
0000108c g     F .text	000000d4 mcapi_msg_recv
000258dc g     O .bss	00000002 callIDcount
0004b93c g       *ABS*	00000000 _end
00003a1c g     F .text	000001a4 mcapi_trans_endpoint_exists
000259d0 g     O .bss	00000001 OSIntNesting
00000154 g       *ABS*	00000000 __ram_exceptions_end
0000f464 g     F .text	00000030 pack_get_adr
0001f144 g     F .text	00000074 altera_avalon_jtag_uart_ioctl
0001ebf8 g     F .text	00000104 OSTimeDlyResume
0001b01c g     F .text	000000f0 OSFlagNameSet
0001e558 g     F .text	000000fc OSTaskStkChk
00023ca2 g     O .rwdata	00000002 OSMemSize
00010904 g     F .text	00000088 __swrite
00006bc0 g     F .text	000003f4 mcapi_trans_display_state_have_lock
00023c2c g     O .rwdata	00000004 __malloc_trim_threshold
0001fb98 g     F .text	00000008 altera_nios2_qsys_irq_init
000259d4 g     O .bss	00000004 OSTCBCur
0000f5c4 g     F .text	00000038 exit
0000f170 g     F .text	00000014 pack_add_16
0001c500 g     F .text	0000021c OSMutexPost
00023ca0 g     O .rwdata	00000002 OSMemTblSize
0000fbe0 g     F .text	000000b8 _fwalk_reent
0000088c g     F .text	00000060 mcapi_node_set_attribute
00015d20 g     F .text	000001a8 __mdiff
0000f558 g     F .text	0000005c __modsi3
0000a1dc g     F .text	00000068 mcapi_trans_access_database_post
000009d8 g     F .text	0000004c mcapi_node_id_get
0000c8a8 g     F .text	00000028 getIndex
04000000 g       *ABS*	00000000 __alt_data_end
00000020 g     F .exceptions	00000000 alt_exception
000023f0 g     F .text	000000b4 mcapi_wait_any
00004418 g     F .text	000000f0 mcapi_trans_valid_sclchan_recv_handle
0000fab0 g     F .text	00000004 __sfp_lock_release
00025948 g     O .bss	00000004 node0_sendEP_to_node2
0001979c g     F .text	0000022c OSInit
00008620 g     F .text	000001dc mcapi_trans_sclchan_connect_i
00000000 g       *ABS*	00000000 __alt_mem_sdram
0001e79c g     F .text	000000dc OSTaskQuery
0001d290 g     F .text	00000054 OS_QInit
0001a920 g     F .text	00000028 OS_StrLen
0001baec g     F .text	000000e4 OSMemNameSet
0000ac68 g     F .text	000003f8 mcapi_trans_recv_have_lock
00023c86 g     O .rwdata	00000002 OSTaskProfileEn
000259d8 g     O .bss	00000004 OSTime
0000076c g     F .text	00000004 mcapi_set_debug_level
00049458 g     O .bss	00000800 OSTaskIdleStk
00016a6c g     F .text	0000002c __isnand
00018bcc g     F .text	00000020 _exit
0001f590 g     F .text	00000094 alt_alarm_start
0001af38 g     F .text	000000e4 OSFlagNameGet
0001ecfc g     F .text	00000024 OSTimeGet
00016cc4 g     F .text	00000060 __muldi3
0001505c g     F .text	000001a8 __smakebuf_r
000027fc g     F .text	00000020 mcapi_trans_get_domain_num
000398f8 g     O .bss	000001e0 serviceRequest
000047b0 g     F .text	00000008 mcapi_trans_valid_size_param
000109f0 g     F .text	0000008c strlen
0001fe44 g     F .text	00000004 OSTaskSwHook
0001f8f4 g     F .text	0000017c open
00049c58 g     O .bss	00000c30 OSEventTbl
00018234 g     F .text	00000064 __gedf2
0000f3d8 g     F .text	00000058 pack_get_u64
0004a888 g     O .bss	00000d80 OSTCBTbl
0001d950 g     F .text	0000006c OSSemSet
000049b0 g     F .text	000001d8 mcapi_trans_endpoint_create_
0001f7e4 g     F .text	0000000c alt_icache_flush_all
0000d3b0 g     F .text	000002c0 NS_endpointChannelIsopen_request
00023c4c g     O .rwdata	00000004 alt_priority_mask
0001d3c4 g     F .text	00000190 OSSemDel
00008484 g     F .text	0000007c mcapi_trans_endpoint_get
000259dc g     O .bss	00000004 OSFlagFreeList
00005c3c g     F .text	000002c4 mcapi_trans_pktchan_send_close_i
00000774 g     F .text	000000c0 mcapi_initialize
00023cc0 g     O .rwdata	00000002 OSEventNameSize
000128a8 g     F .text	00000024 __vfprintf_internal
000259e0 g     O .bss	00000001 OSStatRdy
00007368 g     F .text	00000254 check_get_endpt_request_have_lock
0004b608 g     O .bss	000000a4 OSTCBPrioTbl
00019310 g     F .text	00000090 __env_lock
00023c7a g     O .rwdata	00000002 OSTaskSwHookEn
0000ed84 g     F .text	00000178 node1_recvMSG_from_node0_task
00017c20 g     F .text	00000060 __subdf3
00025900 g     O .bss	00000004 bridge_irq_fifo_2
0000c330 g     F .text	000001e8 mcapi_trans_pktchan_recv_i
00003ee4 g     F .text	00000004 mcapi_trans_sclchan_send_isopen
00015774 g     F .text	000000b0 __lo0bits
0000f2c4 g     F .text	0000000c pack_get_u8
00023cd0 g     O .rwdata	00000008 alt_alarm_list
00001734 g     F .text	00000064 mcapi_pktchan_available
00023cb2 g     O .rwdata	00000002 OSFlagWidth
00000d48 g     F .text	000000a0 mcapi_endpoint_get_attribute
0001f71c g     F .text	00000064 _do_ctors
0000f34c g     F .text	00000034 pack_get_u32
00018ae4 g     F .text	000000e0 close
00025980 g     O .bss	00000004 alt_envsem
000259e4 g     O .bss	00000004 OSIdleCtrRun
00008390 g     F .text	000000f4 mcapi_trans_wait
00019e34 g     F .text	00000008 OSVersion
00023c68 g     O .rwdata	00000002 OSTmrCfgWheelSize
00018d9c g     F .text	00000114 alt_load
0001e878 g     F .text	00000024 OS_TaskStkClr
00018664 g     F .text	00000224 __pack_d
00023c8e g     O .rwdata	00000002 OSTaskCreateEn
0001a64c g     F .text	0000004c OS_EventWaitListInit
0000f220 g     F .text	00000040 pack_add_u64
0001fe58 g     F .text	00000004 OSTaskIdleHook
00000000  w      *UND*	00000000 free
0000fab4 g     F .text	00000004 __sinit_lock_acquire
00004778 g     F .text	00000008 mcapi_trans_valid_status_param
00000de8 g     F .text	000000c8 mcapi_msg_send_i
000154f4 g     F .text	00000114 __multadd
000154cc g     F .text	00000028 _Bfree
0001e654 g     F .text	00000148 OSTaskSuspend
000258d8 g     O .bss	00000004 mcapi_db
00002900 g     F .text	000000a0 mcapi_trans_reserve_request_have_lock
000194d0 g     F .text	00000034 OS_TaskIdle
00023c62 g     O .rwdata	00000002 OSTmrTblSize
0001d1e0 g     F .text	000000b0 OSQQuery



Disassembly of section .entry:

00000000 <__reset>:
   0:	00840014 	movui	r2,4096
   4:	1001483a 	initi	r2
   8:	10bff804 	addi	r2,r2,-32
   c:	00bffd16 	blt	zero,r2,4 <__reset+0x4>
  10:	00400034 	movhi	at,0
  14:	08405514 	ori	at,at,340
  18:	0800683a 	jmp	at
  1c:	00000000 	call	0 <__reset>

Disassembly of section .exceptions:

00000020 <alt_exception>:
  20:	deffed04 	addi	sp,sp,-76
  24:	dfc00015 	stw	ra,0(sp)
  28:	d8400215 	stw	at,8(sp)
  2c:	d8800315 	stw	r2,12(sp)
  30:	d8c00415 	stw	r3,16(sp)
  34:	d9000515 	stw	r4,20(sp)
  38:	d9400615 	stw	r5,24(sp)
  3c:	d9800715 	stw	r6,28(sp)
  40:	d9c00815 	stw	r7,32(sp)
  44:	000b307a 	rdctl	r5,estatus
  48:	da000915 	stw	r8,36(sp)
  4c:	da400a15 	stw	r9,40(sp)
  50:	da800b15 	stw	r10,44(sp)
  54:	dac00c15 	stw	r11,48(sp)
  58:	db000d15 	stw	r12,52(sp)
  5c:	db400e15 	stw	r13,56(sp)
  60:	db800f15 	stw	r14,60(sp)
  64:	dbc01015 	stw	r15,64(sp)
  68:	d9401115 	stw	r5,68(sp)
  6c:	ebffff04 	addi	r15,ea,-4
  70:	dbc01215 	stw	r15,72(sp)
  74:	0009313a 	rdctl	r4,ipending
  78:	2880004c 	andi	r2,r5,1
  7c:	10000326 	beq	r2,zero,8c <OSCtxSw_SWITCH_PC+0x4c>
  80:	20000226 	beq	r4,zero,8c <OSCtxSw_SWITCH_PC+0x4c>
  84:	00000ec0 	call	ec <alt_irq_handler>
  88:	00000306 	br	98 <alt_exception_unknown+0x4>
  8c:	df401215 	stw	ea,72(sp)
  90:	e8bfff17 	ldw	r2,-4(ea)

00000094 <alt_exception_unknown>:
  94:	003da03a 	break	0
  98:	d9401117 	ldw	r5,68(sp)
  9c:	df401217 	ldw	ea,72(sp)
  a0:	dfc00017 	ldw	ra,0(sp)
  a4:	2801707a 	wrctl	estatus,r5
  a8:	d8400217 	ldw	at,8(sp)
  ac:	d8800317 	ldw	r2,12(sp)
  b0:	d8c00417 	ldw	r3,16(sp)
  b4:	d9000517 	ldw	r4,20(sp)
  b8:	d9400617 	ldw	r5,24(sp)
  bc:	d9800717 	ldw	r6,28(sp)
  c0:	d9c00817 	ldw	r7,32(sp)
  c4:	da000917 	ldw	r8,36(sp)
  c8:	da400a17 	ldw	r9,40(sp)
  cc:	da800b17 	ldw	r10,44(sp)
  d0:	dac00c17 	ldw	r11,48(sp)
  d4:	db000d17 	ldw	r12,52(sp)
  d8:	db400e17 	ldw	r13,56(sp)
  dc:	db800f17 	ldw	r14,60(sp)
  e0:	dbc01017 	ldw	r15,64(sp)
  e4:	dec01304 	addi	sp,sp,76
  e8:	ef80083a 	eret

000000ec <alt_irq_handler>:
  ec:	defffe04 	addi	sp,sp,-8
  f0:	dfc00115 	stw	ra,4(sp)
  f4:	dc000015 	stw	r16,0(sp)
  f8:	00199c80 	call	199c8 <OSIntEnter>
  fc:	0009313a 	rdctl	r4,ipending
 100:	04000174 	movhi	r16,5
 104:	842dab04 	addi	r16,r16,-18772
 108:	2080004c 	andi	r2,r4,1
 10c:	000b883a 	mov	r5,zero
 110:	1000051e 	bne	r2,zero,128 <alt_irq_handler+0x3c>
 114:	00800044 	movi	r2,1
 118:	1085883a 	add	r2,r2,r2
 11c:	2086703a 	and	r3,r4,r2
 120:	29400044 	addi	r5,r5,1
 124:	183ffc26 	beq	r3,zero,118 <alt_irq_handler+0x2c>
 128:	280490fa 	slli	r2,r5,3
 12c:	8085883a 	add	r2,r16,r2
 130:	10c00017 	ldw	r3,0(r2)
 134:	11000117 	ldw	r4,4(r2)
 138:	183ee83a 	callr	r3
 13c:	0009313a 	rdctl	r4,ipending
 140:	203ff11e 	bne	r4,zero,108 <alt_irq_handler+0x1c>
 144:	dfc00117 	ldw	ra,4(sp)
 148:	dc000017 	ldw	r16,0(sp)
 14c:	dec00204 	addi	sp,sp,8
 150:	0019a081 	jmpi	19a08 <OSIntExit>

Disassembly of section .text:

00000154 <_start>:
     154:	06c10034 	movhi	sp,1024
     158:	dec00014 	ori	sp,sp,0
     15c:	068000b4 	movhi	gp,2
     160:	d6af0514 	ori	gp,gp,48148
     164:	008000b4 	movhi	r2,2
     168:	10963114 	ori	r2,r2,22724
     16c:	00c00134 	movhi	r3,4
     170:	18ee4f14 	ori	r3,r3,47420
     174:	10c00326 	beq	r2,r3,184 <_start+0x30>
     178:	10000015 	stw	zero,0(r2)
     17c:	10800104 	addi	r2,r2,4
     180:	10fffd36 	bltu	r2,r3,178 <_start+0x24>
     184:	0018d9c0 	call	18d9c <alt_load>
     188:	0018f340 	call	18f34 <alt_main>

0000018c <alt_after_alt_main>:
     18c:	003fff06 	br	18c <alt_after_alt_main>

00000190 <mcapi_display_status>:
     190:	defffd04 	addi	sp,sp,-12
     194:	dc400115 	stw	r17,4(sp)
     198:	dc000015 	stw	r16,0(sp)
     19c:	dfc00215 	stw	ra,8(sp)
     1a0:	008007c4 	movi	r2,31
     1a4:	2023883a 	mov	r17,r4
     1a8:	2821883a 	mov	r16,r5
     1ac:	11804b2e 	bgeu	r2,r6,2dc <mcapi_display_status+0x14c>
     1b0:	28004a26 	beq	r5,zero,2dc <mcapi_display_status+0x14c>
     1b4:	2809883a 	mov	r4,r5
     1b8:	000b883a 	mov	r5,zero
     1bc:	00105f40 	call	105f4 <memset>
     1c0:	00800bc4 	movi	r2,47
     1c4:	14400e2e 	bgeu	r2,r17,200 <mcapi_display_status+0x70>
     1c8:	00c01544 	movi	r3,85
     1cc:	80c00005 	stb	r3,0(r16)
     1d0:	00c012c4 	movi	r3,75
     1d4:	80c00085 	stb	r3,2(r16)
     1d8:	00c013c4 	movi	r3,79
     1dc:	00801384 	movi	r2,78
     1e0:	80c00105 	stb	r3,4(r16)
     1e4:	00c015c4 	movi	r3,87
     1e8:	80800045 	stb	r2,1(r16)
     1ec:	808000c5 	stb	r2,3(r16)
     1f0:	80c00145 	stb	r3,5(r16)
     1f4:	80800185 	stb	r2,6(r16)
     1f8:	800001c5 	stb	zero,7(r16)
     1fc:	00003f06 	br	2fc <mcapi_display_status+0x16c>
     200:	8c63883a 	add	r17,r17,r17
     204:	00800034 	movhi	r2,0
     208:	10808704 	addi	r2,r2,540
     20c:	8c63883a 	add	r17,r17,r17
     210:	88a3883a 	add	r17,r17,r2
     214:	88800017 	ldw	r2,0(r17)
     218:	1000683a 	jmp	r2
     21c:	000001c8 	cmpgei	zero,zero,7
     220:	00000314 	movui	zero,12
     224:	00000374 	movhi	zero,13
     228:	000003d8 	cmpnei	zero,zero,15
     22c:	0000043c 	xorhi	zero,zero,16
     230:	00000460 	cmpeqi	zero,zero,17
     234:	00000474 	movhi	zero,17
     238:	00000488 	cmpgei	zero,zero,18
     23c:	0000049c 	xori	zero,zero,18
     240:	000004b0 	cmpltui	zero,zero,18
     244:	000004c4 	movi	zero,19
     248:	000004d8 	cmpnei	zero,zero,19
     24c:	000004ec 	andhi	zero,zero,19
     250:	00000500 	call	50 <OSCtxSw_SWITCH_PC+0x10>
     254:	000001c8 	cmpgei	zero,zero,7
     258:	000001c8 	cmpgei	zero,zero,7
     25c:	00000514 	movui	zero,20
     260:	00000528 	cmpgeui	zero,zero,20
     264:	0000053c 	xorhi	zero,zero,20
     268:	00000550 	cmplti	zero,zero,21
     26c:	00000564 	muli	zero,zero,21
     270:	00000578 	rdprs	zero,zero,21
     274:	0000058c 	andi	zero,zero,22
     278:	000005a0 	cmpeqi	zero,zero,22
     27c:	000005b4 	movhi	zero,22
     280:	000005c8 	cmpgei	zero,zero,23
     284:	000005dc 	xori	zero,zero,23
     288:	000005f0 	cmpltui	zero,zero,23
     28c:	00000604 	movi	zero,24
     290:	00000618 	cmpnei	zero,zero,24
     294:	0000062c 	andhi	zero,zero,24
     298:	00000640 	call	64 <OSCtxSw_SWITCH_PC+0x24>
     29c:	00000654 	movui	zero,25
     2a0:	00000668 	cmpgeui	zero,zero,25
     2a4:	0000067c 	xorhi	zero,zero,25
     2a8:	00000690 	cmplti	zero,zero,26
     2ac:	000006a4 	muli	zero,zero,26
     2b0:	000006b8 	rdprs	zero,zero,26
     2b4:	000006cc 	andi	zero,zero,27
     2b8:	000006e0 	cmpeqi	zero,zero,27
     2bc:	000006f4 	movhi	zero,27
     2c0:	00000708 	cmpgei	zero,zero,28
     2c4:	0000071c 	xori	zero,zero,28
     2c8:	00000730 	cmpltui	zero,zero,28
     2cc:	000001c8 	cmpgei	zero,zero,7
     2d0:	00000744 	movi	zero,29
     2d4:	000001c8 	cmpgei	zero,zero,7
     2d8:	00000758 	cmpnei	zero,zero,29
     2dc:	008000b4 	movhi	r2,2
     2e0:	108f0904 	addi	r2,r2,15396
     2e4:	10800017 	ldw	r2,0(r2)
     2e8:	014000b4 	movhi	r5,2
     2ec:	2940c604 	addi	r5,r5,792
     2f0:	01800804 	movi	r6,32
     2f4:	11000317 	ldw	r4,12(r2)
     2f8:	000fb140 	call	fb14 <fprintf>
     2fc:	8005883a 	mov	r2,r16
     300:	dfc00217 	ldw	ra,8(sp)
     304:	dc400117 	ldw	r17,4(sp)
     308:	dc000017 	ldw	r16,0(sp)
     30c:	dec00304 	addi	sp,sp,12
     310:	f800283a 	ret
     314:	01001344 	movi	r4,77
     318:	81000005 	stb	r4,0(r16)
     31c:	01001044 	movi	r4,65
     320:	81000085 	stb	r4,2(r16)
     324:	01001404 	movi	r4,80
     328:	810000c5 	stb	r4,3(r16)
     32c:	01001244 	movi	r4,73
     330:	00c010c4 	movi	r3,67
     334:	81000105 	stb	r4,4(r16)
     338:	010017c4 	movi	r4,95
     33c:	008014c4 	movi	r2,83
     340:	80c00045 	stb	r3,1(r16)
     344:	81000145 	stb	r4,5(r16)
     348:	80c00205 	stb	r3,8(r16)
     34c:	01001544 	movi	r4,85
     350:	80c00245 	stb	r3,9(r16)
     354:	00c01144 	movi	r3,69
     358:	80800185 	stb	r2,6(r16)
     35c:	810001c5 	stb	r4,7(r16)
     360:	80c00285 	stb	r3,10(r16)
     364:	808002c5 	stb	r2,11(r16)
     368:	80800305 	stb	r2,12(r16)
     36c:	80000345 	stb	zero,13(r16)
     370:	003fe206 	br	2fc <mcapi_display_status+0x16c>
     374:	01401344 	movi	r5,77
     378:	01001404 	movi	r4,80
     37c:	81400005 	stb	r5,0(r16)
     380:	014010c4 	movi	r5,67
     384:	00801384 	movi	r2,78
     388:	81400045 	stb	r5,1(r16)
     38c:	810000c5 	stb	r4,3(r16)
     390:	01401044 	movi	r5,65
     394:	81000185 	stb	r4,6(r16)
     398:	01001144 	movi	r4,69
     39c:	00c01244 	movi	r3,73
     3a0:	81400085 	stb	r5,2(r16)
     3a4:	810001c5 	stb	r4,7(r16)
     3a8:	014017c4 	movi	r5,95
     3ac:	80800205 	stb	r2,8(r16)
     3b0:	01001104 	movi	r4,68
     3b4:	808002c5 	stb	r2,11(r16)
     3b8:	008011c4 	movi	r2,71
     3bc:	80c00105 	stb	r3,4(r16)
     3c0:	81400145 	stb	r5,5(r16)
     3c4:	81000245 	stb	r4,9(r16)
     3c8:	80c00285 	stb	r3,10(r16)
     3cc:	80800305 	stb	r2,12(r16)
     3d0:	80000345 	stb	zero,13(r16)
     3d4:	003fc906 	br	2fc <mcapi_display_status+0x16c>
     3d8:	00c01344 	movi	r3,77
     3dc:	014010c4 	movi	r5,67
     3e0:	80c00005 	stb	r3,0(r16)
     3e4:	81400045 	stb	r5,1(r16)
     3e8:	80c00205 	stb	r3,8(r16)
     3ec:	01401044 	movi	r5,65
     3f0:	00c01144 	movi	r3,69
     3f4:	81400085 	stb	r5,2(r16)
     3f8:	80c00245 	stb	r3,9(r16)
     3fc:	01401404 	movi	r5,80
     400:	00c013c4 	movi	r3,79
     404:	01001244 	movi	r4,73
     408:	00801504 	movi	r2,84
     40c:	814000c5 	stb	r5,3(r16)
     410:	80c00285 	stb	r3,10(r16)
     414:	014017c4 	movi	r5,95
     418:	00c01544 	movi	r3,85
     41c:	81000105 	stb	r4,4(r16)
     420:	81400145 	stb	r5,5(r16)
     424:	80800185 	stb	r2,6(r16)
     428:	810001c5 	stb	r4,7(r16)
     42c:	80c002c5 	stb	r3,11(r16)
     430:	80800305 	stb	r2,12(r16)
     434:	80000345 	stb	zero,13(r16)
     438:	003fb006 	br	2fc <mcapi_display_status+0x16c>
     43c:	8009883a 	mov	r4,r16
     440:	014000b4 	movhi	r5,2
     444:	2940e004 	addi	r5,r5,896
     448:	01800504 	movi	r6,20
     44c:	dfc00217 	ldw	ra,8(sp)
     450:	dc400117 	ldw	r17,4(sp)
     454:	dc000017 	ldw	r16,0(sp)
     458:	dec00304 	addi	sp,sp,12
     45c:	00104fc1 	jmpi	104fc <memcpy>
     460:	8009883a 	mov	r4,r16
     464:	014000b4 	movhi	r5,2
     468:	2940e504 	addi	r5,r5,916
     46c:	01800644 	movi	r6,25
     470:	003ff606 	br	44c <mcapi_display_status+0x2bc>
     474:	8009883a 	mov	r4,r16
     478:	014000b4 	movhi	r5,2
     47c:	2940ec04 	addi	r5,r5,944
     480:	018005c4 	movi	r6,23
     484:	003ff106 	br	44c <mcapi_display_status+0x2bc>
     488:	8009883a 	mov	r4,r16
     48c:	014000b4 	movhi	r5,2
     490:	2940f204 	addi	r5,r5,968
     494:	01800684 	movi	r6,26
     498:	003fec06 	br	44c <mcapi_display_status+0x2bc>
     49c:	8009883a 	mov	r4,r16
     4a0:	014000b4 	movhi	r5,2
     4a4:	2940f904 	addi	r5,r5,996
     4a8:	018006c4 	movi	r6,27
     4ac:	003fe706 	br	44c <mcapi_display_status+0x2bc>
     4b0:	8009883a 	mov	r4,r16
     4b4:	014000b4 	movhi	r5,2
     4b8:	29410004 	addi	r5,r5,1024
     4bc:	018005c4 	movi	r6,23
     4c0:	003fe206 	br	44c <mcapi_display_status+0x2bc>
     4c4:	8009883a 	mov	r4,r16
     4c8:	014000b4 	movhi	r5,2
     4cc:	29410604 	addi	r5,r5,1048
     4d0:	018006c4 	movi	r6,27
     4d4:	003fdd06 	br	44c <mcapi_display_status+0x2bc>
     4d8:	8009883a 	mov	r4,r16
     4dc:	014000b4 	movhi	r5,2
     4e0:	29410d04 	addi	r5,r5,1076
     4e4:	01800484 	movi	r6,18
     4e8:	003fd806 	br	44c <mcapi_display_status+0x2bc>
     4ec:	8009883a 	mov	r4,r16
     4f0:	014000b4 	movhi	r5,2
     4f4:	29411204 	addi	r5,r5,1096
     4f8:	018005c4 	movi	r6,23
     4fc:	003fd306 	br	44c <mcapi_display_status+0x2bc>
     500:	8009883a 	mov	r4,r16
     504:	014000b4 	movhi	r5,2
     508:	29412404 	addi	r5,r5,1168
     50c:	01800584 	movi	r6,22
     510:	003fce06 	br	44c <mcapi_display_status+0x2bc>
     514:	8009883a 	mov	r4,r16
     518:	014000b4 	movhi	r5,2
     51c:	29412a04 	addi	r5,r5,1192
     520:	01800604 	movi	r6,24
     524:	003fc906 	br	44c <mcapi_display_status+0x2bc>
     528:	8009883a 	mov	r4,r16
     52c:	014000b4 	movhi	r5,2
     530:	29413004 	addi	r5,r5,1216
     534:	01800584 	movi	r6,22
     538:	003fc406 	br	44c <mcapi_display_status+0x2bc>
     53c:	8009883a 	mov	r4,r16
     540:	014000b4 	movhi	r5,2
     544:	29411804 	addi	r5,r5,1120
     548:	018005c4 	movi	r6,23
     54c:	003fbf06 	br	44c <mcapi_display_status+0x2bc>
     550:	8009883a 	mov	r4,r16
     554:	014000b4 	movhi	r5,2
     558:	29411e04 	addi	r5,r5,1144
     55c:	01800544 	movi	r6,21
     560:	003fba06 	br	44c <mcapi_display_status+0x2bc>
     564:	8009883a 	mov	r4,r16
     568:	014000b4 	movhi	r5,2
     56c:	29413604 	addi	r5,r5,1240
     570:	01800704 	movi	r6,28
     574:	003fb506 	br	44c <mcapi_display_status+0x2bc>
     578:	8009883a 	mov	r4,r16
     57c:	014000b4 	movhi	r5,2
     580:	29413d04 	addi	r5,r5,1268
     584:	01800504 	movi	r6,20
     588:	003fb006 	br	44c <mcapi_display_status+0x2bc>
     58c:	8009883a 	mov	r4,r16
     590:	014000b4 	movhi	r5,2
     594:	29414204 	addi	r5,r5,1288
     598:	018004c4 	movi	r6,19
     59c:	003fab06 	br	44c <mcapi_display_status+0x2bc>
     5a0:	8009883a 	mov	r4,r16
     5a4:	014000b4 	movhi	r5,2
     5a8:	29414704 	addi	r5,r5,1308
     5ac:	01800544 	movi	r6,21
     5b0:	003fa606 	br	44c <mcapi_display_status+0x2bc>
     5b4:	8009883a 	mov	r4,r16
     5b8:	014000b4 	movhi	r5,2
     5bc:	29414d04 	addi	r5,r5,1332
     5c0:	01800704 	movi	r6,28
     5c4:	003fa106 	br	44c <mcapi_display_status+0x2bc>
     5c8:	8009883a 	mov	r4,r16
     5cc:	014000b4 	movhi	r5,2
     5d0:	29415404 	addi	r5,r5,1360
     5d4:	01800604 	movi	r6,24
     5d8:	003f9c06 	br	44c <mcapi_display_status+0x2bc>
     5dc:	8009883a 	mov	r4,r16
     5e0:	014000b4 	movhi	r5,2
     5e4:	29415a04 	addi	r5,r5,1384
     5e8:	01800504 	movi	r6,20
     5ec:	003f9706 	br	44c <mcapi_display_status+0x2bc>
     5f0:	8009883a 	mov	r4,r16
     5f4:	014000b4 	movhi	r5,2
     5f8:	29415f04 	addi	r5,r5,1404
     5fc:	01800604 	movi	r6,24
     600:	003f9206 	br	44c <mcapi_display_status+0x2bc>
     604:	8009883a 	mov	r4,r16
     608:	014000b4 	movhi	r5,2
     60c:	29417b04 	addi	r5,r5,1516
     610:	01800504 	movi	r6,20
     614:	003f8d06 	br	44c <mcapi_display_status+0x2bc>
     618:	8009883a 	mov	r4,r16
     61c:	014000b4 	movhi	r5,2
     620:	29418004 	addi	r5,r5,1536
     624:	01800504 	movi	r6,20
     628:	003f8806 	br	44c <mcapi_display_status+0x2bc>
     62c:	8009883a 	mov	r4,r16
     630:	014000b4 	movhi	r5,2
     634:	29419304 	addi	r5,r5,1612
     638:	01800644 	movi	r6,25
     63c:	003f8306 	br	44c <mcapi_display_status+0x2bc>
     640:	8009883a 	mov	r4,r16
     644:	014000b4 	movhi	r5,2
     648:	29418504 	addi	r5,r5,1556
     64c:	01800644 	movi	r6,25
     650:	003f7e06 	br	44c <mcapi_display_status+0x2bc>
     654:	8009883a 	mov	r4,r16
     658:	014000b4 	movhi	r5,2
     65c:	29418c04 	addi	r5,r5,1584
     660:	018006c4 	movi	r6,27
     664:	003f7906 	br	44c <mcapi_display_status+0x2bc>
     668:	8009883a 	mov	r4,r16
     66c:	014000b4 	movhi	r5,2
     670:	29419a04 	addi	r5,r5,1640
     674:	018005c4 	movi	r6,23
     678:	003f7406 	br	44c <mcapi_display_status+0x2bc>
     67c:	8009883a 	mov	r4,r16
     680:	014000b4 	movhi	r5,2
     684:	2941a004 	addi	r5,r5,1664
     688:	018005c4 	movi	r6,23
     68c:	003f6f06 	br	44c <mcapi_display_status+0x2bc>
     690:	8009883a 	mov	r4,r16
     694:	014000b4 	movhi	r5,2
     698:	2941ad04 	addi	r5,r5,1716
     69c:	01800504 	movi	r6,20
     6a0:	003f6a06 	br	44c <mcapi_display_status+0x2bc>
     6a4:	8009883a 	mov	r4,r16
     6a8:	014000b4 	movhi	r5,2
     6ac:	2941b804 	addi	r5,r5,1760
     6b0:	018004c4 	movi	r6,19
     6b4:	003f6506 	br	44c <mcapi_display_status+0x2bc>
     6b8:	8009883a 	mov	r4,r16
     6bc:	014000b4 	movhi	r5,2
     6c0:	29416504 	addi	r5,r5,1428
     6c4:	018005c4 	movi	r6,23
     6c8:	003f6006 	br	44c <mcapi_display_status+0x2bc>
     6cc:	8009883a 	mov	r4,r16
     6d0:	014000b4 	movhi	r5,2
     6d4:	29417604 	addi	r5,r5,1496
     6d8:	018004c4 	movi	r6,19
     6dc:	003f5b06 	br	44c <mcapi_display_status+0x2bc>
     6e0:	8009883a 	mov	r4,r16
     6e4:	014000b4 	movhi	r5,2
     6e8:	2941b204 	addi	r5,r5,1736
     6ec:	01800584 	movi	r6,22
     6f0:	003f5606 	br	44c <mcapi_display_status+0x2bc>
     6f4:	8009883a 	mov	r4,r16
     6f8:	014000b4 	movhi	r5,2
     6fc:	29416b04 	addi	r5,r5,1452
     700:	01800504 	movi	r6,20
     704:	003f5106 	br	44c <mcapi_display_status+0x2bc>
     708:	8009883a 	mov	r4,r16
     70c:	014000b4 	movhi	r5,2
     710:	2941a604 	addi	r5,r5,1688
     714:	01800684 	movi	r6,26
     718:	003f4c06 	br	44c <mcapi_display_status+0x2bc>
     71c:	8009883a 	mov	r4,r16
     720:	014000b4 	movhi	r5,2
     724:	29417004 	addi	r5,r5,1472
     728:	01800604 	movi	r6,24
     72c:	003f4706 	br	44c <mcapi_display_status+0x2bc>
     730:	8009883a 	mov	r4,r16
     734:	014000b4 	movhi	r5,2
     738:	2941bd04 	addi	r5,r5,1780
     73c:	01800704 	movi	r6,28
     740:	003f4206 	br	44c <mcapi_display_status+0x2bc>
     744:	8009883a 	mov	r4,r16
     748:	014000b4 	movhi	r5,2
     74c:	2941c404 	addi	r5,r5,1808
     750:	01800484 	movi	r6,18
     754:	003f3d06 	br	44c <mcapi_display_status+0x2bc>
     758:	8009883a 	mov	r4,r16
     75c:	014000b4 	movhi	r5,2
     760:	2941c904 	addi	r5,r5,1828
     764:	01800544 	movi	r6,21
     768:	003f3806 	br	44c <mcapi_display_status+0x2bc>

0000076c <mcapi_set_debug_level>:
     76c:	f800283a 	ret

00000770 <mcapi_display_state>:
     770:	0006fb41 	jmpi	6fb4 <mcapi_trans_display_state>

00000774 <mcapi_initialize>:
     774:	defffb04 	addi	sp,sp,-20
     778:	dc000015 	stw	r16,0(sp)
     77c:	dc000617 	ldw	r16,24(sp)
     780:	dcc00315 	stw	r19,12(sp)
     784:	dc800215 	stw	r18,8(sp)
     788:	dc400115 	stw	r17,4(sp)
     78c:	dfc00415 	stw	ra,16(sp)
     790:	008001c4 	movi	r2,7
     794:	2025883a 	mov	r18,r4
     798:	80800015 	stw	r2,0(r16)
     79c:	2809883a 	mov	r4,r5
     7a0:	2823883a 	mov	r17,r5
     7a4:	3027883a 	mov	r19,r6
     7a8:	000391c0 	call	391c <mcapi_trans_valid_node>
     7ac:	10803fcc 	andi	r2,r2,255
     7b0:	1000091e 	bne	r2,zero,7d8 <mcapi_initialize+0x64>
     7b4:	00800184 	movi	r2,6
     7b8:	80800015 	stw	r2,0(r16)
     7bc:	dfc00417 	ldw	ra,16(sp)
     7c0:	dcc00317 	ldw	r19,12(sp)
     7c4:	dc800217 	ldw	r18,8(sp)
     7c8:	dc400117 	ldw	r17,4(sp)
     7cc:	dc000017 	ldw	r16,0(sp)
     7d0:	dec00504 	addi	sp,sp,20
     7d4:	f800283a 	ret
     7d8:	9009883a 	mov	r4,r18
     7dc:	880b883a 	mov	r5,r17
     7e0:	00045080 	call	4508 <mcapi_trans_initialized>
     7e4:	10803fcc 	andi	r2,r2,255
     7e8:	10000926 	beq	r2,zero,810 <mcapi_initialize+0x9c>
     7ec:	00800204 	movi	r2,8
     7f0:	80800015 	stw	r2,0(r16)
     7f4:	dfc00417 	ldw	ra,16(sp)
     7f8:	dcc00317 	ldw	r19,12(sp)
     7fc:	dc800217 	ldw	r18,8(sp)
     800:	dc400117 	ldw	r17,4(sp)
     804:	dc000017 	ldw	r16,0(sp)
     808:	dec00504 	addi	sp,sp,20
     80c:	f800283a 	ret
     810:	9009883a 	mov	r4,r18
     814:	880b883a 	mov	r5,r17
     818:	980d883a 	mov	r6,r19
     81c:	0002a4c0 	call	2a4c <mcapi_trans_initialize>
     820:	10803fcc 	andi	r2,r2,255
     824:	103fe526 	beq	r2,zero,7bc <mcapi_initialize+0x48>
     828:	00800044 	movi	r2,1
     82c:	80800015 	stw	r2,0(r16)
     830:	003fe206 	br	7bc <mcapi_initialize+0x48>

00000834 <mcapi_node_init_attributes>:
     834:	defffe04 	addi	sp,sp,-8
     838:	00800b44 	movi	r2,45
     83c:	dc000015 	stw	r16,0(sp)
     840:	dfc00115 	stw	ra,4(sp)
     844:	28800015 	stw	r2,0(r5)
     848:	2821883a 	mov	r16,r5
     84c:	20000926 	beq	r4,zero,874 <mcapi_node_init_attributes+0x40>
     850:	00031dc0 	call	31dc <mcapi_trans_node_init_attributes>
     854:	10803fcc 	andi	r2,r2,255
     858:	10000226 	beq	r2,zero,864 <mcapi_node_init_attributes+0x30>
     85c:	00800044 	movi	r2,1
     860:	80800015 	stw	r2,0(r16)
     864:	dfc00117 	ldw	ra,4(sp)
     868:	dc000017 	ldw	r16,0(sp)
     86c:	dec00204 	addi	sp,sp,8
     870:	f800283a 	ret
     874:	00800104 	movi	r2,4
     878:	28800015 	stw	r2,0(r5)
     87c:	dfc00117 	ldw	ra,4(sp)
     880:	dc000017 	ldw	r16,0(sp)
     884:	dec00204 	addi	sp,sp,8
     888:	f800283a 	ret

0000088c <mcapi_node_set_attribute>:
     88c:	defffd04 	addi	sp,sp,-12
     890:	dc000115 	stw	r16,4(sp)
     894:	dc000317 	ldw	r16,12(sp)
     898:	dfc00215 	stw	ra,8(sp)
     89c:	00800b44 	movi	r2,45
     8a0:	80800015 	stw	r2,0(r16)
     8a4:	20000b26 	beq	r4,zero,8d4 <mcapi_node_set_attribute+0x48>
     8a8:	30000a26 	beq	r6,zero,8d4 <mcapi_node_set_attribute+0x48>
     8ac:	dc000015 	stw	r16,0(sp)
     8b0:	00035140 	call	3514 <mcapi_trans_node_set_attribute>
     8b4:	10803fcc 	andi	r2,r2,255
     8b8:	10000226 	beq	r2,zero,8c4 <mcapi_node_set_attribute+0x38>
     8bc:	00800044 	movi	r2,1
     8c0:	80800015 	stw	r2,0(r16)
     8c4:	dfc00217 	ldw	ra,8(sp)
     8c8:	dc000117 	ldw	r16,4(sp)
     8cc:	dec00304 	addi	sp,sp,12
     8d0:	f800283a 	ret
     8d4:	00800104 	movi	r2,4
     8d8:	80800015 	stw	r2,0(r16)
     8dc:	dfc00217 	ldw	ra,8(sp)
     8e0:	dc000117 	ldw	r16,4(sp)
     8e4:	dec00304 	addi	sp,sp,12
     8e8:	f800283a 	ret

000008ec <mcapi_node_get_attribute>:
     8ec:	defffc04 	addi	sp,sp,-16
     8f0:	dc000215 	stw	r16,8(sp)
     8f4:	dc000517 	ldw	r16,20(sp)
     8f8:	dfc00315 	stw	ra,12(sp)
     8fc:	00800b44 	movi	r2,45
     900:	80800015 	stw	r2,0(r16)
     904:	38000c26 	beq	r7,zero,938 <mcapi_node_get_attribute+0x4c>
     908:	d8800417 	ldw	r2,16(sp)
     90c:	dc000115 	stw	r16,4(sp)
     910:	d8800015 	stw	r2,0(sp)
     914:	00031f40 	call	31f4 <mcapi_trans_node_get_attribute>
     918:	10803fcc 	andi	r2,r2,255
     91c:	10000226 	beq	r2,zero,928 <mcapi_node_get_attribute+0x3c>
     920:	00800044 	movi	r2,1
     924:	80800015 	stw	r2,0(r16)
     928:	dfc00317 	ldw	ra,12(sp)
     92c:	dc000217 	ldw	r16,8(sp)
     930:	dec00404 	addi	sp,sp,16
     934:	f800283a 	ret
     938:	00800104 	movi	r2,4
     93c:	80800015 	stw	r2,0(r16)
     940:	dfc00317 	ldw	ra,12(sp)
     944:	dc000217 	ldw	r16,8(sp)
     948:	dec00404 	addi	sp,sp,16
     94c:	f800283a 	ret

00000950 <mcapi_finalize>:
     950:	00800044 	movi	r2,1
     954:	defffe04 	addi	sp,sp,-8
     958:	20800015 	stw	r2,0(r4)
     95c:	dc000015 	stw	r16,0(sp)
     960:	dfc00115 	stw	ra,4(sp)
     964:	2021883a 	mov	r16,r4
     968:	00035740 	call	3574 <mcapi_trans_finalize>
     96c:	10803fcc 	andi	r2,r2,255
     970:	1000021e 	bne	r2,zero,97c <mcapi_finalize+0x2c>
     974:	00800284 	movi	r2,10
     978:	80800015 	stw	r2,0(r16)
     97c:	dfc00117 	ldw	ra,4(sp)
     980:	dc000017 	ldw	r16,0(sp)
     984:	dec00204 	addi	sp,sp,8
     988:	f800283a 	ret

0000098c <mcapi_domain_id_get>:
     98c:	defffd04 	addi	sp,sp,-12
     990:	dc000115 	stw	r16,4(sp)
     994:	dfc00215 	stw	ra,8(sp)
     998:	00800244 	movi	r2,9
     99c:	20800015 	stw	r2,0(r4)
     9a0:	2021883a 	mov	r16,r4
     9a4:	00bfffc4 	movi	r2,-1
     9a8:	d809883a 	mov	r4,sp
     9ac:	d8800015 	stw	r2,0(sp)
     9b0:	00027fc0 	call	27fc <mcapi_trans_get_domain_num>
     9b4:	10803fcc 	andi	r2,r2,255
     9b8:	10000226 	beq	r2,zero,9c4 <mcapi_domain_id_get+0x38>
     9bc:	00800044 	movi	r2,1
     9c0:	80800015 	stw	r2,0(r16)
     9c4:	d8800017 	ldw	r2,0(sp)
     9c8:	dfc00217 	ldw	ra,8(sp)
     9cc:	dc000117 	ldw	r16,4(sp)
     9d0:	dec00304 	addi	sp,sp,12
     9d4:	f800283a 	ret

000009d8 <mcapi_node_id_get>:
     9d8:	defffd04 	addi	sp,sp,-12
     9dc:	dc000115 	stw	r16,4(sp)
     9e0:	dfc00215 	stw	ra,8(sp)
     9e4:	00800244 	movi	r2,9
     9e8:	20800015 	stw	r2,0(r4)
     9ec:	2021883a 	mov	r16,r4
     9f0:	00bfffc4 	movi	r2,-1
     9f4:	d809883a 	mov	r4,sp
     9f8:	d8800015 	stw	r2,0(sp)
     9fc:	00027dc0 	call	27dc <mcapi_trans_get_node_num>
     a00:	10803fcc 	andi	r2,r2,255
     a04:	10000226 	beq	r2,zero,a10 <mcapi_node_id_get+0x38>
     a08:	00800044 	movi	r2,1
     a0c:	80800015 	stw	r2,0(r16)
     a10:	d8800017 	ldw	r2,0(sp)
     a14:	dfc00217 	ldw	ra,8(sp)
     a18:	dc000117 	ldw	r16,4(sp)
     a1c:	dec00304 	addi	sp,sp,12
     a20:	f800283a 	ret

00000a24 <mcapi_endpoint_create>:
     a24:	defffa04 	addi	sp,sp,-24
     a28:	dc400315 	stw	r17,12(sp)
     a2c:	dc000215 	stw	r16,8(sp)
     a30:	dfc00515 	stw	ra,20(sp)
     a34:	dc800415 	stw	r18,16(sp)
     a38:	00800044 	movi	r2,1
     a3c:	28800015 	stw	r2,0(r5)
     a40:	2023883a 	mov	r17,r4
     a44:	00bfffc4 	movi	r2,-1
     a48:	d809883a 	mov	r4,sp
     a4c:	2821883a 	mov	r16,r5
     a50:	d8800015 	stw	r2,0(sp)
     a54:	00027fc0 	call	27fc <mcapi_trans_get_domain_num>
     a58:	10803fcc 	andi	r2,r2,255
     a5c:	10000f26 	beq	r2,zero,a9c <mcapi_endpoint_create+0x78>
     a60:	dc800017 	ldw	r18,0(sp)
     a64:	880b883a 	mov	r5,r17
     a68:	9009883a 	mov	r4,r18
     a6c:	0003a1c0 	call	3a1c <mcapi_trans_endpoint_exists>
     a70:	10803fcc 	andi	r2,r2,255
     a74:	10001226 	beq	r2,zero,ac0 <mcapi_endpoint_create+0x9c>
     a78:	00800344 	movi	r2,13
     a7c:	80800015 	stw	r2,0(r16)
     a80:	d8800117 	ldw	r2,4(sp)
     a84:	dfc00517 	ldw	ra,20(sp)
     a88:	dc800417 	ldw	r18,16(sp)
     a8c:	dc400317 	ldw	r17,12(sp)
     a90:	dc000217 	ldw	r16,8(sp)
     a94:	dec00604 	addi	sp,sp,24
     a98:	f800283a 	ret
     a9c:	00800244 	movi	r2,9
     aa0:	80800015 	stw	r2,0(r16)
     aa4:	d8800117 	ldw	r2,4(sp)
     aa8:	dfc00517 	ldw	ra,20(sp)
     aac:	dc800417 	ldw	r18,16(sp)
     ab0:	dc400317 	ldw	r17,12(sp)
     ab4:	dc000217 	ldw	r16,8(sp)
     ab8:	dec00604 	addi	sp,sp,24
     abc:	f800283a 	ret
     ac0:	9009883a 	mov	r4,r18
     ac4:	00045b80 	call	45b8 <mcapi_trans_num_endpoints>
     ac8:	00c00204 	movi	r3,8
     acc:	10c00726 	beq	r2,r3,aec <mcapi_endpoint_create+0xc8>
     ad0:	8809883a 	mov	r4,r17
     ad4:	00039140 	call	3914 <mcapi_trans_valid_port>
     ad8:	10803fcc 	andi	r2,r2,255
     adc:	1000061e 	bne	r2,zero,af8 <mcapi_endpoint_create+0xd4>
     ae0:	008002c4 	movi	r2,11
     ae4:	80800015 	stw	r2,0(r16)
     ae8:	003fee06 	br	aa4 <mcapi_endpoint_create+0x80>
     aec:	008004c4 	movi	r2,19
     af0:	80800015 	stw	r2,0(r16)
     af4:	003feb06 	br	aa4 <mcapi_endpoint_create+0x80>
     af8:	d9000104 	addi	r4,sp,4
     afc:	880b883a 	mov	r5,r17
     b00:	000d883a 	mov	r6,zero
     b04:	00047b80 	call	47b8 <mcapi_trans_endpoint_create>
     b08:	10803fcc 	andi	r2,r2,255
     b0c:	103fe51e 	bne	r2,zero,aa4 <mcapi_endpoint_create+0x80>
     b10:	00800484 	movi	r2,18
     b14:	80800015 	stw	r2,0(r16)
     b18:	003fe206 	br	aa4 <mcapi_endpoint_create+0x80>

00000b1c <mcapi_endpoint_get_i>:
     b1c:	defff904 	addi	sp,sp,-28
     b20:	dc000015 	stw	r16,0(sp)
     b24:	dc000817 	ldw	r16,32(sp)
     b28:	dd400515 	stw	r21,20(sp)
     b2c:	dd000415 	stw	r20,16(sp)
     b30:	dcc00315 	stw	r19,12(sp)
     b34:	dc800215 	stw	r18,8(sp)
     b38:	dc400115 	stw	r17,4(sp)
     b3c:	dfc00615 	stw	ra,24(sp)
     b40:	00800044 	movi	r2,1
     b44:	2029883a 	mov	r20,r4
     b48:	80800015 	stw	r2,0(r16)
     b4c:	2809883a 	mov	r4,r5
     b50:	2823883a 	mov	r17,r5
     b54:	3025883a 	mov	r18,r6
     b58:	382b883a 	mov	r21,r7
     b5c:	dcc00717 	ldw	r19,28(sp)
     b60:	000391c0 	call	391c <mcapi_trans_valid_node>
     b64:	10803fcc 	andi	r2,r2,255
     b68:	1000111e 	bne	r2,zero,bb0 <mcapi_endpoint_get_i+0x94>
     b6c:	00800184 	movi	r2,6
     b70:	80800015 	stw	r2,0(r16)
     b74:	a809883a 	mov	r4,r21
     b78:	a00b883a 	mov	r5,r20
     b7c:	880d883a 	mov	r6,r17
     b80:	900f883a 	mov	r7,r18
     b84:	dcc00715 	stw	r19,28(sp)
     b88:	dc000815 	stw	r16,32(sp)
     b8c:	dfc00617 	ldw	ra,24(sp)
     b90:	dd400517 	ldw	r21,20(sp)
     b94:	dd000417 	ldw	r20,16(sp)
     b98:	dcc00317 	ldw	r19,12(sp)
     b9c:	dc800217 	ldw	r18,8(sp)
     ba0:	dc400117 	ldw	r17,4(sp)
     ba4:	dc000017 	ldw	r16,0(sp)
     ba8:	dec00704 	addi	sp,sp,28
     bac:	0004dd41 	jmpi	4dd4 <mcapi_trans_endpoint_get_i>
     bb0:	9009883a 	mov	r4,r18
     bb4:	00039140 	call	3914 <mcapi_trans_valid_port>
     bb8:	10803fcc 	andi	r2,r2,255
     bbc:	103fed1e 	bne	r2,zero,b74 <mcapi_endpoint_get_i+0x58>
     bc0:	008002c4 	movi	r2,11
     bc4:	80800015 	stw	r2,0(r16)
     bc8:	003fea06 	br	b74 <mcapi_endpoint_get_i+0x58>

00000bcc <mcapi_endpoint_get>:
     bcc:	defffa04 	addi	sp,sp,-24
     bd0:	dc000115 	stw	r16,4(sp)
     bd4:	dc000617 	ldw	r16,24(sp)
     bd8:	dcc00415 	stw	r19,16(sp)
     bdc:	dc800315 	stw	r18,12(sp)
     be0:	dc400215 	stw	r17,8(sp)
     be4:	dfc00515 	stw	ra,20(sp)
     be8:	00800044 	movi	r2,1
     bec:	2027883a 	mov	r19,r4
     bf0:	80800015 	stw	r2,0(r16)
     bf4:	2809883a 	mov	r4,r5
     bf8:	2823883a 	mov	r17,r5
     bfc:	3025883a 	mov	r18,r6
     c00:	000391c0 	call	391c <mcapi_trans_valid_node>
     c04:	10803fcc 	andi	r2,r2,255
     c08:	10000a1e 	bne	r2,zero,c34 <mcapi_endpoint_get+0x68>
     c0c:	00800184 	movi	r2,6
     c10:	80800015 	stw	r2,0(r16)
     c14:	d8800017 	ldw	r2,0(sp)
     c18:	dfc00517 	ldw	ra,20(sp)
     c1c:	dcc00417 	ldw	r19,16(sp)
     c20:	dc800317 	ldw	r18,12(sp)
     c24:	dc400217 	ldw	r17,8(sp)
     c28:	dc000117 	ldw	r16,4(sp)
     c2c:	dec00604 	addi	sp,sp,24
     c30:	f800283a 	ret
     c34:	9009883a 	mov	r4,r18
     c38:	00039140 	call	3914 <mcapi_trans_valid_port>
     c3c:	10803fcc 	andi	r2,r2,255
     c40:	10000a1e 	bne	r2,zero,c6c <mcapi_endpoint_get+0xa0>
     c44:	008002c4 	movi	r2,11
     c48:	80800015 	stw	r2,0(r16)
     c4c:	d8800017 	ldw	r2,0(sp)
     c50:	dfc00517 	ldw	ra,20(sp)
     c54:	dcc00417 	ldw	r19,16(sp)
     c58:	dc800317 	ldw	r18,12(sp)
     c5c:	dc400217 	ldw	r17,8(sp)
     c60:	dc000117 	ldw	r16,4(sp)
     c64:	dec00604 	addi	sp,sp,24
     c68:	f800283a 	ret
     c6c:	d809883a 	mov	r4,sp
     c70:	980b883a 	mov	r5,r19
     c74:	880d883a 	mov	r6,r17
     c78:	900f883a 	mov	r7,r18
     c7c:	00084840 	call	8484 <mcapi_trans_endpoint_get>
     c80:	d8800017 	ldw	r2,0(sp)
     c84:	dfc00517 	ldw	ra,20(sp)
     c88:	dcc00417 	ldw	r19,16(sp)
     c8c:	dc800317 	ldw	r18,12(sp)
     c90:	dc400217 	ldw	r17,8(sp)
     c94:	dc000117 	ldw	r16,4(sp)
     c98:	dec00604 	addi	sp,sp,24
     c9c:	f800283a 	ret

00000ca0 <mcapi_endpoint_delete>:
     ca0:	00800044 	movi	r2,1
     ca4:	defffd04 	addi	sp,sp,-12
     ca8:	28800015 	stw	r2,0(r5)
     cac:	dc400115 	stw	r17,4(sp)
     cb0:	dc000015 	stw	r16,0(sp)
     cb4:	dfc00215 	stw	ra,8(sp)
     cb8:	2821883a 	mov	r16,r5
     cbc:	2023883a 	mov	r17,r4
     cc0:	000392c0 	call	392c <mcapi_trans_valid_endpoint>
     cc4:	10803fcc 	andi	r2,r2,255
     cc8:	1000071e 	bne	r2,zero,ce8 <mcapi_endpoint_delete+0x48>
     ccc:	00800304 	movi	r2,12
     cd0:	80800015 	stw	r2,0(r16)
     cd4:	dfc00217 	ldw	ra,8(sp)
     cd8:	dc400117 	ldw	r17,4(sp)
     cdc:	dc000017 	ldw	r16,0(sp)
     ce0:	dec00304 	addi	sp,sp,12
     ce4:	f800283a 	ret
     ce8:	8809883a 	mov	r4,r17
     cec:	0003ef40 	call	3ef4 <mcapi_trans_endpoint_isowner>
     cf0:	10803fcc 	andi	r2,r2,255
     cf4:	1000071e 	bne	r2,zero,d14 <mcapi_endpoint_delete+0x74>
     cf8:	00800404 	movi	r2,16
     cfc:	80800015 	stw	r2,0(r16)
     d00:	dfc00217 	ldw	ra,8(sp)
     d04:	dc400117 	ldw	r17,4(sp)
     d08:	dc000017 	ldw	r16,0(sp)
     d0c:	dec00304 	addi	sp,sp,12
     d10:	f800283a 	ret
     d14:	8809883a 	mov	r4,r17
     d18:	0003dd40 	call	3dd4 <mcapi_trans_endpoint_channel_isopen>
     d1c:	10803fcc 	andi	r2,r2,255
     d20:	10000326 	beq	r2,zero,d30 <mcapi_endpoint_delete+0x90>
     d24:	00800704 	movi	r2,28
     d28:	80800015 	stw	r2,0(r16)
     d2c:	003fe906 	br	cd4 <mcapi_endpoint_delete+0x34>
     d30:	8809883a 	mov	r4,r17
     d34:	dfc00217 	ldw	ra,8(sp)
     d38:	dc400117 	ldw	r17,4(sp)
     d3c:	dc000017 	ldw	r16,0(sp)
     d40:	dec00304 	addi	sp,sp,12
     d44:	000524c1 	jmpi	524c <mcapi_trans_endpoint_delete>

00000d48 <mcapi_endpoint_get_attribute>:
     d48:	defffa04 	addi	sp,sp,-24
     d4c:	dc000015 	stw	r16,0(sp)
     d50:	dc000617 	ldw	r16,24(sp)
     d54:	dd000415 	stw	r20,16(sp)
     d58:	dcc00315 	stw	r19,12(sp)
     d5c:	dc800215 	stw	r18,8(sp)
     d60:	dc400115 	stw	r17,4(sp)
     d64:	dfc00515 	stw	ra,20(sp)
     d68:	00800044 	movi	r2,1
     d6c:	80800015 	stw	r2,0(r16)
     d70:	2023883a 	mov	r17,r4
     d74:	2829883a 	mov	r20,r5
     d78:	3027883a 	mov	r19,r6
     d7c:	3825883a 	mov	r18,r7
     d80:	000392c0 	call	392c <mcapi_trans_valid_endpoint>
     d84:	10803fcc 	andi	r2,r2,255
     d88:	10000a1e 	bne	r2,zero,db4 <mcapi_endpoint_get_attribute+0x6c>
     d8c:	00800304 	movi	r2,12
     d90:	80800015 	stw	r2,0(r16)
     d94:	dfc00517 	ldw	ra,20(sp)
     d98:	dd000417 	ldw	r20,16(sp)
     d9c:	dcc00317 	ldw	r19,12(sp)
     da0:	dc800217 	ldw	r18,8(sp)
     da4:	dc400117 	ldw	r17,4(sp)
     da8:	dc000017 	ldw	r16,0(sp)
     dac:	dec00604 	addi	sp,sp,24
     db0:	f800283a 	ret
     db4:	8809883a 	mov	r4,r17
     db8:	a00b883a 	mov	r5,r20
     dbc:	980d883a 	mov	r6,r19
     dc0:	900f883a 	mov	r7,r18
     dc4:	dc000615 	stw	r16,24(sp)
     dc8:	dfc00517 	ldw	ra,20(sp)
     dcc:	dd000417 	ldw	r20,16(sp)
     dd0:	dcc00317 	ldw	r19,12(sp)
     dd4:	dc800217 	ldw	r18,8(sp)
     dd8:	dc400117 	ldw	r17,4(sp)
     ddc:	dc000017 	ldw	r16,0(sp)
     de0:	dec00604 	addi	sp,sp,24
     de4:	0004b881 	jmpi	4b88 <mcapi_trans_endpoint_get_attribute>

00000de8 <mcapi_msg_send_i>:
     de8:	defff904 	addi	sp,sp,-28
     dec:	dc000015 	stw	r16,0(sp)
     df0:	dc000917 	ldw	r16,36(sp)
     df4:	dc800215 	stw	r18,8(sp)
     df8:	2025883a 	mov	r18,r4
     dfc:	d9000717 	ldw	r4,28(sp)
     e00:	dd400515 	stw	r21,20(sp)
     e04:	dd000415 	stw	r20,16(sp)
     e08:	dcc00315 	stw	r19,12(sp)
     e0c:	dc400115 	stw	r17,4(sp)
     e10:	dfc00615 	stw	ra,24(sp)
     e14:	00800044 	movi	r2,1
     e18:	80800015 	stw	r2,0(r16)
     e1c:	2823883a 	mov	r17,r5
     e20:	302b883a 	mov	r21,r6
     e24:	3827883a 	mov	r19,r7
     e28:	dd000817 	ldw	r20,32(sp)
     e2c:	00046800 	call	4680 <mcapi_trans_valid_priority>
     e30:	10803fcc 	andi	r2,r2,255
     e34:	1000111e 	bne	r2,zero,e7c <mcapi_msg_send_i+0x94>
     e38:	00800984 	movi	r2,38
     e3c:	80800015 	stw	r2,0(r16)
     e40:	9009883a 	mov	r4,r18
     e44:	880b883a 	mov	r5,r17
     e48:	a80d883a 	mov	r6,r21
     e4c:	980f883a 	mov	r7,r19
     e50:	dd000715 	stw	r20,28(sp)
     e54:	dc000815 	stw	r16,32(sp)
     e58:	dfc00617 	ldw	ra,24(sp)
     e5c:	dd400517 	ldw	r21,20(sp)
     e60:	dd000417 	ldw	r20,16(sp)
     e64:	dcc00317 	ldw	r19,12(sp)
     e68:	dc800217 	ldw	r18,8(sp)
     e6c:	dc400117 	ldw	r17,4(sp)
     e70:	dc000017 	ldw	r16,0(sp)
     e74:	dec00704 	addi	sp,sp,28
     e78:	00099141 	jmpi	9914 <mcapi_trans_msg_send_i>
     e7c:	9009883a 	mov	r4,r18
     e80:	880b883a 	mov	r5,r17
     e84:	0003cd00 	call	3cd0 <mcapi_trans_valid_endpoints>
     e88:	10803fcc 	andi	r2,r2,255
     e8c:	10000526 	beq	r2,zero,ea4 <mcapi_msg_send_i+0xbc>
     e90:	00810004 	movi	r2,1024
     e94:	14ffea2e 	bgeu	r2,r19,e40 <mcapi_msg_send_i+0x58>
     e98:	00800684 	movi	r2,26
     e9c:	80800015 	stw	r2,0(r16)
     ea0:	003fe706 	br	e40 <mcapi_msg_send_i+0x58>
     ea4:	00800304 	movi	r2,12
     ea8:	80800015 	stw	r2,0(r16)
     eac:	003fe406 	br	e40 <mcapi_msg_send_i+0x58>

00000eb0 <mcapi_msg_send>:
     eb0:	defffa04 	addi	sp,sp,-24
     eb4:	dc000015 	stw	r16,0(sp)
     eb8:	dc000717 	ldw	r16,28(sp)
     ebc:	dc800215 	stw	r18,8(sp)
     ec0:	2025883a 	mov	r18,r4
     ec4:	d9000617 	ldw	r4,24(sp)
     ec8:	dd000415 	stw	r20,16(sp)
     ecc:	dcc00315 	stw	r19,12(sp)
     ed0:	dc400115 	stw	r17,4(sp)
     ed4:	dfc00515 	stw	ra,20(sp)
     ed8:	00800044 	movi	r2,1
     edc:	80800015 	stw	r2,0(r16)
     ee0:	2823883a 	mov	r17,r5
     ee4:	3029883a 	mov	r20,r6
     ee8:	3827883a 	mov	r19,r7
     eec:	00046800 	call	4680 <mcapi_trans_valid_priority>
     ef0:	10803fcc 	andi	r2,r2,255
     ef4:	10000a1e 	bne	r2,zero,f20 <mcapi_msg_send+0x70>
     ef8:	00800984 	movi	r2,38
     efc:	80800015 	stw	r2,0(r16)
     f00:	dfc00517 	ldw	ra,20(sp)
     f04:	dd000417 	ldw	r20,16(sp)
     f08:	dcc00317 	ldw	r19,12(sp)
     f0c:	dc800217 	ldw	r18,8(sp)
     f10:	dc400117 	ldw	r17,4(sp)
     f14:	dc000017 	ldw	r16,0(sp)
     f18:	dec00604 	addi	sp,sp,24
     f1c:	f800283a 	ret
     f20:	9009883a 	mov	r4,r18
     f24:	880b883a 	mov	r5,r17
     f28:	0003cd00 	call	3cd0 <mcapi_trans_valid_endpoints>
     f2c:	10803fcc 	andi	r2,r2,255
     f30:	10001626 	beq	r2,zero,f8c <mcapi_msg_send+0xdc>
     f34:	00810004 	movi	r2,1024
     f38:	14c00a2e 	bgeu	r2,r19,f64 <mcapi_msg_send+0xb4>
     f3c:	00800684 	movi	r2,26
     f40:	80800015 	stw	r2,0(r16)
     f44:	dfc00517 	ldw	ra,20(sp)
     f48:	dd000417 	ldw	r20,16(sp)
     f4c:	dcc00317 	ldw	r19,12(sp)
     f50:	dc800217 	ldw	r18,8(sp)
     f54:	dc400117 	ldw	r17,4(sp)
     f58:	dc000017 	ldw	r16,0(sp)
     f5c:	dec00604 	addi	sp,sp,24
     f60:	f800283a 	ret
     f64:	9009883a 	mov	r4,r18
     f68:	880b883a 	mov	r5,r17
     f6c:	a00d883a 	mov	r6,r20
     f70:	980f883a 	mov	r7,r19
     f74:	0009dac0 	call	9dac <mcapi_trans_msg_send>
     f78:	10803fcc 	andi	r2,r2,255
     f7c:	103fe01e 	bne	r2,zero,f00 <mcapi_msg_send+0x50>
     f80:	00800a04 	movi	r2,40
     f84:	80800015 	stw	r2,0(r16)
     f88:	003fdd06 	br	f00 <mcapi_msg_send+0x50>
     f8c:	00800304 	movi	r2,12
     f90:	80800015 	stw	r2,0(r16)
     f94:	dfc00517 	ldw	ra,20(sp)
     f98:	dd000417 	ldw	r20,16(sp)
     f9c:	dcc00317 	ldw	r19,12(sp)
     fa0:	dc800217 	ldw	r18,8(sp)
     fa4:	dc400117 	ldw	r17,4(sp)
     fa8:	dc000017 	ldw	r16,0(sp)
     fac:	dec00604 	addi	sp,sp,24
     fb0:	f800283a 	ret

00000fb4 <mcapi_msg_recv_i>:
     fb4:	defffa04 	addi	sp,sp,-24
     fb8:	dc000315 	stw	r16,12(sp)
     fbc:	dc000617 	ldw	r16,24(sp)
     fc0:	dc400415 	stw	r17,16(sp)
     fc4:	dfc00515 	stw	ra,20(sp)
     fc8:	00800044 	movi	r2,1
     fcc:	80800015 	stw	r2,0(r16)
     fd0:	2023883a 	mov	r17,r4
     fd4:	38002626 	beq	r7,zero,1070 <mcapi_msg_recv_i+0xbc>
     fd8:	2809883a 	mov	r4,r5
     fdc:	d9400015 	stw	r5,0(sp)
     fe0:	d9800115 	stw	r6,4(sp)
     fe4:	d9c00215 	stw	r7,8(sp)
     fe8:	00047880 	call	4788 <mcapi_trans_valid_buffer_param>
     fec:	10803fcc 	andi	r2,r2,255
     ff0:	d9400017 	ldw	r5,0(sp)
     ff4:	d9800117 	ldw	r6,4(sp)
     ff8:	d9c00217 	ldw	r7,8(sp)
     ffc:	1000091e 	bne	r2,zero,1024 <mcapi_msg_recv_i+0x70>
    1000:	00800104 	movi	r2,4
    1004:	80800015 	stw	r2,0(r16)
    1008:	8809883a 	mov	r4,r17
    100c:	dc000615 	stw	r16,24(sp)
    1010:	dfc00517 	ldw	ra,20(sp)
    1014:	dc400417 	ldw	r17,16(sp)
    1018:	dc000317 	ldw	r16,12(sp)
    101c:	dec00604 	addi	sp,sp,24
    1020:	000c0481 	jmpi	c048 <mcapi_trans_msg_recv_i>
    1024:	8809883a 	mov	r4,r17
    1028:	d9400015 	stw	r5,0(sp)
    102c:	d9800115 	stw	r6,4(sp)
    1030:	d9c00215 	stw	r7,8(sp)
    1034:	000392c0 	call	392c <mcapi_trans_valid_endpoint>
    1038:	10803fcc 	andi	r2,r2,255
    103c:	d9400017 	ldw	r5,0(sp)
    1040:	d9800117 	ldw	r6,4(sp)
    1044:	d9c00217 	ldw	r7,8(sp)
    1048:	103fef1e 	bne	r2,zero,1008 <mcapi_msg_recv_i+0x54>
    104c:	00800304 	movi	r2,12
    1050:	80800015 	stw	r2,0(r16)
    1054:	8809883a 	mov	r4,r17
    1058:	dc000615 	stw	r16,24(sp)
    105c:	dfc00517 	ldw	ra,20(sp)
    1060:	dc400417 	ldw	r17,16(sp)
    1064:	dc000317 	ldw	r16,12(sp)
    1068:	dec00604 	addi	sp,sp,24
    106c:	000c0481 	jmpi	c048 <mcapi_trans_msg_recv_i>
    1070:	00800104 	movi	r2,4
    1074:	80800015 	stw	r2,0(r16)
    1078:	dfc00517 	ldw	ra,20(sp)
    107c:	dc400417 	ldw	r17,16(sp)
    1080:	dc000317 	ldw	r16,12(sp)
    1084:	dec00604 	addi	sp,sp,24
    1088:	f800283a 	ret

0000108c <mcapi_msg_recv>:
    108c:	defffa04 	addi	sp,sp,-24
    1090:	dc000015 	stw	r16,0(sp)
    1094:	dc000617 	ldw	r16,24(sp)
    1098:	dd000415 	stw	r20,16(sp)
    109c:	dcc00315 	stw	r19,12(sp)
    10a0:	dc800215 	stw	r18,8(sp)
    10a4:	dc400115 	stw	r17,4(sp)
    10a8:	dfc00515 	stw	ra,20(sp)
    10ac:	00800044 	movi	r2,1
    10b0:	2025883a 	mov	r18,r4
    10b4:	80800015 	stw	r2,0(r16)
    10b8:	2809883a 	mov	r4,r5
    10bc:	2823883a 	mov	r17,r5
    10c0:	3029883a 	mov	r20,r6
    10c4:	3827883a 	mov	r19,r7
    10c8:	00047880 	call	4788 <mcapi_trans_valid_buffer_param>
    10cc:	10803fcc 	andi	r2,r2,255
    10d0:	10000a1e 	bne	r2,zero,10fc <mcapi_msg_recv+0x70>
    10d4:	00800104 	movi	r2,4
    10d8:	80800015 	stw	r2,0(r16)
    10dc:	dfc00517 	ldw	ra,20(sp)
    10e0:	dd000417 	ldw	r20,16(sp)
    10e4:	dcc00317 	ldw	r19,12(sp)
    10e8:	dc800217 	ldw	r18,8(sp)
    10ec:	dc400117 	ldw	r17,4(sp)
    10f0:	dc000017 	ldw	r16,0(sp)
    10f4:	dec00604 	addi	sp,sp,24
    10f8:	f800283a 	ret
    10fc:	9009883a 	mov	r4,r18
    1100:	000392c0 	call	392c <mcapi_trans_valid_endpoint>
    1104:	10803fcc 	andi	r2,r2,255
    1108:	10000a1e 	bne	r2,zero,1134 <mcapi_msg_recv+0xa8>
    110c:	00800304 	movi	r2,12
    1110:	80800015 	stw	r2,0(r16)
    1114:	dfc00517 	ldw	ra,20(sp)
    1118:	dd000417 	ldw	r20,16(sp)
    111c:	dcc00317 	ldw	r19,12(sp)
    1120:	dc800217 	ldw	r18,8(sp)
    1124:	dc400117 	ldw	r17,4(sp)
    1128:	dc000017 	ldw	r16,0(sp)
    112c:	dec00604 	addi	sp,sp,24
    1130:	f800283a 	ret
    1134:	9009883a 	mov	r4,r18
    1138:	880b883a 	mov	r5,r17
    113c:	a00d883a 	mov	r6,r20
    1140:	980f883a 	mov	r7,r19
    1144:	000c2700 	call	c270 <mcapi_trans_msg_recv>
    1148:	98800017 	ldw	r2,0(r19)
    114c:	a0bfe32e 	bgeu	r20,r2,10dc <mcapi_msg_recv+0x50>
    1150:	9d000015 	stw	r20,0(r19)
    1154:	008006c4 	movi	r2,27
    1158:	80800015 	stw	r2,0(r16)
    115c:	003fdf06 	br	10dc <mcapi_msg_recv+0x50>

00001160 <mcapi_msg_available>:
    1160:	00800044 	movi	r2,1
    1164:	defffd04 	addi	sp,sp,-12
    1168:	28800015 	stw	r2,0(r5)
    116c:	dc400115 	stw	r17,4(sp)
    1170:	dc000015 	stw	r16,0(sp)
    1174:	dfc00215 	stw	ra,8(sp)
    1178:	2821883a 	mov	r16,r5
    117c:	2023883a 	mov	r17,r4
    1180:	000392c0 	call	392c <mcapi_trans_valid_endpoint>
    1184:	10803fcc 	andi	r2,r2,255
    1188:	1000081e 	bne	r2,zero,11ac <mcapi_msg_available+0x4c>
    118c:	00800304 	movi	r2,12
    1190:	80800015 	stw	r2,0(r16)
    1194:	0005883a 	mov	r2,zero
    1198:	dfc00217 	ldw	ra,8(sp)
    119c:	dc400117 	ldw	r17,4(sp)
    11a0:	dc000017 	ldw	r16,0(sp)
    11a4:	dec00304 	addi	sp,sp,12
    11a8:	f800283a 	ret
    11ac:	8809883a 	mov	r4,r17
    11b0:	dfc00217 	ldw	ra,8(sp)
    11b4:	dc400117 	ldw	r17,4(sp)
    11b8:	dc000017 	ldw	r16,0(sp)
    11bc:	dec00304 	addi	sp,sp,12
    11c0:	000535c1 	jmpi	535c <mcapi_trans_msg_available>

000011c4 <mcapi_pktchan_connect_i>:
    11c4:	defffb04 	addi	sp,sp,-20
    11c8:	dcc00315 	stw	r19,12(sp)
    11cc:	dc800215 	stw	r18,8(sp)
    11d0:	dc400115 	stw	r17,4(sp)
    11d4:	dc000015 	stw	r16,0(sp)
    11d8:	dfc00415 	stw	ra,16(sp)
    11dc:	00800044 	movi	r2,1
    11e0:	38800015 	stw	r2,0(r7)
    11e4:	3821883a 	mov	r16,r7
    11e8:	2023883a 	mov	r17,r4
    11ec:	2825883a 	mov	r18,r5
    11f0:	3027883a 	mov	r19,r6
    11f4:	0003cd00 	call	3cd0 <mcapi_trans_valid_endpoints>
    11f8:	10803fcc 	andi	r2,r2,255
    11fc:	10000d1e 	bne	r2,zero,1234 <mcapi_pktchan_connect_i+0x70>
    1200:	00800304 	movi	r2,12
    1204:	80800015 	stw	r2,0(r16)
    1208:	8809883a 	mov	r4,r17
    120c:	900b883a 	mov	r5,r18
    1210:	980d883a 	mov	r6,r19
    1214:	800f883a 	mov	r7,r16
    1218:	dfc00417 	ldw	ra,16(sp)
    121c:	dcc00317 	ldw	r19,12(sp)
    1220:	dc800217 	ldw	r18,8(sp)
    1224:	dc400117 	ldw	r17,4(sp)
    1228:	dc000017 	ldw	r16,0(sp)
    122c:	dec00504 	addi	sp,sp,20
    1230:	00087fc1 	jmpi	87fc <mcapi_trans_pktchan_connect_i>
    1234:	8809883a 	mov	r4,r17
    1238:	000401c0 	call	401c <mcapi_trans_channel_connected>
    123c:	10803fcc 	andi	r2,r2,255
    1240:	10000326 	beq	r2,zero,1250 <mcapi_pktchan_connect_i+0x8c>
    1244:	008007c4 	movi	r2,31
    1248:	80800015 	stw	r2,0(r16)
    124c:	003fee06 	br	1208 <mcapi_pktchan_connect_i+0x44>
    1250:	9009883a 	mov	r4,r18
    1254:	000401c0 	call	401c <mcapi_trans_channel_connected>
    1258:	10803fcc 	andi	r2,r2,255
    125c:	103ff91e 	bne	r2,zero,1244 <mcapi_pktchan_connect_i+0x80>
    1260:	8809883a 	mov	r4,r17
    1264:	900b883a 	mov	r5,r18
    1268:	00041400 	call	4140 <mcapi_trans_compatible_endpoint_attributes>
    126c:	10803fcc 	andi	r2,r2,255
    1270:	103fe51e 	bne	r2,zero,1208 <mcapi_pktchan_connect_i+0x44>
    1274:	00800504 	movi	r2,20
    1278:	80800015 	stw	r2,0(r16)
    127c:	003fe206 	br	1208 <mcapi_pktchan_connect_i+0x44>

00001280 <mcapi_pktchan_recv_open_i>:
    1280:	defffb04 	addi	sp,sp,-20
    1284:	dcc00315 	stw	r19,12(sp)
    1288:	dc800215 	stw	r18,8(sp)
    128c:	dc400115 	stw	r17,4(sp)
    1290:	dc000015 	stw	r16,0(sp)
    1294:	dfc00415 	stw	ra,16(sp)
    1298:	00800044 	movi	r2,1
    129c:	38800015 	stw	r2,0(r7)
    12a0:	3821883a 	mov	r16,r7
    12a4:	3025883a 	mov	r18,r6
    12a8:	2027883a 	mov	r19,r4
    12ac:	2823883a 	mov	r17,r5
    12b0:	30001c26 	beq	r6,zero,1324 <mcapi_pktchan_recv_open_i+0xa4>
    12b4:	2809883a 	mov	r4,r5
    12b8:	000392c0 	call	392c <mcapi_trans_valid_endpoint>
    12bc:	10803fcc 	andi	r2,r2,255
    12c0:	10000d1e 	bne	r2,zero,12f8 <mcapi_pktchan_recv_open_i+0x78>
    12c4:	00800304 	movi	r2,12
    12c8:	80800015 	stw	r2,0(r16)
    12cc:	9809883a 	mov	r4,r19
    12d0:	880b883a 	mov	r5,r17
    12d4:	900d883a 	mov	r6,r18
    12d8:	800f883a 	mov	r7,r16
    12dc:	dfc00417 	ldw	ra,16(sp)
    12e0:	dcc00317 	ldw	r19,12(sp)
    12e4:	dc800217 	ldw	r18,8(sp)
    12e8:	dc400117 	ldw	r17,4(sp)
    12ec:	dc000017 	ldw	r16,0(sp)
    12f0:	dec00504 	addi	sp,sp,20
    12f4:	000544c1 	jmpi	544c <mcapi_trans_pktchan_recv_open_i>
    12f8:	8809883a 	mov	r4,r17
    12fc:	00036240 	call	3624 <mcapi_trans_channel_type>
    1300:	00c00084 	movi	r3,2
    1304:	10c01026 	beq	r2,r3,1348 <mcapi_pktchan_recv_open_i+0xc8>
    1308:	8809883a 	mov	r4,r17
    130c:	00038140 	call	3814 <mcapi_trans_recv_endpoint>
    1310:	10803fcc 	andi	r2,r2,255
    1314:	103fed1e 	bne	r2,zero,12cc <mcapi_pktchan_recv_open_i+0x4c>
    1318:	00800784 	movi	r2,30
    131c:	80800015 	stw	r2,0(r16)
    1320:	003fea06 	br	12cc <mcapi_pktchan_recv_open_i+0x4c>
    1324:	00800104 	movi	r2,4
    1328:	38800015 	stw	r2,0(r7)
    132c:	dfc00417 	ldw	ra,16(sp)
    1330:	dcc00317 	ldw	r19,12(sp)
    1334:	dc800217 	ldw	r18,8(sp)
    1338:	dc400117 	ldw	r17,4(sp)
    133c:	dc000017 	ldw	r16,0(sp)
    1340:	dec00504 	addi	sp,sp,20
    1344:	f800283a 	ret
    1348:	00800744 	movi	r2,29
    134c:	80800015 	stw	r2,0(r16)
    1350:	003fde06 	br	12cc <mcapi_pktchan_recv_open_i+0x4c>

00001354 <mcapi_pktchan_send_open_i>:
    1354:	defffb04 	addi	sp,sp,-20
    1358:	dcc00315 	stw	r19,12(sp)
    135c:	dc800215 	stw	r18,8(sp)
    1360:	dc400115 	stw	r17,4(sp)
    1364:	dc000015 	stw	r16,0(sp)
    1368:	dfc00415 	stw	ra,16(sp)
    136c:	00800044 	movi	r2,1
    1370:	38800015 	stw	r2,0(r7)
    1374:	3821883a 	mov	r16,r7
    1378:	3025883a 	mov	r18,r6
    137c:	2027883a 	mov	r19,r4
    1380:	2823883a 	mov	r17,r5
    1384:	30001c26 	beq	r6,zero,13f8 <mcapi_pktchan_send_open_i+0xa4>
    1388:	2809883a 	mov	r4,r5
    138c:	000392c0 	call	392c <mcapi_trans_valid_endpoint>
    1390:	10803fcc 	andi	r2,r2,255
    1394:	10000d1e 	bne	r2,zero,13cc <mcapi_pktchan_send_open_i+0x78>
    1398:	00800304 	movi	r2,12
    139c:	80800015 	stw	r2,0(r16)
    13a0:	9809883a 	mov	r4,r19
    13a4:	880b883a 	mov	r5,r17
    13a8:	900d883a 	mov	r6,r18
    13ac:	800f883a 	mov	r7,r16
    13b0:	dfc00417 	ldw	ra,16(sp)
    13b4:	dcc00317 	ldw	r19,12(sp)
    13b8:	dc800217 	ldw	r18,8(sp)
    13bc:	dc400117 	ldw	r17,4(sp)
    13c0:	dc000017 	ldw	r16,0(sp)
    13c4:	dec00504 	addi	sp,sp,20
    13c8:	00057681 	jmpi	5768 <mcapi_trans_pktchan_send_open_i>
    13cc:	8809883a 	mov	r4,r17
    13d0:	00036240 	call	3624 <mcapi_trans_channel_type>
    13d4:	00c00084 	movi	r3,2
    13d8:	10c01026 	beq	r2,r3,141c <mcapi_pktchan_send_open_i+0xc8>
    13dc:	8809883a 	mov	r4,r17
    13e0:	00037140 	call	3714 <mcapi_trans_send_endpoint>
    13e4:	10803fcc 	andi	r2,r2,255
    13e8:	103fed1e 	bne	r2,zero,13a0 <mcapi_pktchan_send_open_i+0x4c>
    13ec:	00800784 	movi	r2,30
    13f0:	80800015 	stw	r2,0(r16)
    13f4:	003fea06 	br	13a0 <mcapi_pktchan_send_open_i+0x4c>
    13f8:	00800104 	movi	r2,4
    13fc:	38800015 	stw	r2,0(r7)
    1400:	dfc00417 	ldw	ra,16(sp)
    1404:	dcc00317 	ldw	r19,12(sp)
    1408:	dc800217 	ldw	r18,8(sp)
    140c:	dc400117 	ldw	r17,4(sp)
    1410:	dc000017 	ldw	r16,0(sp)
    1414:	dec00504 	addi	sp,sp,20
    1418:	f800283a 	ret
    141c:	00800744 	movi	r2,29
    1420:	80800015 	stw	r2,0(r16)
    1424:	003fde06 	br	13a0 <mcapi_pktchan_send_open_i+0x4c>

00001428 <mcapi_pktchan_send_i>:
    1428:	defffa04 	addi	sp,sp,-24
    142c:	dc000315 	stw	r16,12(sp)
    1430:	dc000617 	ldw	r16,24(sp)
    1434:	dc400415 	stw	r17,16(sp)
    1438:	dfc00515 	stw	ra,20(sp)
    143c:	00800044 	movi	r2,1
    1440:	80800015 	stw	r2,0(r16)
    1444:	2023883a 	mov	r17,r4
    1448:	38001d26 	beq	r7,zero,14c0 <mcapi_pktchan_send_i+0x98>
    144c:	d9400015 	stw	r5,0(sp)
    1450:	d9800115 	stw	r6,4(sp)
    1454:	d9c00215 	stw	r7,8(sp)
    1458:	00041480 	call	4148 <mcapi_trans_valid_pktchan_send_handle>
    145c:	10803fcc 	andi	r2,r2,255
    1460:	d9400017 	ldw	r5,0(sp)
    1464:	d9800117 	ldw	r6,4(sp)
    1468:	d9c00217 	ldw	r7,8(sp)
    146c:	1000091e 	bne	r2,zero,1494 <mcapi_pktchan_send_i+0x6c>
    1470:	00800884 	movi	r2,34
    1474:	80800015 	stw	r2,0(r16)
    1478:	8809883a 	mov	r4,r17
    147c:	dc000615 	stw	r16,24(sp)
    1480:	dfc00517 	ldw	ra,20(sp)
    1484:	dc400417 	ldw	r17,16(sp)
    1488:	dc000317 	ldw	r16,12(sp)
    148c:	dec00604 	addi	sp,sp,24
    1490:	00093f81 	jmpi	93f8 <mcapi_trans_pktchan_send_i>
    1494:	00810004 	movi	r2,1024
    1498:	11bff72e 	bgeu	r2,r6,1478 <mcapi_pktchan_send_i+0x50>
    149c:	008008c4 	movi	r2,35
    14a0:	80800015 	stw	r2,0(r16)
    14a4:	8809883a 	mov	r4,r17
    14a8:	dc000615 	stw	r16,24(sp)
    14ac:	dfc00517 	ldw	ra,20(sp)
    14b0:	dc400417 	ldw	r17,16(sp)
    14b4:	dc000317 	ldw	r16,12(sp)
    14b8:	dec00604 	addi	sp,sp,24
    14bc:	00093f81 	jmpi	93f8 <mcapi_trans_pktchan_send_i>
    14c0:	00800104 	movi	r2,4
    14c4:	80800015 	stw	r2,0(r16)
    14c8:	dfc00517 	ldw	ra,20(sp)
    14cc:	dc400417 	ldw	r17,16(sp)
    14d0:	dc000317 	ldw	r16,12(sp)
    14d4:	dec00604 	addi	sp,sp,24
    14d8:	f800283a 	ret

000014dc <mcapi_pktchan_send>:
    14dc:	00800044 	movi	r2,1
    14e0:	defffb04 	addi	sp,sp,-20
    14e4:	38800015 	stw	r2,0(r7)
    14e8:	dcc00315 	stw	r19,12(sp)
    14ec:	dc800215 	stw	r18,8(sp)
    14f0:	dc400115 	stw	r17,4(sp)
    14f4:	dc000015 	stw	r16,0(sp)
    14f8:	dfc00415 	stw	ra,16(sp)
    14fc:	3821883a 	mov	r16,r7
    1500:	2025883a 	mov	r18,r4
    1504:	2827883a 	mov	r19,r5
    1508:	3023883a 	mov	r17,r6
    150c:	00041480 	call	4148 <mcapi_trans_valid_pktchan_send_handle>
    1510:	10803fcc 	andi	r2,r2,255
    1514:	10001a26 	beq	r2,zero,1580 <mcapi_pktchan_send+0xa4>
    1518:	00810004 	movi	r2,1024
    151c:	1440092e 	bgeu	r2,r17,1544 <mcapi_pktchan_send+0x68>
    1520:	008008c4 	movi	r2,35
    1524:	80800015 	stw	r2,0(r16)
    1528:	dfc00417 	ldw	ra,16(sp)
    152c:	dcc00317 	ldw	r19,12(sp)
    1530:	dc800217 	ldw	r18,8(sp)
    1534:	dc400117 	ldw	r17,4(sp)
    1538:	dc000017 	ldw	r16,0(sp)
    153c:	dec00504 	addi	sp,sp,20
    1540:	f800283a 	ret
    1544:	9009883a 	mov	r4,r18
    1548:	980b883a 	mov	r5,r19
    154c:	880d883a 	mov	r6,r17
    1550:	00098680 	call	9868 <mcapi_trans_pktchan_send>
    1554:	10803fcc 	andi	r2,r2,255
    1558:	103ff31e 	bne	r2,zero,1528 <mcapi_pktchan_send+0x4c>
    155c:	00800a04 	movi	r2,40
    1560:	80800015 	stw	r2,0(r16)
    1564:	dfc00417 	ldw	ra,16(sp)
    1568:	dcc00317 	ldw	r19,12(sp)
    156c:	dc800217 	ldw	r18,8(sp)
    1570:	dc400117 	ldw	r17,4(sp)
    1574:	dc000017 	ldw	r16,0(sp)
    1578:	dec00504 	addi	sp,sp,20
    157c:	f800283a 	ret
    1580:	00800884 	movi	r2,34
    1584:	80800015 	stw	r2,0(r16)
    1588:	dfc00417 	ldw	ra,16(sp)
    158c:	dcc00317 	ldw	r19,12(sp)
    1590:	dc800217 	ldw	r18,8(sp)
    1594:	dc400117 	ldw	r17,4(sp)
    1598:	dc000017 	ldw	r16,0(sp)
    159c:	dec00504 	addi	sp,sp,20
    15a0:	f800283a 	ret

000015a4 <mcapi_pktchan_recv_i>:
    15a4:	defffb04 	addi	sp,sp,-20
    15a8:	dc000315 	stw	r16,12(sp)
    15ac:	dfc00415 	stw	ra,16(sp)
    15b0:	00800044 	movi	r2,1
    15b4:	38800015 	stw	r2,0(r7)
    15b8:	2021883a 	mov	r16,r4
    15bc:	30002226 	beq	r6,zero,1648 <mcapi_pktchan_recv_i+0xa4>
    15c0:	2809883a 	mov	r4,r5
    15c4:	d9400015 	stw	r5,0(sp)
    15c8:	d9800115 	stw	r6,4(sp)
    15cc:	d9c00215 	stw	r7,8(sp)
    15d0:	00047880 	call	4788 <mcapi_trans_valid_buffer_param>
    15d4:	10803fcc 	andi	r2,r2,255
    15d8:	d9400017 	ldw	r5,0(sp)
    15dc:	d9800117 	ldw	r6,4(sp)
    15e0:	d9c00217 	ldw	r7,8(sp)
    15e4:	1000071e 	bne	r2,zero,1604 <mcapi_pktchan_recv_i+0x60>
    15e8:	00800104 	movi	r2,4
    15ec:	38800015 	stw	r2,0(r7)
    15f0:	8009883a 	mov	r4,r16
    15f4:	dfc00417 	ldw	ra,16(sp)
    15f8:	dc000317 	ldw	r16,12(sp)
    15fc:	dec00504 	addi	sp,sp,20
    1600:	000c3301 	jmpi	c330 <mcapi_trans_pktchan_recv_i>
    1604:	8009883a 	mov	r4,r16
    1608:	d9400015 	stw	r5,0(sp)
    160c:	d9800115 	stw	r6,4(sp)
    1610:	d9c00215 	stw	r7,8(sp)
    1614:	00042380 	call	4238 <mcapi_trans_valid_pktchan_recv_handle>
    1618:	10803fcc 	andi	r2,r2,255
    161c:	d9400017 	ldw	r5,0(sp)
    1620:	d9800117 	ldw	r6,4(sp)
    1624:	d9c00217 	ldw	r7,8(sp)
    1628:	103ff11e 	bne	r2,zero,15f0 <mcapi_pktchan_recv_i+0x4c>
    162c:	00800884 	movi	r2,34
    1630:	8009883a 	mov	r4,r16
    1634:	38800015 	stw	r2,0(r7)
    1638:	dfc00417 	ldw	ra,16(sp)
    163c:	dc000317 	ldw	r16,12(sp)
    1640:	dec00504 	addi	sp,sp,20
    1644:	000c3301 	jmpi	c330 <mcapi_trans_pktchan_recv_i>
    1648:	00800104 	movi	r2,4
    164c:	38800015 	stw	r2,0(r7)
    1650:	dfc00417 	ldw	ra,16(sp)
    1654:	dc000317 	ldw	r16,12(sp)
    1658:	dec00504 	addi	sp,sp,20
    165c:	f800283a 	ret

00001660 <mcapi_pktchan_recv>:
    1660:	defffb04 	addi	sp,sp,-20
    1664:	00800044 	movi	r2,1
    1668:	dc800215 	stw	r18,8(sp)
    166c:	38800015 	stw	r2,0(r7)
    1670:	2025883a 	mov	r18,r4
    1674:	2809883a 	mov	r4,r5
    1678:	dcc00315 	stw	r19,12(sp)
    167c:	dc400115 	stw	r17,4(sp)
    1680:	dc000015 	stw	r16,0(sp)
    1684:	dfc00415 	stw	ra,16(sp)
    1688:	2823883a 	mov	r17,r5
    168c:	3821883a 	mov	r16,r7
    1690:	3027883a 	mov	r19,r6
    1694:	00047880 	call	4788 <mcapi_trans_valid_buffer_param>
    1698:	10803fcc 	andi	r2,r2,255
    169c:	1000091e 	bne	r2,zero,16c4 <mcapi_pktchan_recv+0x64>
    16a0:	00800104 	movi	r2,4
    16a4:	80800015 	stw	r2,0(r16)
    16a8:	dfc00417 	ldw	ra,16(sp)
    16ac:	dcc00317 	ldw	r19,12(sp)
    16b0:	dc800217 	ldw	r18,8(sp)
    16b4:	dc400117 	ldw	r17,4(sp)
    16b8:	dc000017 	ldw	r16,0(sp)
    16bc:	dec00504 	addi	sp,sp,20
    16c0:	f800283a 	ret
    16c4:	9009883a 	mov	r4,r18
    16c8:	00042380 	call	4238 <mcapi_trans_valid_pktchan_recv_handle>
    16cc:	10803fcc 	andi	r2,r2,255
    16d0:	1000091e 	bne	r2,zero,16f8 <mcapi_pktchan_recv+0x98>
    16d4:	00800884 	movi	r2,34
    16d8:	80800015 	stw	r2,0(r16)
    16dc:	dfc00417 	ldw	ra,16(sp)
    16e0:	dcc00317 	ldw	r19,12(sp)
    16e4:	dc800217 	ldw	r18,8(sp)
    16e8:	dc400117 	ldw	r17,4(sp)
    16ec:	dc000017 	ldw	r16,0(sp)
    16f0:	dec00504 	addi	sp,sp,20
    16f4:	f800283a 	ret
    16f8:	9009883a 	mov	r4,r18
    16fc:	880b883a 	mov	r5,r17
    1700:	980d883a 	mov	r6,r19
    1704:	000c5180 	call	c518 <mcapi_trans_pktchan_recv>
    1708:	10803fcc 	andi	r2,r2,255
    170c:	10000626 	beq	r2,zero,1728 <mcapi_pktchan_recv+0xc8>
    1710:	98800017 	ldw	r2,0(r19)
    1714:	00c10004 	movi	r3,1024
    1718:	18bfe32e 	bgeu	r3,r2,16a8 <mcapi_pktchan_recv+0x48>
    171c:	008008c4 	movi	r2,35
    1720:	80800015 	stw	r2,0(r16)
    1724:	003fe006 	br	16a8 <mcapi_pktchan_recv+0x48>
    1728:	00800a04 	movi	r2,40
    172c:	80800015 	stw	r2,0(r16)
    1730:	003fdd06 	br	16a8 <mcapi_pktchan_recv+0x48>

00001734 <mcapi_pktchan_available>:
    1734:	00800044 	movi	r2,1
    1738:	defffd04 	addi	sp,sp,-12
    173c:	28800015 	stw	r2,0(r5)
    1740:	dc400115 	stw	r17,4(sp)
    1744:	dc000015 	stw	r16,0(sp)
    1748:	dfc00215 	stw	ra,8(sp)
    174c:	2821883a 	mov	r16,r5
    1750:	2023883a 	mov	r17,r4
    1754:	00042380 	call	4238 <mcapi_trans_valid_pktchan_recv_handle>
    1758:	10803fcc 	andi	r2,r2,255
    175c:	1000081e 	bne	r2,zero,1780 <mcapi_pktchan_available+0x4c>
    1760:	00800884 	movi	r2,34
    1764:	80800015 	stw	r2,0(r16)
    1768:	0005883a 	mov	r2,zero
    176c:	dfc00217 	ldw	ra,8(sp)
    1770:	dc400117 	ldw	r17,4(sp)
    1774:	dc000017 	ldw	r16,0(sp)
    1778:	dec00304 	addi	sp,sp,12
    177c:	f800283a 	ret
    1780:	8809883a 	mov	r4,r17
    1784:	dfc00217 	ldw	ra,8(sp)
    1788:	dc400117 	ldw	r17,4(sp)
    178c:	dc000017 	ldw	r16,0(sp)
    1790:	dec00304 	addi	sp,sp,12
    1794:	0005a841 	jmpi	5a84 <mcapi_trans_pktchan_available>

00001798 <mcapi_pktchan_release>:
    1798:	00800044 	movi	r2,1
    179c:	defffe04 	addi	sp,sp,-8
    17a0:	28800015 	stw	r2,0(r5)
    17a4:	dc000015 	stw	r16,0(sp)
    17a8:	dfc00115 	stw	ra,4(sp)
    17ac:	2821883a 	mov	r16,r5
    17b0:	0005b740 	call	5b74 <mcapi_trans_pktchan_free>
    17b4:	10803fcc 	andi	r2,r2,255
    17b8:	1000021e 	bne	r2,zero,17c4 <mcapi_pktchan_release+0x2c>
    17bc:	008009c4 	movi	r2,39
    17c0:	80800015 	stw	r2,0(r16)
    17c4:	dfc00117 	ldw	ra,4(sp)
    17c8:	dc000017 	ldw	r16,0(sp)
    17cc:	dec00204 	addi	sp,sp,8
    17d0:	f800283a 	ret

000017d4 <mcapi_pktchan_recv_close_i>:
    17d4:	defffc04 	addi	sp,sp,-16
    17d8:	dc000215 	stw	r16,8(sp)
    17dc:	dfc00315 	stw	ra,12(sp)
    17e0:	00800044 	movi	r2,1
    17e4:	30800015 	stw	r2,0(r6)
    17e8:	2021883a 	mov	r16,r4
    17ec:	28001d26 	beq	r5,zero,1864 <mcapi_pktchan_recv_close_i+0x90>
    17f0:	d9400015 	stw	r5,0(sp)
    17f4:	d9800115 	stw	r6,4(sp)
    17f8:	00042380 	call	4238 <mcapi_trans_valid_pktchan_recv_handle>
    17fc:	10803fcc 	andi	r2,r2,255
    1800:	d9400017 	ldw	r5,0(sp)
    1804:	d9800117 	ldw	r6,4(sp)
    1808:	1000071e 	bne	r2,zero,1828 <mcapi_pktchan_recv_close_i+0x54>
    180c:	00800884 	movi	r2,34
    1810:	30800015 	stw	r2,0(r6)
    1814:	8009883a 	mov	r4,r16
    1818:	dfc00317 	ldw	ra,12(sp)
    181c:	dc000217 	ldw	r16,8(sp)
    1820:	dec00404 	addi	sp,sp,16
    1824:	000b48c1 	jmpi	b48c <mcapi_trans_pktchan_recv_close_i>
    1828:	8009883a 	mov	r4,r16
    182c:	d9400015 	stw	r5,0(sp)
    1830:	d9800115 	stw	r6,4(sp)
    1834:	0003ef00 	call	3ef0 <mcapi_trans_pktchan_recv_isopen>
    1838:	10803fcc 	andi	r2,r2,255
    183c:	d9400017 	ldw	r5,0(sp)
    1840:	d9800117 	ldw	r6,4(sp)
    1844:	103ff31e 	bne	r2,zero,1814 <mcapi_pktchan_recv_close_i+0x40>
    1848:	00800844 	movi	r2,33
    184c:	8009883a 	mov	r4,r16
    1850:	30800015 	stw	r2,0(r6)
    1854:	dfc00317 	ldw	ra,12(sp)
    1858:	dc000217 	ldw	r16,8(sp)
    185c:	dec00404 	addi	sp,sp,16
    1860:	000b48c1 	jmpi	b48c <mcapi_trans_pktchan_recv_close_i>
    1864:	00800104 	movi	r2,4
    1868:	30800015 	stw	r2,0(r6)
    186c:	dfc00317 	ldw	ra,12(sp)
    1870:	dc000217 	ldw	r16,8(sp)
    1874:	dec00404 	addi	sp,sp,16
    1878:	f800283a 	ret

0000187c <mcapi_pktchan_send_close_i>:
    187c:	defffc04 	addi	sp,sp,-16
    1880:	dc000215 	stw	r16,8(sp)
    1884:	dfc00315 	stw	ra,12(sp)
    1888:	00800044 	movi	r2,1
    188c:	30800015 	stw	r2,0(r6)
    1890:	2021883a 	mov	r16,r4
    1894:	28001d26 	beq	r5,zero,190c <mcapi_pktchan_send_close_i+0x90>
    1898:	d9400015 	stw	r5,0(sp)
    189c:	d9800115 	stw	r6,4(sp)
    18a0:	00042380 	call	4238 <mcapi_trans_valid_pktchan_recv_handle>
    18a4:	10803fcc 	andi	r2,r2,255
    18a8:	d9400017 	ldw	r5,0(sp)
    18ac:	d9800117 	ldw	r6,4(sp)
    18b0:	1000071e 	bne	r2,zero,18d0 <mcapi_pktchan_send_close_i+0x54>
    18b4:	00800884 	movi	r2,34
    18b8:	30800015 	stw	r2,0(r6)
    18bc:	8009883a 	mov	r4,r16
    18c0:	dfc00317 	ldw	ra,12(sp)
    18c4:	dc000217 	ldw	r16,8(sp)
    18c8:	dec00404 	addi	sp,sp,16
    18cc:	0005c3c1 	jmpi	5c3c <mcapi_trans_pktchan_send_close_i>
    18d0:	8009883a 	mov	r4,r16
    18d4:	d9400015 	stw	r5,0(sp)
    18d8:	d9800115 	stw	r6,4(sp)
    18dc:	0003eec0 	call	3eec <mcapi_trans_pktchan_send_isopen>
    18e0:	10803fcc 	andi	r2,r2,255
    18e4:	d9400017 	ldw	r5,0(sp)
    18e8:	d9800117 	ldw	r6,4(sp)
    18ec:	103ff31e 	bne	r2,zero,18bc <mcapi_pktchan_send_close_i+0x40>
    18f0:	00800844 	movi	r2,33
    18f4:	8009883a 	mov	r4,r16
    18f8:	30800015 	stw	r2,0(r6)
    18fc:	dfc00317 	ldw	ra,12(sp)
    1900:	dc000217 	ldw	r16,8(sp)
    1904:	dec00404 	addi	sp,sp,16
    1908:	0005c3c1 	jmpi	5c3c <mcapi_trans_pktchan_send_close_i>
    190c:	00800104 	movi	r2,4
    1910:	30800015 	stw	r2,0(r6)
    1914:	dfc00317 	ldw	ra,12(sp)
    1918:	dc000217 	ldw	r16,8(sp)
    191c:	dec00404 	addi	sp,sp,16
    1920:	f800283a 	ret

00001924 <mcapi_sclchan_connect_i>:
    1924:	defffb04 	addi	sp,sp,-20
    1928:	dc400315 	stw	r17,12(sp)
    192c:	dc000215 	stw	r16,8(sp)
    1930:	dfc00415 	stw	ra,16(sp)
    1934:	00800044 	movi	r2,1
    1938:	38800015 	stw	r2,0(r7)
    193c:	2021883a 	mov	r16,r4
    1940:	2823883a 	mov	r17,r5
    1944:	30002126 	beq	r6,zero,19cc <mcapi_sclchan_connect_i+0xa8>
    1948:	d9800015 	stw	r6,0(sp)
    194c:	d9c00115 	stw	r7,4(sp)
    1950:	0003cd00 	call	3cd0 <mcapi_trans_valid_endpoints>
    1954:	10803fcc 	andi	r2,r2,255
    1958:	d9800017 	ldw	r6,0(sp)
    195c:	d9c00117 	ldw	r7,4(sp)
    1960:	1000091e 	bne	r2,zero,1988 <mcapi_sclchan_connect_i+0x64>
    1964:	00800304 	movi	r2,12
    1968:	38800015 	stw	r2,0(r7)
    196c:	8009883a 	mov	r4,r16
    1970:	880b883a 	mov	r5,r17
    1974:	dfc00417 	ldw	ra,16(sp)
    1978:	dc400317 	ldw	r17,12(sp)
    197c:	dc000217 	ldw	r16,8(sp)
    1980:	dec00504 	addi	sp,sp,20
    1984:	00086201 	jmpi	8620 <mcapi_trans_sclchan_connect_i>
    1988:	8009883a 	mov	r4,r16
    198c:	d9800015 	stw	r6,0(sp)
    1990:	d9c00115 	stw	r7,4(sp)
    1994:	000401c0 	call	401c <mcapi_trans_channel_connected>
    1998:	10803fcc 	andi	r2,r2,255
    199c:	d9800017 	ldw	r6,0(sp)
    19a0:	d9c00117 	ldw	r7,4(sp)
    19a4:	10001026 	beq	r2,zero,19e8 <mcapi_sclchan_connect_i+0xc4>
    19a8:	008007c4 	movi	r2,31
    19ac:	8009883a 	mov	r4,r16
    19b0:	880b883a 	mov	r5,r17
    19b4:	38800015 	stw	r2,0(r7)
    19b8:	dfc00417 	ldw	ra,16(sp)
    19bc:	dc400317 	ldw	r17,12(sp)
    19c0:	dc000217 	ldw	r16,8(sp)
    19c4:	dec00504 	addi	sp,sp,20
    19c8:	00086201 	jmpi	8620 <mcapi_trans_sclchan_connect_i>
    19cc:	00800104 	movi	r2,4
    19d0:	38800015 	stw	r2,0(r7)
    19d4:	dfc00417 	ldw	ra,16(sp)
    19d8:	dc400317 	ldw	r17,12(sp)
    19dc:	dc000217 	ldw	r16,8(sp)
    19e0:	dec00504 	addi	sp,sp,20
    19e4:	f800283a 	ret
    19e8:	8809883a 	mov	r4,r17
    19ec:	d9800015 	stw	r6,0(sp)
    19f0:	d9c00115 	stw	r7,4(sp)
    19f4:	000401c0 	call	401c <mcapi_trans_channel_connected>
    19f8:	10803fcc 	andi	r2,r2,255
    19fc:	d9800017 	ldw	r6,0(sp)
    1a00:	d9c00117 	ldw	r7,4(sp)
    1a04:	103fe81e 	bne	r2,zero,19a8 <mcapi_sclchan_connect_i+0x84>
    1a08:	8009883a 	mov	r4,r16
    1a0c:	880b883a 	mov	r5,r17
    1a10:	00041400 	call	4140 <mcapi_trans_compatible_endpoint_attributes>
    1a14:	10803fcc 	andi	r2,r2,255
    1a18:	d9800017 	ldw	r6,0(sp)
    1a1c:	d9c00117 	ldw	r7,4(sp)
    1a20:	103fd21e 	bne	r2,zero,196c <mcapi_sclchan_connect_i+0x48>
    1a24:	00800504 	movi	r2,20
    1a28:	38800015 	stw	r2,0(r7)
    1a2c:	003fcf06 	br	196c <mcapi_sclchan_connect_i+0x48>

00001a30 <mcapi_sclchan_recv_open_i>:
    1a30:	defffa04 	addi	sp,sp,-24
    1a34:	dd000415 	stw	r20,16(sp)
    1a38:	dcc00315 	stw	r19,12(sp)
    1a3c:	dc800215 	stw	r18,8(sp)
    1a40:	dc400115 	stw	r17,4(sp)
    1a44:	dc000015 	stw	r16,0(sp)
    1a48:	dfc00515 	stw	ra,20(sp)
    1a4c:	04c00044 	movi	r19,1
    1a50:	3cc00015 	stw	r19,0(r7)
    1a54:	3821883a 	mov	r16,r7
    1a58:	3025883a 	mov	r18,r6
    1a5c:	2029883a 	mov	r20,r4
    1a60:	2823883a 	mov	r17,r5
    1a64:	30001c26 	beq	r6,zero,1ad8 <mcapi_sclchan_recv_open_i+0xa8>
    1a68:	2809883a 	mov	r4,r5
    1a6c:	000392c0 	call	392c <mcapi_trans_valid_endpoint>
    1a70:	10803fcc 	andi	r2,r2,255
    1a74:	10000e1e 	bne	r2,zero,1ab0 <mcapi_sclchan_recv_open_i+0x80>
    1a78:	00800304 	movi	r2,12
    1a7c:	80800015 	stw	r2,0(r16)
    1a80:	a009883a 	mov	r4,r20
    1a84:	880b883a 	mov	r5,r17
    1a88:	900d883a 	mov	r6,r18
    1a8c:	800f883a 	mov	r7,r16
    1a90:	dfc00517 	ldw	ra,20(sp)
    1a94:	dd000417 	ldw	r20,16(sp)
    1a98:	dcc00317 	ldw	r19,12(sp)
    1a9c:	dc800217 	ldw	r18,8(sp)
    1aa0:	dc400117 	ldw	r17,4(sp)
    1aa4:	dc000017 	ldw	r16,0(sp)
    1aa8:	dec00604 	addi	sp,sp,24
    1aac:	0005f001 	jmpi	5f00 <mcapi_trans_sclchan_recv_open_i>
    1ab0:	8809883a 	mov	r4,r17
    1ab4:	00036240 	call	3624 <mcapi_trans_channel_type>
    1ab8:	14c01126 	beq	r2,r19,1b00 <mcapi_sclchan_recv_open_i+0xd0>
    1abc:	8809883a 	mov	r4,r17
    1ac0:	00038140 	call	3814 <mcapi_trans_recv_endpoint>
    1ac4:	10803fcc 	andi	r2,r2,255
    1ac8:	103fed1e 	bne	r2,zero,1a80 <mcapi_sclchan_recv_open_i+0x50>
    1acc:	00800784 	movi	r2,30
    1ad0:	80800015 	stw	r2,0(r16)
    1ad4:	003fea06 	br	1a80 <mcapi_sclchan_recv_open_i+0x50>
    1ad8:	00800104 	movi	r2,4
    1adc:	38800015 	stw	r2,0(r7)
    1ae0:	dfc00517 	ldw	ra,20(sp)
    1ae4:	dd000417 	ldw	r20,16(sp)
    1ae8:	dcc00317 	ldw	r19,12(sp)
    1aec:	dc800217 	ldw	r18,8(sp)
    1af0:	dc400117 	ldw	r17,4(sp)
    1af4:	dc000017 	ldw	r16,0(sp)
    1af8:	dec00604 	addi	sp,sp,24
    1afc:	f800283a 	ret
    1b00:	00800744 	movi	r2,29
    1b04:	80800015 	stw	r2,0(r16)
    1b08:	003fdd06 	br	1a80 <mcapi_sclchan_recv_open_i+0x50>

00001b0c <mcapi_sclchan_send_open_i>:
    1b0c:	defffa04 	addi	sp,sp,-24
    1b10:	dd000415 	stw	r20,16(sp)
    1b14:	dcc00315 	stw	r19,12(sp)
    1b18:	dc800215 	stw	r18,8(sp)
    1b1c:	dc400115 	stw	r17,4(sp)
    1b20:	dc000015 	stw	r16,0(sp)
    1b24:	dfc00515 	stw	ra,20(sp)
    1b28:	04c00044 	movi	r19,1
    1b2c:	3cc00015 	stw	r19,0(r7)
    1b30:	3821883a 	mov	r16,r7
    1b34:	3025883a 	mov	r18,r6
    1b38:	2029883a 	mov	r20,r4
    1b3c:	2823883a 	mov	r17,r5
    1b40:	30001c26 	beq	r6,zero,1bb4 <mcapi_sclchan_send_open_i+0xa8>
    1b44:	2809883a 	mov	r4,r5
    1b48:	000392c0 	call	392c <mcapi_trans_valid_endpoint>
    1b4c:	10803fcc 	andi	r2,r2,255
    1b50:	10000e1e 	bne	r2,zero,1b8c <mcapi_sclchan_send_open_i+0x80>
    1b54:	00800304 	movi	r2,12
    1b58:	80800015 	stw	r2,0(r16)
    1b5c:	a009883a 	mov	r4,r20
    1b60:	880b883a 	mov	r5,r17
    1b64:	900d883a 	mov	r6,r18
    1b68:	800f883a 	mov	r7,r16
    1b6c:	dfc00517 	ldw	ra,20(sp)
    1b70:	dd000417 	ldw	r20,16(sp)
    1b74:	dcc00317 	ldw	r19,12(sp)
    1b78:	dc800217 	ldw	r18,8(sp)
    1b7c:	dc400117 	ldw	r17,4(sp)
    1b80:	dc000017 	ldw	r16,0(sp)
    1b84:	dec00604 	addi	sp,sp,24
    1b88:	000621c1 	jmpi	621c <mcapi_trans_sclchan_send_open_i>
    1b8c:	8809883a 	mov	r4,r17
    1b90:	00036240 	call	3624 <mcapi_trans_channel_type>
    1b94:	14c01126 	beq	r2,r19,1bdc <mcapi_sclchan_send_open_i+0xd0>
    1b98:	8809883a 	mov	r4,r17
    1b9c:	00037140 	call	3714 <mcapi_trans_send_endpoint>
    1ba0:	10803fcc 	andi	r2,r2,255
    1ba4:	103fed1e 	bne	r2,zero,1b5c <mcapi_sclchan_send_open_i+0x50>
    1ba8:	00800784 	movi	r2,30
    1bac:	80800015 	stw	r2,0(r16)
    1bb0:	003fea06 	br	1b5c <mcapi_sclchan_send_open_i+0x50>
    1bb4:	00800104 	movi	r2,4
    1bb8:	38800015 	stw	r2,0(r7)
    1bbc:	dfc00517 	ldw	ra,20(sp)
    1bc0:	dd000417 	ldw	r20,16(sp)
    1bc4:	dcc00317 	ldw	r19,12(sp)
    1bc8:	dc800217 	ldw	r18,8(sp)
    1bcc:	dc400117 	ldw	r17,4(sp)
    1bd0:	dc000017 	ldw	r16,0(sp)
    1bd4:	dec00604 	addi	sp,sp,24
    1bd8:	f800283a 	ret
    1bdc:	00800744 	movi	r2,29
    1be0:	80800015 	stw	r2,0(r16)
    1be4:	003fdd06 	br	1b5c <mcapi_sclchan_send_open_i+0x50>

00001be8 <mcapi_sclchan_send_uint64>:
    1be8:	defffb04 	addi	sp,sp,-20
    1bec:	dcc00315 	stw	r19,12(sp)
    1bf0:	dc800215 	stw	r18,8(sp)
    1bf4:	dc400115 	stw	r17,4(sp)
    1bf8:	dc000015 	stw	r16,0(sp)
    1bfc:	dfc00415 	stw	ra,16(sp)
    1c00:	00800044 	movi	r2,1
    1c04:	38800015 	stw	r2,0(r7)
    1c08:	3821883a 	mov	r16,r7
    1c0c:	2023883a 	mov	r17,r4
    1c10:	2827883a 	mov	r19,r5
    1c14:	3025883a 	mov	r18,r6
    1c18:	00043280 	call	4328 <mcapi_trans_valid_sclchan_send_handle>
    1c1c:	10803fcc 	andi	r2,r2,255
    1c20:	1000091e 	bne	r2,zero,1c48 <mcapi_sclchan_send_uint64+0x60>
    1c24:	00800884 	movi	r2,34
    1c28:	80800015 	stw	r2,0(r16)
    1c2c:	dfc00417 	ldw	ra,16(sp)
    1c30:	dcc00317 	ldw	r19,12(sp)
    1c34:	dc800217 	ldw	r18,8(sp)
    1c38:	dc400117 	ldw	r17,4(sp)
    1c3c:	dc000017 	ldw	r16,0(sp)
    1c40:	dec00504 	addi	sp,sp,20
    1c44:	f800283a 	ret
    1c48:	8809883a 	mov	r4,r17
    1c4c:	980b883a 	mov	r5,r19
    1c50:	900d883a 	mov	r6,r18
    1c54:	01c00204 	movi	r7,8
    1c58:	00091e40 	call	91e4 <mcapi_trans_sclchan_send>
    1c5c:	10803fcc 	andi	r2,r2,255
    1c60:	103ff21e 	bne	r2,zero,1c2c <mcapi_sclchan_send_uint64+0x44>
    1c64:	00800a04 	movi	r2,40
    1c68:	80800015 	stw	r2,0(r16)
    1c6c:	dfc00417 	ldw	ra,16(sp)
    1c70:	dcc00317 	ldw	r19,12(sp)
    1c74:	dc800217 	ldw	r18,8(sp)
    1c78:	dc400117 	ldw	r17,4(sp)
    1c7c:	dc000017 	ldw	r16,0(sp)
    1c80:	dec00504 	addi	sp,sp,20
    1c84:	f800283a 	ret

00001c88 <mcapi_sclchan_send_uint32>:
    1c88:	defffc04 	addi	sp,sp,-16
    1c8c:	dc400115 	stw	r17,4(sp)
    1c90:	2023883a 	mov	r17,r4
    1c94:	3009883a 	mov	r4,r6
    1c98:	dc800215 	stw	r18,8(sp)
    1c9c:	dc000015 	stw	r16,0(sp)
    1ca0:	dfc00315 	stw	ra,12(sp)
    1ca4:	3021883a 	mov	r16,r6
    1ca8:	2825883a 	mov	r18,r5
    1cac:	00047780 	call	4778 <mcapi_trans_valid_status_param>
    1cb0:	10803fcc 	andi	r2,r2,255
    1cb4:	1000091e 	bne	r2,zero,1cdc <mcapi_sclchan_send_uint32+0x54>
    1cb8:	80000226 	beq	r16,zero,1cc4 <mcapi_sclchan_send_uint32+0x3c>
    1cbc:	00800104 	movi	r2,4
    1cc0:	80800015 	stw	r2,0(r16)
    1cc4:	dfc00317 	ldw	ra,12(sp)
    1cc8:	dc800217 	ldw	r18,8(sp)
    1ccc:	dc400117 	ldw	r17,4(sp)
    1cd0:	dc000017 	ldw	r16,0(sp)
    1cd4:	dec00404 	addi	sp,sp,16
    1cd8:	f800283a 	ret
    1cdc:	00800044 	movi	r2,1
    1ce0:	80800015 	stw	r2,0(r16)
    1ce4:	8809883a 	mov	r4,r17
    1ce8:	00043280 	call	4328 <mcapi_trans_valid_sclchan_send_handle>
    1cec:	10803fcc 	andi	r2,r2,255
    1cf0:	1000081e 	bne	r2,zero,1d14 <mcapi_sclchan_send_uint32+0x8c>
    1cf4:	00800884 	movi	r2,34
    1cf8:	80800015 	stw	r2,0(r16)
    1cfc:	dfc00317 	ldw	ra,12(sp)
    1d00:	dc800217 	ldw	r18,8(sp)
    1d04:	dc400117 	ldw	r17,4(sp)
    1d08:	dc000017 	ldw	r16,0(sp)
    1d0c:	dec00404 	addi	sp,sp,16
    1d10:	f800283a 	ret
    1d14:	8809883a 	mov	r4,r17
    1d18:	900b883a 	mov	r5,r18
    1d1c:	000d883a 	mov	r6,zero
    1d20:	01c00104 	movi	r7,4
    1d24:	00091e40 	call	91e4 <mcapi_trans_sclchan_send>
    1d28:	10803fcc 	andi	r2,r2,255
    1d2c:	103fe51e 	bne	r2,zero,1cc4 <mcapi_sclchan_send_uint32+0x3c>
    1d30:	00800a04 	movi	r2,40
    1d34:	80800015 	stw	r2,0(r16)
    1d38:	003fe206 	br	1cc4 <mcapi_sclchan_send_uint32+0x3c>

00001d3c <mcapi_sclchan_send_uint16>:
    1d3c:	defffc04 	addi	sp,sp,-16
    1d40:	dc800215 	stw	r18,8(sp)
    1d44:	dc400115 	stw	r17,4(sp)
    1d48:	dc000015 	stw	r16,0(sp)
    1d4c:	dfc00315 	stw	ra,12(sp)
    1d50:	00800044 	movi	r2,1
    1d54:	30800015 	stw	r2,0(r6)
    1d58:	3021883a 	mov	r16,r6
    1d5c:	2023883a 	mov	r17,r4
    1d60:	2825883a 	mov	r18,r5
    1d64:	00043280 	call	4328 <mcapi_trans_valid_sclchan_send_handle>
    1d68:	10803fcc 	andi	r2,r2,255
    1d6c:	1000081e 	bne	r2,zero,1d90 <mcapi_sclchan_send_uint16+0x54>
    1d70:	00800884 	movi	r2,34
    1d74:	80800015 	stw	r2,0(r16)
    1d78:	dfc00317 	ldw	ra,12(sp)
    1d7c:	dc800217 	ldw	r18,8(sp)
    1d80:	dc400117 	ldw	r17,4(sp)
    1d84:	dc000017 	ldw	r16,0(sp)
    1d88:	dec00404 	addi	sp,sp,16
    1d8c:	f800283a 	ret
    1d90:	8809883a 	mov	r4,r17
    1d94:	917fffcc 	andi	r5,r18,65535
    1d98:	000d883a 	mov	r6,zero
    1d9c:	01c00084 	movi	r7,2
    1da0:	00091e40 	call	91e4 <mcapi_trans_sclchan_send>
    1da4:	10803fcc 	andi	r2,r2,255
    1da8:	103ff31e 	bne	r2,zero,1d78 <mcapi_sclchan_send_uint16+0x3c>
    1dac:	00800a04 	movi	r2,40
    1db0:	80800015 	stw	r2,0(r16)
    1db4:	dfc00317 	ldw	ra,12(sp)
    1db8:	dc800217 	ldw	r18,8(sp)
    1dbc:	dc400117 	ldw	r17,4(sp)
    1dc0:	dc000017 	ldw	r16,0(sp)
    1dc4:	dec00404 	addi	sp,sp,16
    1dc8:	f800283a 	ret

00001dcc <mcapi_sclchan_send_uint8>:
    1dcc:	defffb04 	addi	sp,sp,-20
    1dd0:	dcc00315 	stw	r19,12(sp)
    1dd4:	dc800215 	stw	r18,8(sp)
    1dd8:	dc400115 	stw	r17,4(sp)
    1ddc:	dc000015 	stw	r16,0(sp)
    1de0:	dfc00415 	stw	ra,16(sp)
    1de4:	04400044 	movi	r17,1
    1de8:	34400015 	stw	r17,0(r6)
    1dec:	3021883a 	mov	r16,r6
    1df0:	2025883a 	mov	r18,r4
    1df4:	2827883a 	mov	r19,r5
    1df8:	00043280 	call	4328 <mcapi_trans_valid_sclchan_send_handle>
    1dfc:	10803fcc 	andi	r2,r2,255
    1e00:	1000091e 	bne	r2,zero,1e28 <mcapi_sclchan_send_uint8+0x5c>
    1e04:	00800884 	movi	r2,34
    1e08:	80800015 	stw	r2,0(r16)
    1e0c:	dfc00417 	ldw	ra,16(sp)
    1e10:	dcc00317 	ldw	r19,12(sp)
    1e14:	dc800217 	ldw	r18,8(sp)
    1e18:	dc400117 	ldw	r17,4(sp)
    1e1c:	dc000017 	ldw	r16,0(sp)
    1e20:	dec00504 	addi	sp,sp,20
    1e24:	f800283a 	ret
    1e28:	9009883a 	mov	r4,r18
    1e2c:	99403fcc 	andi	r5,r19,255
    1e30:	000d883a 	mov	r6,zero
    1e34:	880f883a 	mov	r7,r17
    1e38:	00091e40 	call	91e4 <mcapi_trans_sclchan_send>
    1e3c:	10803fcc 	andi	r2,r2,255
    1e40:	103ff21e 	bne	r2,zero,1e0c <mcapi_sclchan_send_uint8+0x40>
    1e44:	00800a04 	movi	r2,40
    1e48:	80800015 	stw	r2,0(r16)
    1e4c:	dfc00417 	ldw	ra,16(sp)
    1e50:	dcc00317 	ldw	r19,12(sp)
    1e54:	dc800217 	ldw	r18,8(sp)
    1e58:	dc400117 	ldw	r17,4(sp)
    1e5c:	dc000017 	ldw	r16,0(sp)
    1e60:	dec00504 	addi	sp,sp,20
    1e64:	f800283a 	ret

00001e68 <mcapi_sclchan_recv_uint64>:
    1e68:	defffb04 	addi	sp,sp,-20
    1e6c:	dc400315 	stw	r17,12(sp)
    1e70:	dc000215 	stw	r16,8(sp)
    1e74:	dfc00415 	stw	ra,16(sp)
    1e78:	00800044 	movi	r2,1
    1e7c:	28800015 	stw	r2,0(r5)
    1e80:	2821883a 	mov	r16,r5
    1e84:	2023883a 	mov	r17,r4
    1e88:	d8000015 	stw	zero,0(sp)
    1e8c:	d8000115 	stw	zero,4(sp)
    1e90:	00044180 	call	4418 <mcapi_trans_valid_sclchan_recv_handle>
    1e94:	10803fcc 	andi	r2,r2,255
    1e98:	1000091e 	bne	r2,zero,1ec0 <mcapi_sclchan_recv_uint64+0x58>
    1e9c:	00800884 	movi	r2,34
    1ea0:	80800015 	stw	r2,0(r16)
    1ea4:	d8800017 	ldw	r2,0(sp)
    1ea8:	d8c00117 	ldw	r3,4(sp)
    1eac:	dfc00417 	ldw	ra,16(sp)
    1eb0:	dc400317 	ldw	r17,12(sp)
    1eb4:	dc000217 	ldw	r16,8(sp)
    1eb8:	dec00504 	addi	sp,sp,20
    1ebc:	f800283a 	ret
    1ec0:	8809883a 	mov	r4,r17
    1ec4:	d80b883a 	mov	r5,sp
    1ec8:	01800204 	movi	r6,8
    1ecc:	000bb940 	call	bb94 <mcapi_trans_sclchan_recv>
    1ed0:	10803fcc 	andi	r2,r2,255
    1ed4:	103ff31e 	bne	r2,zero,1ea4 <mcapi_sclchan_recv_uint64+0x3c>
    1ed8:	00800904 	movi	r2,36
    1edc:	80800015 	stw	r2,0(r16)
    1ee0:	d8c00117 	ldw	r3,4(sp)
    1ee4:	d8800017 	ldw	r2,0(sp)
    1ee8:	dfc00417 	ldw	ra,16(sp)
    1eec:	dc400317 	ldw	r17,12(sp)
    1ef0:	dc000217 	ldw	r16,8(sp)
    1ef4:	dec00504 	addi	sp,sp,20
    1ef8:	f800283a 	ret

00001efc <mcapi_sclchan_recv_uint32>:
    1efc:	defffb04 	addi	sp,sp,-20
    1f00:	dc400315 	stw	r17,12(sp)
    1f04:	dc000215 	stw	r16,8(sp)
    1f08:	dfc00415 	stw	ra,16(sp)
    1f0c:	00800044 	movi	r2,1
    1f10:	28800015 	stw	r2,0(r5)
    1f14:	2821883a 	mov	r16,r5
    1f18:	2023883a 	mov	r17,r4
    1f1c:	d8000015 	stw	zero,0(sp)
    1f20:	d8000115 	stw	zero,4(sp)
    1f24:	00044180 	call	4418 <mcapi_trans_valid_sclchan_recv_handle>
    1f28:	10803fcc 	andi	r2,r2,255
    1f2c:	1000081e 	bne	r2,zero,1f50 <mcapi_sclchan_recv_uint32+0x54>
    1f30:	00800884 	movi	r2,34
    1f34:	80800015 	stw	r2,0(r16)
    1f38:	d8800017 	ldw	r2,0(sp)
    1f3c:	dfc00417 	ldw	ra,16(sp)
    1f40:	dc400317 	ldw	r17,12(sp)
    1f44:	dc000217 	ldw	r16,8(sp)
    1f48:	dec00504 	addi	sp,sp,20
    1f4c:	f800283a 	ret
    1f50:	8809883a 	mov	r4,r17
    1f54:	d80b883a 	mov	r5,sp
    1f58:	01800104 	movi	r6,4
    1f5c:	000bb940 	call	bb94 <mcapi_trans_sclchan_recv>
    1f60:	10803fcc 	andi	r2,r2,255
    1f64:	103ff41e 	bne	r2,zero,1f38 <mcapi_sclchan_recv_uint32+0x3c>
    1f68:	00800904 	movi	r2,36
    1f6c:	80800015 	stw	r2,0(r16)
    1f70:	d8800017 	ldw	r2,0(sp)
    1f74:	dfc00417 	ldw	ra,16(sp)
    1f78:	dc400317 	ldw	r17,12(sp)
    1f7c:	dc000217 	ldw	r16,8(sp)
    1f80:	dec00504 	addi	sp,sp,20
    1f84:	f800283a 	ret

00001f88 <mcapi_sclchan_recv_uint16>:
    1f88:	defffb04 	addi	sp,sp,-20
    1f8c:	dc400315 	stw	r17,12(sp)
    1f90:	dc000215 	stw	r16,8(sp)
    1f94:	dfc00415 	stw	ra,16(sp)
    1f98:	00800044 	movi	r2,1
    1f9c:	28800015 	stw	r2,0(r5)
    1fa0:	2821883a 	mov	r16,r5
    1fa4:	2023883a 	mov	r17,r4
    1fa8:	d8000015 	stw	zero,0(sp)
    1fac:	d8000115 	stw	zero,4(sp)
    1fb0:	00044180 	call	4418 <mcapi_trans_valid_sclchan_recv_handle>
    1fb4:	10803fcc 	andi	r2,r2,255
    1fb8:	1000081e 	bne	r2,zero,1fdc <mcapi_sclchan_recv_uint16+0x54>
    1fbc:	00800884 	movi	r2,34
    1fc0:	80800015 	stw	r2,0(r16)
    1fc4:	d880000b 	ldhu	r2,0(sp)
    1fc8:	dfc00417 	ldw	ra,16(sp)
    1fcc:	dc400317 	ldw	r17,12(sp)
    1fd0:	dc000217 	ldw	r16,8(sp)
    1fd4:	dec00504 	addi	sp,sp,20
    1fd8:	f800283a 	ret
    1fdc:	8809883a 	mov	r4,r17
    1fe0:	d80b883a 	mov	r5,sp
    1fe4:	01800084 	movi	r6,2
    1fe8:	000bb940 	call	bb94 <mcapi_trans_sclchan_recv>
    1fec:	10803fcc 	andi	r2,r2,255
    1ff0:	103ff41e 	bne	r2,zero,1fc4 <mcapi_sclchan_recv_uint16+0x3c>
    1ff4:	00800904 	movi	r2,36
    1ff8:	80800015 	stw	r2,0(r16)
    1ffc:	d880000b 	ldhu	r2,0(sp)
    2000:	dfc00417 	ldw	ra,16(sp)
    2004:	dc400317 	ldw	r17,12(sp)
    2008:	dc000217 	ldw	r16,8(sp)
    200c:	dec00504 	addi	sp,sp,20
    2010:	f800283a 	ret

00002014 <mcapi_sclchan_recv_uint8>:
    2014:	defffa04 	addi	sp,sp,-24
    2018:	dc800415 	stw	r18,16(sp)
    201c:	dc400315 	stw	r17,12(sp)
    2020:	dc000215 	stw	r16,8(sp)
    2024:	dfc00515 	stw	ra,20(sp)
    2028:	04400044 	movi	r17,1
    202c:	2c400015 	stw	r17,0(r5)
    2030:	2821883a 	mov	r16,r5
    2034:	2025883a 	mov	r18,r4
    2038:	d8000015 	stw	zero,0(sp)
    203c:	d8000115 	stw	zero,4(sp)
    2040:	00044180 	call	4418 <mcapi_trans_valid_sclchan_recv_handle>
    2044:	10803fcc 	andi	r2,r2,255
    2048:	1000091e 	bne	r2,zero,2070 <mcapi_sclchan_recv_uint8+0x5c>
    204c:	00800884 	movi	r2,34
    2050:	80800015 	stw	r2,0(r16)
    2054:	d8800003 	ldbu	r2,0(sp)
    2058:	dfc00517 	ldw	ra,20(sp)
    205c:	dc800417 	ldw	r18,16(sp)
    2060:	dc400317 	ldw	r17,12(sp)
    2064:	dc000217 	ldw	r16,8(sp)
    2068:	dec00604 	addi	sp,sp,24
    206c:	f800283a 	ret
    2070:	9009883a 	mov	r4,r18
    2074:	d80b883a 	mov	r5,sp
    2078:	880d883a 	mov	r6,r17
    207c:	000bb940 	call	bb94 <mcapi_trans_sclchan_recv>
    2080:	10803fcc 	andi	r2,r2,255
    2084:	103ff31e 	bne	r2,zero,2054 <mcapi_sclchan_recv_uint8+0x40>
    2088:	00800904 	movi	r2,36
    208c:	80800015 	stw	r2,0(r16)
    2090:	d8800003 	ldbu	r2,0(sp)
    2094:	dfc00517 	ldw	ra,20(sp)
    2098:	dc800417 	ldw	r18,16(sp)
    209c:	dc400317 	ldw	r17,12(sp)
    20a0:	dc000217 	ldw	r16,8(sp)
    20a4:	dec00604 	addi	sp,sp,24
    20a8:	f800283a 	ret

000020ac <mcapi_sclchan_available>:
    20ac:	00800044 	movi	r2,1
    20b0:	defffd04 	addi	sp,sp,-12
    20b4:	28800015 	stw	r2,0(r5)
    20b8:	dc400115 	stw	r17,4(sp)
    20bc:	dc000015 	stw	r16,0(sp)
    20c0:	dfc00215 	stw	ra,8(sp)
    20c4:	2821883a 	mov	r16,r5
    20c8:	2023883a 	mov	r17,r4
    20cc:	00044180 	call	4418 <mcapi_trans_valid_sclchan_recv_handle>
    20d0:	10803fcc 	andi	r2,r2,255
    20d4:	1000081e 	bne	r2,zero,20f8 <mcapi_sclchan_available+0x4c>
    20d8:	00800884 	movi	r2,34
    20dc:	80800015 	stw	r2,0(r16)
    20e0:	0005883a 	mov	r2,zero
    20e4:	dfc00217 	ldw	ra,8(sp)
    20e8:	dc400117 	ldw	r17,4(sp)
    20ec:	dc000017 	ldw	r16,0(sp)
    20f0:	dec00304 	addi	sp,sp,12
    20f4:	f800283a 	ret
    20f8:	8809883a 	mov	r4,r17
    20fc:	dfc00217 	ldw	ra,8(sp)
    2100:	dc400117 	ldw	r17,4(sp)
    2104:	dc000017 	ldw	r16,0(sp)
    2108:	dec00304 	addi	sp,sp,12
    210c:	00065381 	jmpi	6538 <mcapi_trans_sclchan_available_i>

00002110 <mcapi_sclchan_recv_close_i>:
    2110:	defffc04 	addi	sp,sp,-16
    2114:	dc000215 	stw	r16,8(sp)
    2118:	dfc00315 	stw	ra,12(sp)
    211c:	00800044 	movi	r2,1
    2120:	30800015 	stw	r2,0(r6)
    2124:	2021883a 	mov	r16,r4
    2128:	28001d26 	beq	r5,zero,21a0 <mcapi_sclchan_recv_close_i+0x90>
    212c:	d9400015 	stw	r5,0(sp)
    2130:	d9800115 	stw	r6,4(sp)
    2134:	00044180 	call	4418 <mcapi_trans_valid_sclchan_recv_handle>
    2138:	10803fcc 	andi	r2,r2,255
    213c:	d9400017 	ldw	r5,0(sp)
    2140:	d9800117 	ldw	r6,4(sp)
    2144:	1000071e 	bne	r2,zero,2164 <mcapi_sclchan_recv_close_i+0x54>
    2148:	00800884 	movi	r2,34
    214c:	30800015 	stw	r2,0(r6)
    2150:	8009883a 	mov	r4,r16
    2154:	dfc00317 	ldw	ra,12(sp)
    2158:	dc000217 	ldw	r16,8(sp)
    215c:	dec00404 	addi	sp,sp,16
    2160:	000b0601 	jmpi	b060 <mcapi_trans_sclchan_recv_close_i>
    2164:	8009883a 	mov	r4,r16
    2168:	d9400015 	stw	r5,0(sp)
    216c:	d9800115 	stw	r6,4(sp)
    2170:	0003ee80 	call	3ee8 <mcapi_trans_sclchan_recv_isopen>
    2174:	10803fcc 	andi	r2,r2,255
    2178:	d9400017 	ldw	r5,0(sp)
    217c:	d9800117 	ldw	r6,4(sp)
    2180:	103ff31e 	bne	r2,zero,2150 <mcapi_sclchan_recv_close_i+0x40>
    2184:	00800844 	movi	r2,33
    2188:	8009883a 	mov	r4,r16
    218c:	30800015 	stw	r2,0(r6)
    2190:	dfc00317 	ldw	ra,12(sp)
    2194:	dc000217 	ldw	r16,8(sp)
    2198:	dec00404 	addi	sp,sp,16
    219c:	000b0601 	jmpi	b060 <mcapi_trans_sclchan_recv_close_i>
    21a0:	00800104 	movi	r2,4
    21a4:	30800015 	stw	r2,0(r6)
    21a8:	dfc00317 	ldw	ra,12(sp)
    21ac:	dc000217 	ldw	r16,8(sp)
    21b0:	dec00404 	addi	sp,sp,16
    21b4:	f800283a 	ret

000021b8 <mcapi_sclchan_send_close_i>:
    21b8:	defffc04 	addi	sp,sp,-16
    21bc:	dc000215 	stw	r16,8(sp)
    21c0:	dfc00315 	stw	ra,12(sp)
    21c4:	00800044 	movi	r2,1
    21c8:	30800015 	stw	r2,0(r6)
    21cc:	2021883a 	mov	r16,r4
    21d0:	28001d26 	beq	r5,zero,2248 <mcapi_sclchan_send_close_i+0x90>
    21d4:	d9400015 	stw	r5,0(sp)
    21d8:	d9800115 	stw	r6,4(sp)
    21dc:	00044180 	call	4418 <mcapi_trans_valid_sclchan_recv_handle>
    21e0:	10803fcc 	andi	r2,r2,255
    21e4:	d9400017 	ldw	r5,0(sp)
    21e8:	d9800117 	ldw	r6,4(sp)
    21ec:	1000071e 	bne	r2,zero,220c <mcapi_sclchan_send_close_i+0x54>
    21f0:	00800884 	movi	r2,34
    21f4:	30800015 	stw	r2,0(r6)
    21f8:	8009883a 	mov	r4,r16
    21fc:	dfc00317 	ldw	ra,12(sp)
    2200:	dc000217 	ldw	r16,8(sp)
    2204:	dec00404 	addi	sp,sp,16
    2208:	00066281 	jmpi	6628 <mcapi_trans_sclchan_send_close_i>
    220c:	8009883a 	mov	r4,r16
    2210:	d9400015 	stw	r5,0(sp)
    2214:	d9800115 	stw	r6,4(sp)
    2218:	0003ee40 	call	3ee4 <mcapi_trans_sclchan_send_isopen>
    221c:	10803fcc 	andi	r2,r2,255
    2220:	d9400017 	ldw	r5,0(sp)
    2224:	d9800117 	ldw	r6,4(sp)
    2228:	103ff31e 	bne	r2,zero,21f8 <mcapi_sclchan_send_close_i+0x40>
    222c:	00800844 	movi	r2,33
    2230:	8009883a 	mov	r4,r16
    2234:	30800015 	stw	r2,0(r6)
    2238:	dfc00317 	ldw	ra,12(sp)
    223c:	dc000217 	ldw	r16,8(sp)
    2240:	dec00404 	addi	sp,sp,16
    2244:	00066281 	jmpi	6628 <mcapi_trans_sclchan_send_close_i>
    2248:	00800104 	movi	r2,4
    224c:	30800015 	stw	r2,0(r6)
    2250:	dfc00317 	ldw	ra,12(sp)
    2254:	dc000217 	ldw	r16,8(sp)
    2258:	dec00404 	addi	sp,sp,16
    225c:	f800283a 	ret

00002260 <mcapi_test>:
    2260:	defffc04 	addi	sp,sp,-16
    2264:	dc800215 	stw	r18,8(sp)
    2268:	dc400115 	stw	r17,4(sp)
    226c:	dc000015 	stw	r16,0(sp)
    2270:	dfc00315 	stw	ra,12(sp)
    2274:	00800044 	movi	r2,1
    2278:	2025883a 	mov	r18,r4
    227c:	30800015 	stw	r2,0(r6)
    2280:	2809883a 	mov	r4,r5
    2284:	2823883a 	mov	r17,r5
    2288:	3021883a 	mov	r16,r6
    228c:	00047b00 	call	47b0 <mcapi_trans_valid_size_param>
    2290:	10803fcc 	andi	r2,r2,255
    2294:	1000091e 	bne	r2,zero,22bc <mcapi_test+0x5c>
    2298:	00800104 	movi	r2,4
    229c:	80800015 	stw	r2,0(r16)
    22a0:	00800044 	movi	r2,1
    22a4:	dfc00317 	ldw	ra,12(sp)
    22a8:	dc800217 	ldw	r18,8(sp)
    22ac:	dc400117 	ldw	r17,4(sp)
    22b0:	dc000017 	ldw	r16,0(sp)
    22b4:	dec00404 	addi	sp,sp,16
    22b8:	f800283a 	ret
    22bc:	9009883a 	mov	r4,r18
    22c0:	00047900 	call	4790 <mcapi_trans_valid_request_handle>
    22c4:	10803fcc 	andi	r2,r2,255
    22c8:	1000091e 	bne	r2,zero,22f0 <mcapi_test+0x90>
    22cc:	00800a44 	movi	r2,41
    22d0:	80800015 	stw	r2,0(r16)
    22d4:	00800044 	movi	r2,1
    22d8:	dfc00317 	ldw	ra,12(sp)
    22dc:	dc800217 	ldw	r18,8(sp)
    22e0:	dc400117 	ldw	r17,4(sp)
    22e4:	dc000017 	ldw	r16,0(sp)
    22e8:	dec00404 	addi	sp,sp,16
    22ec:	f800283a 	ret
    22f0:	9009883a 	mov	r4,r18
    22f4:	880b883a 	mov	r5,r17
    22f8:	800d883a 	mov	r6,r16
    22fc:	dfc00317 	ldw	ra,12(sp)
    2300:	dc800217 	ldw	r18,8(sp)
    2304:	dc400117 	ldw	r17,4(sp)
    2308:	dc000017 	ldw	r16,0(sp)
    230c:	dec00404 	addi	sp,sp,16
    2310:	0007f001 	jmpi	7f00 <mcapi_trans_test_i>

00002314 <mcapi_wait>:
    2314:	defffa04 	addi	sp,sp,-24
    2318:	dd000415 	stw	r20,16(sp)
    231c:	dcc00315 	stw	r19,12(sp)
    2320:	dc800215 	stw	r18,8(sp)
    2324:	dc400115 	stw	r17,4(sp)
    2328:	dc000015 	stw	r16,0(sp)
    232c:	dfc00515 	stw	ra,20(sp)
    2330:	04400044 	movi	r17,1
    2334:	2027883a 	mov	r19,r4
    2338:	3c400015 	stw	r17,0(r7)
    233c:	2809883a 	mov	r4,r5
    2340:	2825883a 	mov	r18,r5
    2344:	3821883a 	mov	r16,r7
    2348:	3029883a 	mov	r20,r6
    234c:	00047b00 	call	47b0 <mcapi_trans_valid_size_param>
    2350:	10803fcc 	andi	r2,r2,255
    2354:	10000b1e 	bne	r2,zero,2384 <mcapi_wait+0x70>
    2358:	00800104 	movi	r2,4
    235c:	80800015 	stw	r2,0(r16)
    2360:	8805883a 	mov	r2,r17
    2364:	dfc00517 	ldw	ra,20(sp)
    2368:	dd000417 	ldw	r20,16(sp)
    236c:	dcc00317 	ldw	r19,12(sp)
    2370:	dc800217 	ldw	r18,8(sp)
    2374:	dc400117 	ldw	r17,4(sp)
    2378:	dc000017 	ldw	r16,0(sp)
    237c:	dec00604 	addi	sp,sp,24
    2380:	f800283a 	ret
    2384:	9809883a 	mov	r4,r19
    2388:	00047900 	call	4790 <mcapi_trans_valid_request_handle>
    238c:	10803fcc 	andi	r2,r2,255
    2390:	10000b1e 	bne	r2,zero,23c0 <mcapi_wait+0xac>
    2394:	00800a44 	movi	r2,41
    2398:	80800015 	stw	r2,0(r16)
    239c:	0005883a 	mov	r2,zero
    23a0:	dfc00517 	ldw	ra,20(sp)
    23a4:	dd000417 	ldw	r20,16(sp)
    23a8:	dcc00317 	ldw	r19,12(sp)
    23ac:	dc800217 	ldw	r18,8(sp)
    23b0:	dc400117 	ldw	r17,4(sp)
    23b4:	dc000017 	ldw	r16,0(sp)
    23b8:	dec00604 	addi	sp,sp,24
    23bc:	f800283a 	ret
    23c0:	9809883a 	mov	r4,r19
    23c4:	900b883a 	mov	r5,r18
    23c8:	800d883a 	mov	r6,r16
    23cc:	a00f883a 	mov	r7,r20
    23d0:	dfc00517 	ldw	ra,20(sp)
    23d4:	dd000417 	ldw	r20,16(sp)
    23d8:	dcc00317 	ldw	r19,12(sp)
    23dc:	dc800217 	ldw	r18,8(sp)
    23e0:	dc400117 	ldw	r17,4(sp)
    23e4:	dc000017 	ldw	r16,0(sp)
    23e8:	dec00604 	addi	sp,sp,24
    23ec:	00083901 	jmpi	8390 <mcapi_trans_wait>

000023f0 <mcapi_wait_any>:
    23f0:	defff904 	addi	sp,sp,-28
    23f4:	dc400115 	stw	r17,4(sp)
    23f8:	dc400717 	ldw	r17,28(sp)
    23fc:	dd400515 	stw	r21,20(sp)
    2400:	dd000415 	stw	r20,16(sp)
    2404:	dcc00315 	stw	r19,12(sp)
    2408:	dc800215 	stw	r18,8(sp)
    240c:	dc000015 	stw	r16,0(sp)
    2410:	dfc00615 	stw	ra,24(sp)
    2414:	04000044 	movi	r16,1
    2418:	2027883a 	mov	r19,r4
    241c:	8c000015 	stw	r16,0(r17)
    2420:	3009883a 	mov	r4,r6
    2424:	3025883a 	mov	r18,r6
    2428:	2829883a 	mov	r20,r5
    242c:	382b883a 	mov	r21,r7
    2430:	00047b00 	call	47b0 <mcapi_trans_valid_size_param>
    2434:	10803fcc 	andi	r2,r2,255
    2438:	10000c1e 	bne	r2,zero,246c <mcapi_wait_any+0x7c>
    243c:	00800104 	movi	r2,4
    2440:	88800015 	stw	r2,0(r17)
    2444:	8005883a 	mov	r2,r16
    2448:	dfc00617 	ldw	ra,24(sp)
    244c:	dd400517 	ldw	r21,20(sp)
    2450:	dd000417 	ldw	r20,16(sp)
    2454:	dcc00317 	ldw	r19,12(sp)
    2458:	dc800217 	ldw	r18,8(sp)
    245c:	dc400117 	ldw	r17,4(sp)
    2460:	dc000017 	ldw	r16,0(sp)
    2464:	dec00704 	addi	sp,sp,28
    2468:	f800283a 	ret
    246c:	9809883a 	mov	r4,r19
    2470:	a00b883a 	mov	r5,r20
    2474:	900d883a 	mov	r6,r18
    2478:	880f883a 	mov	r7,r17
    247c:	dd400715 	stw	r21,28(sp)
    2480:	dfc00617 	ldw	ra,24(sp)
    2484:	dd400517 	ldw	r21,20(sp)
    2488:	dd000417 	ldw	r20,16(sp)
    248c:	dcc00317 	ldw	r19,12(sp)
    2490:	dc800217 	ldw	r18,8(sp)
    2494:	dc400117 	ldw	r17,4(sp)
    2498:	dc000017 	ldw	r16,0(sp)
    249c:	dec00704 	addi	sp,sp,28
    24a0:	00082081 	jmpi	8208 <mcapi_trans_wait_any>

000024a4 <mcapi_cancel>:
    24a4:	defffd04 	addi	sp,sp,-12
    24a8:	dc400115 	stw	r17,4(sp)
    24ac:	dc000015 	stw	r16,0(sp)
    24b0:	dfc00215 	stw	ra,8(sp)
    24b4:	00800044 	movi	r2,1
    24b8:	28800015 	stw	r2,0(r5)
    24bc:	2821883a 	mov	r16,r5
    24c0:	2023883a 	mov	r17,r4
    24c4:	00047900 	call	4790 <mcapi_trans_valid_request_handle>
    24c8:	10803fcc 	andi	r2,r2,255
    24cc:	1000071e 	bne	r2,zero,24ec <mcapi_cancel+0x48>
    24d0:	00800a44 	movi	r2,41
    24d4:	80800015 	stw	r2,0(r16)
    24d8:	dfc00217 	ldw	ra,8(sp)
    24dc:	dc400117 	ldw	r17,4(sp)
    24e0:	dc000017 	ldw	r16,0(sp)
    24e4:	dec00304 	addi	sp,sp,12
    24e8:	f800283a 	ret
    24ec:	8809883a 	mov	r4,r17
    24f0:	800b883a 	mov	r5,r16
    24f4:	dfc00217 	ldw	ra,8(sp)
    24f8:	dc400117 	ldw	r17,4(sp)
    24fc:	dc000017 	ldw	r16,0(sp)
    2500:	dec00304 	addi	sp,sp,12
    2504:	00078781 	jmpi	7878 <mcapi_trans_cancel>

00002508 <setup_request_have_lock.constprop.7>:
    2508:	defff404 	addi	sp,sp,-48
    250c:	dd400715 	stw	r21,28(sp)
    2510:	dd400e17 	ldw	r21,56(sp)
    2514:	dd800815 	stw	r22,32(sp)
    2518:	d5a73117 	ldw	r22,-25404(gp)
    251c:	a8c00c24 	muli	r3,r21,48
    2520:	32000017 	ldw	r8,0(r6)
    2524:	02bfad14 	movui	r10,65204
    2528:	b0c5883a 	add	r2,r22,r3
    252c:	dfc00b15 	stw	ra,44(sp)
    2530:	df000a15 	stw	fp,40(sp)
    2534:	ddc00915 	stw	r23,36(sp)
    2538:	dd000615 	stw	r20,24(sp)
    253c:	dcc00515 	stw	r19,20(sp)
    2540:	dc800415 	stw	r18,16(sp)
    2544:	dc400315 	stw	r17,12(sp)
    2548:	dc000215 	stw	r16,8(sp)
    254c:	1295883a 	add	r10,r2,r10
    2550:	52000015 	stw	r8,0(r10)
    2554:	da000c17 	ldw	r8,48(sp)
    2558:	d8c00015 	stw	r3,0(sp)
    255c:	027fa414 	movui	r9,65168
    2560:	00ffab14 	movui	r3,65196
    2564:	10c7883a 	add	r3,r2,r3
    2568:	1253883a 	add	r9,r2,r9
    256c:	d9800d17 	ldw	r6,52(sp)
    2570:	ad600034 	orhi	r21,r21,32768
    2574:	4a000015 	stw	r8,0(r9)
    2578:	18000045 	stb	zero,1(r3)
    257c:	19c00005 	stb	r7,0(r3)
    2580:	dd400115 	stw	r21,4(sp)
    2584:	2d400015 	stw	r21,0(r5)
    2588:	30007b26 	beq	r6,zero,2778 <setup_request_have_lock.constprop.7+0x270>
    258c:	39c03fcc 	andi	r7,r7,255
    2590:	38004e1e 	bne	r7,zero,26cc <setup_request_have_lock.constprop.7+0x1c4>
    2594:	21400083 	ldbu	r5,2(r4)
    2598:	20c00017 	ldw	r3,0(r4)
    259c:	2800601e 	bne	r5,zero,2720 <setup_request_have_lock.constprop.7+0x218>
    25a0:	1a3fc00c 	andi	r8,r3,65280
    25a4:	4010d23a 	srli	r8,r8,8
    25a8:	01c001c4 	movi	r7,7
    25ac:	3a005c36 	bltu	r7,r8,2720 <setup_request_have_lock.constprop.7+0x218>
    25b0:	1a403fcc 	andi	r9,r3,255
    25b4:	3a405a36 	bltu	r7,r9,2720 <setup_request_have_lock.constprop.7+0x218>
    25b8:	49c07a24 	muli	r7,r9,488
    25bc:	4203e024 	muli	r8,r8,3968
    25c0:	295f0324 	muli	r5,r5,31756
    25c4:	3a0f883a 	add	r7,r7,r8
    25c8:	394b883a 	add	r5,r7,r5
    25cc:	b14b883a 	add	r5,r22,r5
    25d0:	29c02403 	ldbu	r7,144(r5)
    25d4:	01400044 	movi	r5,1
    25d8:	39405326 	beq	r7,r5,2728 <setup_request_have_lock.constprop.7+0x220>
    25dc:	31400017 	ldw	r5,0(r6)
    25e0:	01bfa614 	movui	r6,65176
    25e4:	1185883a 	add	r2,r2,r6
    25e8:	11400015 	stw	r5,0(r2)
    25ec:	d9400017 	ldw	r5,0(sp)
    25f0:	01bfac14 	movui	r6,65200
    25f4:	b145883a 	add	r2,r22,r5
    25f8:	017fa514 	movui	r5,65172
    25fc:	114b883a 	add	r5,r2,r5
    2600:	1185883a 	add	r2,r2,r6
    2604:	01800104 	movi	r6,4
    2608:	29800015 	stw	r6,0(r5)
    260c:	10c00015 	stw	r3,0(r2)
    2610:	25c00083 	ldbu	r23,2(r4)
    2614:	20800017 	ldw	r2,0(r4)
    2618:	b800471e 	bne	r23,zero,2738 <setup_request_have_lock.constprop.7+0x230>
    261c:	173fc00c 	andi	fp,r2,65280
    2620:	e038d23a 	srli	fp,fp,8
    2624:	00c001c4 	movi	r3,7
    2628:	1f004336 	bltu	r3,fp,2738 <setup_request_have_lock.constprop.7+0x230>
    262c:	10803fcc 	andi	r2,r2,255
    2630:	18804136 	bltu	r3,r2,2738 <setup_request_have_lock.constprop.7+0x230>
    2634:	14c07a24 	muli	r19,r2,488
    2638:	e703e024 	muli	fp,fp,3968
    263c:	bddf0324 	muli	r23,r23,31756
    2640:	0023883a 	mov	r17,zero
    2644:	9f05883a 	add	r2,r19,fp
    2648:	15c5883a 	add	r2,r2,r23
    264c:	b085883a 	add	r2,r22,r2
    2650:	1500260b 	ldhu	r20,152(r2)
    2654:	054003c4 	movi	r21,15
    2658:	04800844 	movi	r18,33
    265c:	00001406 	br	26b0 <setup_request_have_lock.constprop.7+0x1a8>
    2660:	8004913a 	slli	r2,r16,4
    2664:	014000b4 	movhi	r5,2
    2668:	29483b04 	addi	r5,r5,8428
    266c:	10800854 	ori	r2,r2,33
    2670:	1145883a 	add	r2,r2,r5
    2674:	10800003 	ldbu	r2,0(r2)
    2678:	10800864 	muli	r2,r2,33
    267c:	8085c83a 	sub	r2,r16,r2
    2680:	10800324 	muli	r2,r2,12
    2684:	14c5883a 	add	r2,r2,r19
    2688:	1705883a 	add	r2,r2,fp
    268c:	15c5883a 	add	r2,r2,r23
    2690:	b085883a 	add	r2,r22,r2
    2694:	10c02704 	addi	r3,r2,156
    2698:	19000017 	ldw	r4,0(r3)
    269c:	2000021e 	bne	r4,zero,26a8 <setup_request_have_lock.constprop.7+0x1a0>
    26a0:	10802903 	ldbu	r2,164(r2)
    26a4:	10003126 	beq	r2,zero,276c <setup_request_have_lock.constprop.7+0x264>
    26a8:	8c400044 	addi	r17,r17,1
    26ac:	8c802426 	beq	r17,r18,2740 <setup_request_have_lock.constprop.7+0x238>
    26b0:	8d21883a 	add	r16,r17,r20
    26b4:	80800854 	ori	r2,r16,33
    26b8:	a8bfe92e 	bgeu	r21,r2,2660 <setup_request_have_lock.constprop.7+0x158>
    26bc:	8009883a 	mov	r4,r16
    26c0:	01400844 	movi	r5,33
    26c4:	000f5080 	call	f508 <__divsi3>
    26c8:	003feb06 	br	2678 <setup_request_have_lock.constprop.7+0x170>
    26cc:	20c00017 	ldw	r3,0(r4)
    26d0:	017fac14 	movui	r5,65200
    26d4:	013fa514 	movui	r4,65172
    26d8:	1109883a 	add	r4,r2,r4
    26dc:	1145883a 	add	r2,r2,r5
    26e0:	01400104 	movi	r5,4
    26e4:	21400015 	stw	r5,0(r4)
    26e8:	10c00015 	stw	r3,0(r2)
    26ec:	00800044 	movi	r2,1
    26f0:	dfc00b17 	ldw	ra,44(sp)
    26f4:	df000a17 	ldw	fp,40(sp)
    26f8:	ddc00917 	ldw	r23,36(sp)
    26fc:	dd800817 	ldw	r22,32(sp)
    2700:	dd400717 	ldw	r21,28(sp)
    2704:	dd000617 	ldw	r20,24(sp)
    2708:	dcc00517 	ldw	r19,20(sp)
    270c:	dc800417 	ldw	r18,16(sp)
    2710:	dc400317 	ldw	r17,12(sp)
    2714:	dc000217 	ldw	r16,8(sp)
    2718:	dec00c04 	addi	sp,sp,48
    271c:	f800283a 	ret
    2720:	01033304 	movi	r4,3276
    2724:	000c8780 	call	c878 <MCAPI_ASSERT.part.0>
    2728:	017fa714 	movui	r5,65180
    272c:	1145883a 	add	r2,r2,r5
    2730:	11800015 	stw	r6,0(r2)
    2734:	003fad06 	br	25ec <setup_request_have_lock.constprop.7+0xe4>
    2738:	010338c4 	movi	r4,3299
    273c:	000c8780 	call	c878 <MCAPI_ASSERT.part.0>
    2740:	d8c00017 	ldw	r3,0(sp)
    2744:	00bfad14 	movui	r2,65204
    2748:	b0e9883a 	add	r20,r22,r3
    274c:	00ffab14 	movui	r3,65196
    2750:	a085883a 	add	r2,r20,r2
    2754:	a0e9883a 	add	r20,r20,r3
    2758:	00c00a04 	movi	r3,40
    275c:	10c00015 	stw	r3,0(r2)
    2760:	00800044 	movi	r2,1
    2764:	a0800005 	stb	r2,0(r20)
    2768:	003fe006 	br	26ec <setup_request_have_lock.constprop.7+0x1e4>
    276c:	d8800117 	ldw	r2,4(sp)
    2770:	18800015 	stw	r2,0(r3)
    2774:	003fdd06 	br	26ec <setup_request_have_lock.constprop.7+0x1e4>
    2778:	20c00017 	ldw	r3,0(r4)
    277c:	01bfac14 	movui	r6,65200
    2780:	017fa514 	movui	r5,65172
    2784:	114b883a 	add	r5,r2,r5
    2788:	1185883a 	add	r2,r2,r6
    278c:	01800104 	movi	r6,4
    2790:	29800015 	stw	r6,0(r5)
    2794:	10c00015 	stw	r3,0(r2)
    2798:	39c03fcc 	andi	r7,r7,255
    279c:	383f9c26 	beq	r7,zero,2610 <setup_request_have_lock.constprop.7+0x108>
    27a0:	003fd206 	br	26ec <setup_request_have_lock.constprop.7+0x1e4>

000027a4 <MCAPI_ASSERT>:
    27a4:	deffff04 	addi	sp,sp,-4
    27a8:	dfc00015 	stw	ra,0(sp)
    27ac:	21003fcc 	andi	r4,r4,255
    27b0:	20000326 	beq	r4,zero,27c0 <MCAPI_ASSERT+0x1c>
    27b4:	dfc00017 	ldw	ra,0(sp)
    27b8:	dec00104 	addi	sp,sp,4
    27bc:	f800283a 	ret
    27c0:	2809883a 	mov	r4,r5
    27c4:	000c8780 	call	c878 <MCAPI_ASSERT.part.0>

000027c8 <mca_dprintf>:
    27c8:	defffe04 	addi	sp,sp,-8
    27cc:	d9800015 	stw	r6,0(sp)
    27d0:	d9c00115 	stw	r7,4(sp)
    27d4:	dec00204 	addi	sp,sp,8
    27d8:	f800283a 	ret

000027dc <mcapi_trans_get_node_num>:
    27dc:	d0a73117 	ldw	r2,-25404(gp)
    27e0:	10000426 	beq	r2,zero,27f4 <mcapi_trans_get_node_num+0x18>
    27e4:	d0e00117 	ldw	r3,-32764(gp)
    27e8:	00800044 	movi	r2,1
    27ec:	20c00015 	stw	r3,0(r4)
    27f0:	f800283a 	ret
    27f4:	0005883a 	mov	r2,zero
    27f8:	f800283a 	ret

000027fc <mcapi_trans_get_domain_num>:
    27fc:	d0a73117 	ldw	r2,-25404(gp)
    2800:	10000426 	beq	r2,zero,2814 <mcapi_trans_get_domain_num+0x18>
    2804:	d0e00017 	ldw	r3,-32768(gp)
    2808:	00800044 	movi	r2,1
    280c:	20c00015 	stw	r3,0(r4)
    2810:	f800283a 	ret
    2814:	0005883a 	mov	r2,zero
    2818:	f800283a 	ret

0000281c <mcapi_trans_remove_request_have_lock>:
    281c:	d0a73117 	ldw	r2,-25404(gp)
    2820:	01800074 	movhi	r6,1
    2824:	318da304 	addi	r6,r6,13964
    2828:	017fffc4 	movi	r5,-1
    282c:	118d883a 	add	r6,r2,r6
    2830:	30c20317 	ldw	r3,2060(r6)
    2834:	19403026 	beq	r3,r5,28f8 <mcapi_trans_remove_request_have_lock+0xdc>
    2838:	200a90fa 	slli	r5,r4,3
    283c:	19002a26 	beq	r3,r4,28e8 <mcapi_trans_remove_request_have_lock+0xcc>
    2840:	00c00074 	movhi	r3,1
    2844:	18cda304 	addi	r3,r3,13964
    2848:	10c7883a 	add	r3,r2,r3
    284c:	194d883a 	add	r6,r3,r5
    2850:	31c00017 	ldw	r7,0(r6)
    2854:	023fffc4 	movi	r8,-1
    2858:	3a000426 	beq	r7,r8,286c <mcapi_trans_remove_request_have_lock+0x50>
    285c:	380e90fa 	slli	r7,r7,3
    2860:	31800117 	ldw	r6,4(r6)
    2864:	19c7883a 	add	r3,r3,r7
    2868:	19800115 	stw	r6,4(r3)
    286c:	00c00074 	movhi	r3,1
    2870:	18cda304 	addi	r3,r3,13964
    2874:	10c7883a 	add	r3,r2,r3
    2878:	194d883a 	add	r6,r3,r5
    287c:	31c00117 	ldw	r7,4(r6)
    2880:	023fffc4 	movi	r8,-1
    2884:	3a000426 	beq	r7,r8,2898 <mcapi_trans_remove_request_have_lock+0x7c>
    2888:	380e90fa 	slli	r7,r7,3
    288c:	31800017 	ldw	r6,0(r6)
    2890:	19c7883a 	add	r3,r3,r7
    2894:	19800015 	stw	r6,0(r3)
    2898:	00c00074 	movhi	r3,1
    289c:	18cda304 	addi	r3,r3,13964
    28a0:	10c7883a 	add	r3,r2,r3
    28a4:	19820217 	ldw	r6,2056(r3)
    28a8:	194b883a 	add	r5,r3,r5
    28ac:	19020215 	stw	r4,2056(r3)
    28b0:	29800015 	stw	r6,0(r5)
    28b4:	017fffc4 	movi	r5,-1
    28b8:	31400326 	beq	r6,r5,28c8 <mcapi_trans_remove_request_have_lock+0xac>
    28bc:	300c90fa 	slli	r6,r6,3
    28c0:	1987883a 	add	r3,r3,r6
    28c4:	19000115 	stw	r4,4(r3)
    28c8:	00c00074 	movhi	r3,1
    28cc:	18cda304 	addi	r3,r3,13964
    28d0:	10c7883a 	add	r3,r2,r3
    28d4:	19020017 	ldw	r4,2048(r3)
    28d8:	00800044 	movi	r2,1
    28dc:	213fffc4 	addi	r4,r4,-1
    28e0:	19020015 	stw	r4,2048(r3)
    28e4:	f800283a 	ret
    28e8:	3147883a 	add	r3,r6,r5
    28ec:	18c00017 	ldw	r3,0(r3)
    28f0:	30c20315 	stw	r3,2060(r6)
    28f4:	003fd206 	br	2840 <mcapi_trans_remove_request_have_lock+0x24>
    28f8:	0005883a 	mov	r2,zero
    28fc:	f800283a 	ret

00002900 <mcapi_trans_reserve_request_have_lock>:
    2900:	d1673117 	ldw	r5,-25404(gp)
    2904:	00800074 	movhi	r2,1
    2908:	108da304 	addi	r2,r2,13964
    290c:	00ffffc4 	movi	r3,-1
    2910:	2885883a 	add	r2,r5,r2
    2914:	11820217 	ldw	r6,2056(r2)
    2918:	30c01f26 	beq	r6,r3,2998 <mcapi_trans_reserve_request_have_lock+0x98>
    291c:	31c00c24 	muli	r7,r6,48
    2920:	21800015 	stw	r6,0(r4)
    2924:	01bfa314 	movui	r6,65164
    2928:	29c9883a 	add	r4,r5,r7
    292c:	2189883a 	add	r4,r4,r6
    2930:	01800044 	movi	r6,1
    2934:	21800005 	stb	r6,0(r4)
    2938:	11820217 	ldw	r6,2056(r2)
    293c:	11c20317 	ldw	r7,2060(r2)
    2940:	300890fa 	slli	r4,r6,3
    2944:	11820315 	stw	r6,2060(r2)
    2948:	1109883a 	add	r4,r2,r4
    294c:	22000017 	ldw	r8,0(r4)
    2950:	401290fa 	slli	r9,r8,3
    2954:	12020215 	stw	r8,2056(r2)
    2958:	21c00015 	stw	r7,0(r4)
    295c:	1251883a 	add	r8,r2,r9
    2960:	40c00115 	stw	r3,4(r8)
    2964:	20c00115 	stw	r3,4(r4)
    2968:	38c00326 	beq	r7,r3,2978 <mcapi_trans_reserve_request_have_lock+0x78>
    296c:	380e90fa 	slli	r7,r7,3
    2970:	11c5883a 	add	r2,r2,r7
    2974:	11800115 	stw	r6,4(r2)
    2978:	00800074 	movhi	r2,1
    297c:	108da304 	addi	r2,r2,13964
    2980:	288b883a 	add	r5,r5,r2
    2984:	28c20017 	ldw	r3,2048(r5)
    2988:	00800044 	movi	r2,1
    298c:	18c00044 	addi	r3,r3,1
    2990:	28c20015 	stw	r3,2048(r5)
    2994:	f800283a 	ret
    2998:	0005883a 	mov	r2,zero
    299c:	f800283a 	ret

000029a0 <mcapi_trans_init_indexed_array_have_lock>:
    29a0:	d2673117 	ldw	r9,-25404(gp)
    29a4:	00c00074 	movhi	r3,1
    29a8:	18cfa504 	addi	r3,r3,16020
    29ac:	01400074 	movhi	r5,1
    29b0:	294fa304 	addi	r5,r5,16012
    29b4:	48c7883a 	add	r3,r9,r3
    29b8:	01000074 	movhi	r4,1
    29bc:	210fa404 	addi	r4,r4,16016
    29c0:	00800074 	movhi	r2,1
    29c4:	108fa604 	addi	r2,r2,16024
    29c8:	4885883a 	add	r2,r9,r2
    29cc:	01804004 	movi	r6,256
    29d0:	494b883a 	add	r5,r9,r5
    29d4:	4909883a 	add	r4,r9,r4
    29d8:	18000015 	stw	zero,0(r3)
    29dc:	00ffffc4 	movi	r3,-1
    29e0:	10c00015 	stw	r3,0(r2)
    29e4:	28000015 	stw	zero,0(r5)
    29e8:	21800015 	stw	r6,0(r4)
    29ec:	4807883a 	mov	r3,r9
    29f0:	0005883a 	mov	r2,zero
    29f4:	02000074 	movhi	r8,1
    29f8:	420da304 	addi	r8,r8,13964
    29fc:	01c00074 	movhi	r7,1
    2a00:	39cda404 	addi	r7,r7,13968
    2a04:	1a0b883a 	add	r5,r3,r8
    2a08:	10800044 	addi	r2,r2,1
    2a0c:	19c9883a 	add	r4,r3,r7
    2a10:	28800015 	stw	r2,0(r5)
    2a14:	117fff84 	addi	r5,r2,-2
    2a18:	21400015 	stw	r5,0(r4)
    2a1c:	18c00204 	addi	r3,r3,8
    2a20:	11bff81e 	bne	r2,r6,2a04 <mcapi_trans_init_indexed_array_have_lock+0x64>
    2a24:	00c00074 	movhi	r3,1
    2a28:	18cfa104 	addi	r3,r3,16004
    2a2c:	01000074 	movhi	r4,1
    2a30:	210da404 	addi	r4,r4,13968
    2a34:	00bfffc4 	movi	r2,-1
    2a38:	48c7883a 	add	r3,r9,r3
    2a3c:	4913883a 	add	r9,r9,r4
    2a40:	18800015 	stw	r2,0(r3)
    2a44:	48800015 	stw	r2,0(r9)
    2a48:	f800283a 	ret

00002a4c <mcapi_trans_initialize>:
    2a4c:	defff704 	addi	sp,sp,-36
    2a50:	dc400315 	stw	r17,12(sp)
    2a54:	dc000215 	stw	r16,8(sp)
    2a58:	2023883a 	mov	r17,r4
    2a5c:	2821883a 	mov	r16,r5
    2a60:	01000244 	movi	r4,9
    2a64:	d9400104 	addi	r5,sp,4
    2a68:	dc800415 	stw	r18,16(sp)
    2a6c:	dfc00815 	stw	ra,32(sp)
    2a70:	dd400715 	stw	r21,28(sp)
    2a74:	dd000615 	stw	r20,24(sp)
    2a78:	dcc00515 	stw	r19,20(sp)
    2a7c:	3025883a 	mov	r18,r6
    2a80:	d0272e05 	stb	zero,-25416(gp)
    2a84:	001be080 	call	1be08 <OSMutexCreate>
    2a88:	d8c00103 	ldbu	r3,4(sp)
    2a8c:	d0a73015 	stw	r2,-25408(gp)
    2a90:	1800f51e 	bne	r3,zero,2e68 <mcapi_trans_initialize+0x41c>
    2a94:	1009883a 	mov	r4,r2
    2a98:	000b883a 	mov	r5,zero
    2a9c:	d80d883a 	mov	r6,sp
    2aa0:	001c1c80 	call	1c1c8 <OSMutexPend>
    2aa4:	d8800003 	ldbu	r2,0(sp)
    2aa8:	1000de1e 	bne	r2,zero,2e24 <mcapi_trans_initialize+0x3d8>
    2aac:	008000b4 	movhi	r2,2
    2ab0:	10968604 	addi	r2,r2,23064
    2ab4:	00c00044 	movi	r3,1
    2ab8:	d0e72e05 	stb	r3,-25416(gp)
    2abc:	d0a73115 	stw	r2,-25404(gp)
    2ac0:	10000205 	stb	zero,8(r2)
    2ac4:	10000405 	stb	zero,16(r2)
    2ac8:	10001405 	stb	zero,80(r2)
    2acc:	10008e05 	stb	zero,568(r2)
    2ad0:	10010805 	stb	zero,1056(r2)
    2ad4:	10018205 	stb	zero,1544(r2)
    2ad8:	1001fc05 	stb	zero,2032(r2)
    2adc:	10027605 	stb	zero,2520(r2)
    2ae0:	1002f005 	stb	zero,3008(r2)
    2ae4:	10036a05 	stb	zero,3496(r2)
    2ae8:	1003e405 	stb	zero,3984(r2)
    2aec:	1003f405 	stb	zero,4048(r2)
    2af0:	10046e05 	stb	zero,4536(r2)
    2af4:	1004e805 	stb	zero,5024(r2)
    2af8:	10056205 	stb	zero,5512(r2)
    2afc:	1005dc05 	stb	zero,6000(r2)
    2b00:	10065605 	stb	zero,6488(r2)
    2b04:	1006d005 	stb	zero,6976(r2)
    2b08:	10074a05 	stb	zero,7464(r2)
    2b0c:	1007c405 	stb	zero,7952(r2)
    2b10:	1007d405 	stb	zero,8016(r2)
    2b14:	10084e05 	stb	zero,8504(r2)
    2b18:	1008c805 	stb	zero,8992(r2)
    2b1c:	10094205 	stb	zero,9480(r2)
    2b20:	1009bc05 	stb	zero,9968(r2)
    2b24:	100a3605 	stb	zero,10456(r2)
    2b28:	100ab005 	stb	zero,10944(r2)
    2b2c:	100b2a05 	stb	zero,11432(r2)
    2b30:	100ba405 	stb	zero,11920(r2)
    2b34:	100bb405 	stb	zero,11984(r2)
    2b38:	100c2e05 	stb	zero,12472(r2)
    2b3c:	100ca805 	stb	zero,12960(r2)
    2b40:	01c00074 	movhi	r7,1
    2b44:	39cfa304 	addi	r7,r7,16012
    2b48:	100d2205 	stb	zero,13448(r2)
    2b4c:	100d9c05 	stb	zero,13936(r2)
    2b50:	100e1605 	stb	zero,14424(r2)
    2b54:	100e9005 	stb	zero,14912(r2)
    2b58:	100f0a05 	stb	zero,15400(r2)
    2b5c:	100f8405 	stb	zero,15888(r2)
    2b60:	100f9405 	stb	zero,15952(r2)
    2b64:	10100e05 	stb	zero,16440(r2)
    2b68:	10108805 	stb	zero,16928(r2)
    2b6c:	10110205 	stb	zero,17416(r2)
    2b70:	10117c05 	stb	zero,17904(r2)
    2b74:	1011f605 	stb	zero,18392(r2)
    2b78:	10127005 	stb	zero,18880(r2)
    2b7c:	1012ea05 	stb	zero,19368(r2)
    2b80:	10136405 	stb	zero,19856(r2)
    2b84:	10137405 	stb	zero,19920(r2)
    2b88:	1013ee05 	stb	zero,20408(r2)
    2b8c:	10146805 	stb	zero,20896(r2)
    2b90:	1014e205 	stb	zero,21384(r2)
    2b94:	10155c05 	stb	zero,21872(r2)
    2b98:	1015d605 	stb	zero,22360(r2)
    2b9c:	10165005 	stb	zero,22848(r2)
    2ba0:	1016ca05 	stb	zero,23336(r2)
    2ba4:	10174405 	stb	zero,23824(r2)
    2ba8:	10175405 	stb	zero,23888(r2)
    2bac:	1017ce05 	stb	zero,24376(r2)
    2bb0:	10184805 	stb	zero,24864(r2)
    2bb4:	1018c205 	stb	zero,25352(r2)
    2bb8:	10193c05 	stb	zero,25840(r2)
    2bbc:	1019b605 	stb	zero,26328(r2)
    2bc0:	101a3005 	stb	zero,26816(r2)
    2bc4:	101aaa05 	stb	zero,27304(r2)
    2bc8:	101b2405 	stb	zero,27792(r2)
    2bcc:	01800074 	movhi	r6,1
    2bd0:	318fa404 	addi	r6,r6,16016
    2bd4:	01400074 	movhi	r5,1
    2bd8:	294fa504 	addi	r5,r5,16020
    2bdc:	01000074 	movhi	r4,1
    2be0:	210fa604 	addi	r4,r4,16024
    2be4:	101b3405 	stb	zero,27856(r2)
    2be8:	114b883a 	add	r5,r2,r5
    2bec:	1109883a 	add	r4,r2,r4
    2bf0:	11cf883a 	add	r7,r2,r7
    2bf4:	118d883a 	add	r6,r2,r6
    2bf8:	02404004 	movi	r9,256
    2bfc:	1027883a 	mov	r19,r2
    2c00:	1007883a 	mov	r3,r2
    2c04:	101bae05 	stb	zero,28344(r2)
    2c08:	101c2805 	stb	zero,28832(r2)
    2c0c:	101ca205 	stb	zero,29320(r2)
    2c10:	101d1c05 	stb	zero,29808(r2)
    2c14:	101d9605 	stb	zero,30296(r2)
    2c18:	101e1005 	stb	zero,30784(r2)
    2c1c:	101e8a05 	stb	zero,31272(r2)
    2c20:	00bfffc4 	movi	r2,-1
    2c24:	20800015 	stw	r2,0(r4)
    2c28:	28000015 	stw	zero,0(r5)
    2c2c:	38000015 	stw	zero,0(r7)
    2c30:	32400015 	stw	r9,0(r6)
    2c34:	0005883a 	mov	r2,zero
    2c38:	01400074 	movhi	r5,1
    2c3c:	294da304 	addi	r5,r5,13964
    2c40:	01000074 	movhi	r4,1
    2c44:	210da404 	addi	r4,r4,13968
    2c48:	1951883a 	add	r8,r3,r5
    2c4c:	10800044 	addi	r2,r2,1
    2c50:	190f883a 	add	r7,r3,r4
    2c54:	40800015 	stw	r2,0(r8)
    2c58:	123fff84 	addi	r8,r2,-2
    2c5c:	3a000015 	stw	r8,0(r7)
    2c60:	18c00204 	addi	r3,r3,8
    2c64:	127ff81e 	bne	r2,r9,2c48 <mcapi_trans_initialize+0x1fc>
    2c68:	01000074 	movhi	r4,1
    2c6c:	210fa104 	addi	r4,r4,16004
    2c70:	00c00074 	movhi	r3,1
    2c74:	18cda404 	addi	r3,r3,13968
    2c78:	00bfffc4 	movi	r2,-1
    2c7c:	9909883a 	add	r4,r19,r4
    2c80:	98c7883a 	add	r3,r19,r3
    2c84:	20800015 	stw	r2,0(r4)
    2c88:	18800015 	stw	r2,0(r3)
    2c8c:	00800044 	movi	r2,1
    2c90:	88807c26 	beq	r17,r2,2e84 <mcapi_trans_initialize+0x438>
    2c94:	8d1f0324 	muli	r20,r17,31756
    2c98:	008000b4 	movhi	r2,2
    2c9c:	10968604 	addi	r2,r2,23064
    2ca0:	1505883a 	add	r2,r2,r20
    2ca4:	10c00203 	ldbu	r3,8(r2)
    2ca8:	18007c26 	beq	r3,zero,2e9c <mcapi_trans_initialize+0x450>
    2cac:	10c00117 	ldw	r3,4(r2)
    2cb0:	88c7003a 	cmpeq	r3,r17,r3
    2cb4:	00800204 	movi	r2,8
    2cb8:	80807226 	beq	r16,r2,2e84 <mcapi_trans_initialize+0x438>
    2cbc:	8543e024 	muli	r21,r16,3968
    2cc0:	01000044 	movi	r4,1
    2cc4:	ad05883a 	add	r2,r21,r20
    2cc8:	9885883a 	add	r2,r19,r2
    2ccc:	11400403 	ldbu	r5,16(r2)
    2cd0:	29006a26 	beq	r5,r4,2e7c <mcapi_trans_initialize+0x430>
    2cd4:	18c03fcc 	andi	r3,r3,255
    2cd8:	1800041e 	bne	r3,zero,2cec <mcapi_trans_initialize+0x2a0>
    2cdc:	9d05883a 	add	r2,r19,r20
    2ce0:	00c00044 	movi	r3,1
    2ce4:	14400115 	stw	r17,4(r2)
    2ce8:	10c00205 	stb	r3,8(r2)
    2cec:	ad09883a 	add	r4,r21,r20
    2cf0:	9907883a 	add	r3,r19,r4
    2cf4:	00800044 	movi	r2,1
    2cf8:	18800405 	stb	r2,16(r3)
    2cfc:	9d05883a 	add	r2,r19,r20
    2d00:	1140000b 	ldhu	r5,0(r2)
    2d04:	1c000315 	stw	r16,12(r3)
    2d08:	28c00044 	addi	r3,r5,1
    2d0c:	10c0000d 	sth	r3,0(r2)
    2d10:	90000726 	beq	r18,zero,2d30 <mcapi_trans_initialize+0x2e4>
    2d14:	21000604 	addi	r4,r4,24
    2d18:	008000b4 	movhi	r2,2
    2d1c:	10968604 	addi	r2,r2,23064
    2d20:	1109883a 	add	r4,r2,r4
    2d24:	900b883a 	mov	r5,r18
    2d28:	01800c04 	movi	r6,48
    2d2c:	00104fc0 	call	104fc <memcpy>
    2d30:	ad25883a 	add	r18,r21,r20
    2d34:	91001304 	addi	r4,r18,76
    2d38:	9909883a 	add	r4,r19,r4
    2d3c:	00800104 	movi	r2,4
    2d40:	9ca7883a 	add	r19,r19,r18
    2d44:	000b883a 	mov	r5,zero
    2d48:	01807a04 	movi	r6,488
    2d4c:	98800715 	stw	r2,28(r19)
    2d50:	00105f40 	call	105f4 <memset>
    2d54:	d1273117 	ldw	r4,-25404(gp)
    2d58:	90808d04 	addi	r2,r18,564
    2d5c:	000b883a 	mov	r5,zero
    2d60:	2089883a 	add	r4,r4,r2
    2d64:	01807a04 	movi	r6,488
    2d68:	00105f40 	call	105f4 <memset>
    2d6c:	d1273117 	ldw	r4,-25404(gp)
    2d70:	90810704 	addi	r2,r18,1052
    2d74:	000b883a 	mov	r5,zero
    2d78:	2089883a 	add	r4,r4,r2
    2d7c:	01807a04 	movi	r6,488
    2d80:	00105f40 	call	105f4 <memset>
    2d84:	d1273117 	ldw	r4,-25404(gp)
    2d88:	90818104 	addi	r2,r18,1540
    2d8c:	000b883a 	mov	r5,zero
    2d90:	2089883a 	add	r4,r4,r2
    2d94:	01807a04 	movi	r6,488
    2d98:	00105f40 	call	105f4 <memset>
    2d9c:	d1273117 	ldw	r4,-25404(gp)
    2da0:	9081fb04 	addi	r2,r18,2028
    2da4:	000b883a 	mov	r5,zero
    2da8:	2089883a 	add	r4,r4,r2
    2dac:	01807a04 	movi	r6,488
    2db0:	00105f40 	call	105f4 <memset>
    2db4:	d1273117 	ldw	r4,-25404(gp)
    2db8:	90827504 	addi	r2,r18,2516
    2dbc:	000b883a 	mov	r5,zero
    2dc0:	2089883a 	add	r4,r4,r2
    2dc4:	01807a04 	movi	r6,488
    2dc8:	00105f40 	call	105f4 <memset>
    2dcc:	d1273117 	ldw	r4,-25404(gp)
    2dd0:	9082ef04 	addi	r2,r18,3004
    2dd4:	000b883a 	mov	r5,zero
    2dd8:	2089883a 	add	r4,r4,r2
    2ddc:	01807a04 	movi	r6,488
    2de0:	00105f40 	call	105f4 <memset>
    2de4:	d1273117 	ldw	r4,-25404(gp)
    2de8:	94836904 	addi	r18,r18,3492
    2dec:	000b883a 	mov	r5,zero
    2df0:	2489883a 	add	r4,r4,r18
    2df4:	01807a04 	movi	r6,488
    2df8:	00105f40 	call	105f4 <memset>
    2dfc:	d0a73117 	ldw	r2,-25404(gp)
    2e00:	d4200115 	stw	r16,-32764(gp)
    2e04:	d4600015 	stw	r17,-32768(gp)
    2e08:	10000426 	beq	r2,zero,2e1c <mcapi_trans_initialize+0x3d0>
    2e0c:	04800044 	movi	r18,1
    2e10:	10c00203 	ldbu	r3,8(r2)
    2e14:	01000044 	movi	r4,1
    2e18:	19002226 	beq	r3,r4,2ea4 <mcapi_trans_initialize+0x458>
    2e1c:	01006bc4 	movi	r4,431
    2e20:	000c8780 	call	c878 <MCAPI_ASSERT.part.0>
    2e24:	00c00104 	movi	r3,4
    2e28:	10c00426 	beq	r2,r3,2e3c <mcapi_trans_initialize+0x3f0>
    2e2c:	010000b4 	movhi	r4,2
    2e30:	2101f004 	addi	r4,r4,1984
    2e34:	d0272e05 	stb	zero,-25416(gp)
    2e38:	00106fc0 	call	106fc <printf>
    2e3c:	0025883a 	mov	r18,zero
    2e40:	9005883a 	mov	r2,r18
    2e44:	dfc00817 	ldw	ra,32(sp)
    2e48:	dd400717 	ldw	r21,28(sp)
    2e4c:	dd000617 	ldw	r20,24(sp)
    2e50:	dcc00517 	ldw	r19,20(sp)
    2e54:	dc800417 	ldw	r18,16(sp)
    2e58:	dc400317 	ldw	r17,12(sp)
    2e5c:	dc000217 	ldw	r16,8(sp)
    2e60:	dec00904 	addi	sp,sp,36
    2e64:	f800283a 	ret
    2e68:	010000b4 	movhi	r4,2
    2e6c:	2101e304 	addi	r4,r4,1932
    2e70:	00106fc0 	call	106fc <printf>
    2e74:	0025883a 	mov	r18,zero
    2e78:	003ff106 	br	2e40 <mcapi_trans_initialize+0x3f4>
    2e7c:	10800317 	ldw	r2,12(r2)
    2e80:	80bf941e 	bne	r16,r2,2cd4 <mcapi_trans_initialize+0x288>
    2e84:	d4200115 	stw	r16,-32764(gp)
    2e88:	d4600015 	stw	r17,-32768(gp)
    2e8c:	008000b4 	movhi	r2,2
    2e90:	10968604 	addi	r2,r2,23064
    2e94:	0025883a 	mov	r18,zero
    2e98:	003fdd06 	br	2e10 <mcapi_trans_initialize+0x3c4>
    2e9c:	0007883a 	mov	r3,zero
    2ea0:	003f8406 	br	2cb4 <mcapi_trans_initialize+0x268>
    2ea4:	11000117 	ldw	r4,4(r2)
    2ea8:	893fdc1e 	bne	r17,r4,2e1c <mcapi_trans_initialize+0x3d0>
    2eac:	11000403 	ldbu	r4,16(r2)
    2eb0:	20c03726 	beq	r4,r3,2f90 <mcapi_trans_initialize+0x544>
    2eb4:	10c3e403 	ldbu	r3,3984(r2)
    2eb8:	01000044 	movi	r4,1
    2ebc:	19003c26 	beq	r3,r4,2fb0 <mcapi_trans_initialize+0x564>
    2ec0:	1107c403 	ldbu	r4,7952(r2)
    2ec4:	00c00044 	movi	r3,1
    2ec8:	20c03526 	beq	r4,r3,2fa0 <mcapi_trans_initialize+0x554>
    2ecc:	110ba403 	ldbu	r4,11920(r2)
    2ed0:	00c00044 	movi	r3,1
    2ed4:	20c04626 	beq	r4,r3,2ff0 <mcapi_trans_initialize+0x5a4>
    2ed8:	110f8403 	ldbu	r4,15888(r2)
    2edc:	00c00044 	movi	r3,1
    2ee0:	20c03f26 	beq	r4,r3,2fe0 <mcapi_trans_initialize+0x594>
    2ee4:	11136403 	ldbu	r4,19856(r2)
    2ee8:	00c00044 	movi	r3,1
    2eec:	20c03826 	beq	r4,r3,2fd0 <mcapi_trans_initialize+0x584>
    2ef0:	11174403 	ldbu	r4,23824(r2)
    2ef4:	00c00044 	movi	r3,1
    2ef8:	20c03126 	beq	r4,r3,2fc0 <mcapi_trans_initialize+0x574>
    2efc:	111b2403 	ldbu	r4,27792(r2)
    2f00:	00c00044 	movi	r3,1
    2f04:	20ffc51e 	bne	r4,r3,2e1c <mcapi_trans_initialize+0x3d0>
    2f08:	109b2317 	ldw	r2,27788(r2)
    2f0c:	80bfc31e 	bne	r16,r2,2e1c <mcapi_trans_initialize+0x3d0>
    2f10:	008001c4 	movi	r2,7
    2f14:	8809883a 	mov	r4,r17
    2f18:	800b883a 	mov	r5,r16
    2f1c:	d0272c15 	stw	zero,-25424(gp)
    2f20:	d0a72d15 	stw	r2,-25420(gp)
    2f24:	000cce40 	call	cce4 <NS_init>
    2f28:	10803fcc 	andi	r2,r2,255
    2f2c:	10000926 	beq	r2,zero,2f54 <mcapi_trans_initialize+0x508>
    2f30:	010000b4 	movhi	r4,2
    2f34:	2101fc04 	addi	r4,r4,2032
    2f38:	00107bc0 	call	107bc <puts>
    2f3c:	008000b4 	movhi	r2,2
    2f40:	108f0904 	addi	r2,r2,15396
    2f44:	10800017 	ldw	r2,0(r2)
    2f48:	0025883a 	mov	r18,zero
    2f4c:	11000217 	ldw	r4,8(r2)
    2f50:	000f7e40 	call	f7e4 <fflush>
    2f54:	d1273017 	ldw	r4,-25408(gp)
    2f58:	001c5000 	call	1c500 <OSMutexPost>
    2f5c:	10803fcc 	andi	r2,r2,255
    2f60:	10000926 	beq	r2,zero,2f88 <mcapi_trans_initialize+0x53c>
    2f64:	00c00104 	movi	r3,4
    2f68:	10c00526 	beq	r2,r3,2f80 <mcapi_trans_initialize+0x534>
    2f6c:	00800044 	movi	r2,1
    2f70:	010000b4 	movhi	r4,2
    2f74:	21020b04 	addi	r4,r4,2092
    2f78:	d0a72e05 	stb	r2,-25416(gp)
    2f7c:	00106fc0 	call	106fc <printf>
    2f80:	01006e44 	movi	r4,441
    2f84:	000c8780 	call	c878 <MCAPI_ASSERT.part.0>
    2f88:	d0272e05 	stb	zero,-25416(gp)
    2f8c:	003fac06 	br	2e40 <mcapi_trans_initialize+0x3f4>
    2f90:	10c00317 	ldw	r3,12(r2)
    2f94:	80ffc71e 	bne	r16,r3,2eb4 <mcapi_trans_initialize+0x468>
    2f98:	0005883a 	mov	r2,zero
    2f9c:	003fdd06 	br	2f14 <mcapi_trans_initialize+0x4c8>
    2fa0:	10c7c317 	ldw	r3,7948(r2)
    2fa4:	80ffc91e 	bne	r16,r3,2ecc <mcapi_trans_initialize+0x480>
    2fa8:	00800084 	movi	r2,2
    2fac:	003fd906 	br	2f14 <mcapi_trans_initialize+0x4c8>
    2fb0:	1103e317 	ldw	r4,3980(r2)
    2fb4:	813fc21e 	bne	r16,r4,2ec0 <mcapi_trans_initialize+0x474>
    2fb8:	1805883a 	mov	r2,r3
    2fbc:	003fd506 	br	2f14 <mcapi_trans_initialize+0x4c8>
    2fc0:	10d74317 	ldw	r3,23820(r2)
    2fc4:	80ffcd1e 	bne	r16,r3,2efc <mcapi_trans_initialize+0x4b0>
    2fc8:	00800184 	movi	r2,6
    2fcc:	003fd106 	br	2f14 <mcapi_trans_initialize+0x4c8>
    2fd0:	10d36317 	ldw	r3,19852(r2)
    2fd4:	80ffc61e 	bne	r16,r3,2ef0 <mcapi_trans_initialize+0x4a4>
    2fd8:	00800144 	movi	r2,5
    2fdc:	003fcd06 	br	2f14 <mcapi_trans_initialize+0x4c8>
    2fe0:	10cf8317 	ldw	r3,15884(r2)
    2fe4:	80ffbf1e 	bne	r16,r3,2ee4 <mcapi_trans_initialize+0x498>
    2fe8:	00800104 	movi	r2,4
    2fec:	003fc906 	br	2f14 <mcapi_trans_initialize+0x4c8>
    2ff0:	10cba317 	ldw	r3,11916(r2)
    2ff4:	80ffb81e 	bne	r16,r3,2ed8 <mcapi_trans_initialize+0x48c>
    2ff8:	008000c4 	movi	r2,3
    2ffc:	003fc506 	br	2f14 <mcapi_trans_initialize+0x4c8>

00003000 <mcapi_trans_initialize_database>:
    3000:	008000b4 	movhi	r2,2
    3004:	10968604 	addi	r2,r2,23064
    3008:	d0a73115 	stw	r2,-25404(gp)
    300c:	10000205 	stb	zero,8(r2)
    3010:	10000405 	stb	zero,16(r2)
    3014:	10001405 	stb	zero,80(r2)
    3018:	10008e05 	stb	zero,568(r2)
    301c:	10010805 	stb	zero,1056(r2)
    3020:	10018205 	stb	zero,1544(r2)
    3024:	1001fc05 	stb	zero,2032(r2)
    3028:	10027605 	stb	zero,2520(r2)
    302c:	1002f005 	stb	zero,3008(r2)
    3030:	10036a05 	stb	zero,3496(r2)
    3034:	1003e405 	stb	zero,3984(r2)
    3038:	1003f405 	stb	zero,4048(r2)
    303c:	10046e05 	stb	zero,4536(r2)
    3040:	1004e805 	stb	zero,5024(r2)
    3044:	10056205 	stb	zero,5512(r2)
    3048:	1005dc05 	stb	zero,6000(r2)
    304c:	10065605 	stb	zero,6488(r2)
    3050:	1006d005 	stb	zero,6976(r2)
    3054:	10074a05 	stb	zero,7464(r2)
    3058:	1007c405 	stb	zero,7952(r2)
    305c:	1007d405 	stb	zero,8016(r2)
    3060:	10084e05 	stb	zero,8504(r2)
    3064:	1008c805 	stb	zero,8992(r2)
    3068:	10094205 	stb	zero,9480(r2)
    306c:	1009bc05 	stb	zero,9968(r2)
    3070:	100a3605 	stb	zero,10456(r2)
    3074:	100ab005 	stb	zero,10944(r2)
    3078:	100b2a05 	stb	zero,11432(r2)
    307c:	100ba405 	stb	zero,11920(r2)
    3080:	100bb405 	stb	zero,11984(r2)
    3084:	100c2e05 	stb	zero,12472(r2)
    3088:	100ca805 	stb	zero,12960(r2)
    308c:	100d2205 	stb	zero,13448(r2)
    3090:	02000074 	movhi	r8,1
    3094:	420fa304 	addi	r8,r8,16012
    3098:	100d9c05 	stb	zero,13936(r2)
    309c:	100e1605 	stb	zero,14424(r2)
    30a0:	100e9005 	stb	zero,14912(r2)
    30a4:	100f0a05 	stb	zero,15400(r2)
    30a8:	100f8405 	stb	zero,15888(r2)
    30ac:	100f9405 	stb	zero,15952(r2)
    30b0:	10100e05 	stb	zero,16440(r2)
    30b4:	10108805 	stb	zero,16928(r2)
    30b8:	10110205 	stb	zero,17416(r2)
    30bc:	10117c05 	stb	zero,17904(r2)
    30c0:	1011f605 	stb	zero,18392(r2)
    30c4:	10127005 	stb	zero,18880(r2)
    30c8:	1012ea05 	stb	zero,19368(r2)
    30cc:	10136405 	stb	zero,19856(r2)
    30d0:	10137405 	stb	zero,19920(r2)
    30d4:	1013ee05 	stb	zero,20408(r2)
    30d8:	10146805 	stb	zero,20896(r2)
    30dc:	1014e205 	stb	zero,21384(r2)
    30e0:	10155c05 	stb	zero,21872(r2)
    30e4:	1015d605 	stb	zero,22360(r2)
    30e8:	10165005 	stb	zero,22848(r2)
    30ec:	1016ca05 	stb	zero,23336(r2)
    30f0:	10174405 	stb	zero,23824(r2)
    30f4:	10175405 	stb	zero,23888(r2)
    30f8:	1017ce05 	stb	zero,24376(r2)
    30fc:	10184805 	stb	zero,24864(r2)
    3100:	1018c205 	stb	zero,25352(r2)
    3104:	10193c05 	stb	zero,25840(r2)
    3108:	1019b605 	stb	zero,26328(r2)
    310c:	101a3005 	stb	zero,26816(r2)
    3110:	101aaa05 	stb	zero,27304(r2)
    3114:	101b2405 	stb	zero,27792(r2)
    3118:	101b3405 	stb	zero,27856(r2)
    311c:	01c00074 	movhi	r7,1
    3120:	39cfa404 	addi	r7,r7,16016
    3124:	01400074 	movhi	r5,1
    3128:	294fa504 	addi	r5,r5,16020
    312c:	01000074 	movhi	r4,1
    3130:	210fa604 	addi	r4,r4,16024
    3134:	101bae05 	stb	zero,28344(r2)
    3138:	1211883a 	add	r8,r2,r8
    313c:	11cf883a 	add	r7,r2,r7
    3140:	114b883a 	add	r5,r2,r5
    3144:	1109883a 	add	r4,r2,r4
    3148:	01804004 	movi	r6,256
    314c:	1013883a 	mov	r9,r2
    3150:	1007883a 	mov	r3,r2
    3154:	101c2805 	stb	zero,28832(r2)
    3158:	101ca205 	stb	zero,29320(r2)
    315c:	101d1c05 	stb	zero,29808(r2)
    3160:	101d9605 	stb	zero,30296(r2)
    3164:	101e1005 	stb	zero,30784(r2)
    3168:	101e8a05 	stb	zero,31272(r2)
    316c:	00bfffc4 	movi	r2,-1
    3170:	40000015 	stw	zero,0(r8)
    3174:	39800015 	stw	r6,0(r7)
    3178:	20800015 	stw	r2,0(r4)
    317c:	28000015 	stw	zero,0(r5)
    3180:	0005883a 	mov	r2,zero
    3184:	02000074 	movhi	r8,1
    3188:	420da304 	addi	r8,r8,13964
    318c:	01c00074 	movhi	r7,1
    3190:	39cda404 	addi	r7,r7,13968
    3194:	1a0b883a 	add	r5,r3,r8
    3198:	10800044 	addi	r2,r2,1
    319c:	19c9883a 	add	r4,r3,r7
    31a0:	28800015 	stw	r2,0(r5)
    31a4:	117fff84 	addi	r5,r2,-2
    31a8:	21400015 	stw	r5,0(r4)
    31ac:	18c00204 	addi	r3,r3,8
    31b0:	11bff81e 	bne	r2,r6,3194 <mcapi_trans_initialize_database+0x194>
    31b4:	00c00074 	movhi	r3,1
    31b8:	18cfa104 	addi	r3,r3,16004
    31bc:	01000074 	movhi	r4,1
    31c0:	210da404 	addi	r4,r4,13968
    31c4:	00bfffc4 	movi	r2,-1
    31c8:	48c7883a 	add	r3,r9,r3
    31cc:	4913883a 	add	r9,r9,r4
    31d0:	18800015 	stw	r2,0(r3)
    31d4:	48800015 	stw	r2,0(r9)
    31d8:	f800283a 	ret

000031dc <mcapi_trans_node_init_attributes>:
    31dc:	20000005 	stb	zero,0(r4)
    31e0:	20000045 	stb	zero,1(r4)
    31e4:	20000085 	stb	zero,2(r4)
    31e8:	200000c5 	stb	zero,3(r4)
    31ec:	00800044 	movi	r2,1
    31f0:	f800283a 	ret

000031f4 <mcapi_trans_node_get_attribute>:
    31f4:	defffb04 	addi	sp,sp,-20
    31f8:	dc400315 	stw	r17,12(sp)
    31fc:	dc000215 	stw	r16,8(sp)
    3200:	dfc00415 	stw	ra,16(sp)
    3204:	2021883a 	mov	r16,r4
    3208:	2823883a 	mov	r17,r5
    320c:	20000a26 	beq	r4,zero,3238 <mcapi_trans_node_get_attribute+0x44>
    3210:	d8c00617 	ldw	r3,24(sp)
    3214:	00800b44 	movi	r2,45
    3218:	0021883a 	mov	r16,zero
    321c:	18800015 	stw	r2,0(r3)
    3220:	8005883a 	mov	r2,r16
    3224:	dfc00417 	ldw	ra,16(sp)
    3228:	dc400317 	ldw	r17,12(sp)
    322c:	dc000217 	ldw	r16,8(sp)
    3230:	dec00504 	addi	sp,sp,20
    3234:	f800283a 	ret
    3238:	283ff51e 	bne	r5,zero,3210 <mcapi_trans_node_get_attribute+0x1c>
    323c:	d0a73117 	ldw	r2,-25404(gp)
    3240:	10001626 	beq	r2,zero,329c <mcapi_trans_node_get_attribute+0xa8>
    3244:	30000526 	beq	r6,zero,325c <mcapi_trans_node_get_attribute+0x68>
    3248:	d8c00617 	ldw	r3,24(sp)
    324c:	00800604 	movi	r2,24
    3250:	0021883a 	mov	r16,zero
    3254:	18800015 	stw	r2,0(r3)
    3258:	003ff106 	br	3220 <mcapi_trans_node_get_attribute+0x2c>
    325c:	d1273017 	ldw	r4,-25408(gp)
    3260:	000b883a 	mov	r5,zero
    3264:	d80d883a 	mov	r6,sp
    3268:	d9c00115 	stw	r7,4(sp)
    326c:	001c1c80 	call	1c1c8 <OSMutexPend>
    3270:	d8800003 	ldbu	r2,0(sp)
    3274:	d9c00117 	ldw	r7,4(sp)
    3278:	10000d26 	beq	r2,zero,32b0 <mcapi_trans_node_get_attribute+0xbc>
    327c:	00c00104 	movi	r3,4
    3280:	10c00426 	beq	r2,r3,3294 <mcapi_trans_node_get_attribute+0xa0>
    3284:	010000b4 	movhi	r4,2
    3288:	2101f004 	addi	r4,r4,1984
    328c:	d0272e05 	stb	zero,-25416(gp)
    3290:	00106fc0 	call	106fc <printf>
    3294:	010086c4 	movi	r4,539
    3298:	000c8780 	call	c878 <MCAPI_ASSERT.part.0>
    329c:	d8c00617 	ldw	r3,24(sp)
    32a0:	00800244 	movi	r2,9
    32a4:	0021883a 	mov	r16,zero
    32a8:	18800015 	stw	r2,0(r3)
    32ac:	003fdc06 	br	3220 <mcapi_trans_node_get_attribute+0x2c>
    32b0:	d1673117 	ldw	r5,-25404(gp)
    32b4:	00800044 	movi	r2,1
    32b8:	d0a72e05 	stb	r2,-25416(gp)
    32bc:	28800117 	ldw	r2,4(r5)
    32c0:	14001326 	beq	r2,r16,3310 <mcapi_trans_node_get_attribute+0x11c>
    32c4:	d8c00617 	ldw	r3,24(sp)
    32c8:	00800144 	movi	r2,5
    32cc:	0021883a 	mov	r16,zero
    32d0:	18800015 	stw	r2,0(r3)
    32d4:	d1273017 	ldw	r4,-25408(gp)
    32d8:	001c5000 	call	1c500 <OSMutexPost>
    32dc:	10803fcc 	andi	r2,r2,255
    32e0:	10000926 	beq	r2,zero,3308 <mcapi_trans_node_get_attribute+0x114>
    32e4:	00c00104 	movi	r3,4
    32e8:	10c00526 	beq	r2,r3,3300 <mcapi_trans_node_get_attribute+0x10c>
    32ec:	00800044 	movi	r2,1
    32f0:	010000b4 	movhi	r4,2
    32f4:	21020b04 	addi	r4,r4,2092
    32f8:	d0a72e05 	stb	r2,-25416(gp)
    32fc:	00106fc0 	call	106fc <printf>
    3300:	01008f44 	movi	r4,573
    3304:	000c8780 	call	c878 <MCAPI_ASSERT.part.0>
    3308:	d0272e05 	stb	zero,-25416(gp)
    330c:	003fc406 	br	3220 <mcapi_trans_node_get_attribute+0x2c>
    3310:	28800317 	ldw	r2,12(r5)
    3314:	14401326 	beq	r2,r17,3364 <mcapi_trans_node_get_attribute+0x170>
    3318:	2883e317 	ldw	r2,3980(r5)
    331c:	14402a26 	beq	r2,r17,33c8 <mcapi_trans_node_get_attribute+0x1d4>
    3320:	2887c317 	ldw	r2,7948(r5)
    3324:	14401b26 	beq	r2,r17,3394 <mcapi_trans_node_get_attribute+0x1a0>
    3328:	288ba317 	ldw	r2,11916(r5)
    332c:	14404026 	beq	r2,r17,3430 <mcapi_trans_node_get_attribute+0x23c>
    3330:	288f8317 	ldw	r2,15884(r5)
    3334:	14403126 	beq	r2,r17,33fc <mcapi_trans_node_get_attribute+0x208>
    3338:	28936317 	ldw	r2,19852(r5)
    333c:	14405626 	beq	r2,r17,3498 <mcapi_trans_node_get_attribute+0x2a4>
    3340:	28974317 	ldw	r2,23820(r5)
    3344:	14404726 	beq	r2,r17,3464 <mcapi_trans_node_get_attribute+0x270>
    3348:	289b2317 	ldw	r2,27788(r5)
    334c:	14405f26 	beq	r2,r17,34cc <mcapi_trans_node_get_attribute+0x2d8>
    3350:	d8c00617 	ldw	r3,24(sp)
    3354:	00800184 	movi	r2,6
    3358:	0021883a 	mov	r16,zero
    335c:	18800015 	stw	r2,0(r3)
    3360:	003fdc06 	br	32d4 <mcapi_trans_node_get_attribute+0xe0>
    3364:	28800203 	ldbu	r2,8(r5)
    3368:	103fd626 	beq	r2,zero,32c4 <mcapi_trans_node_get_attribute+0xd0>
    336c:	28800403 	ldbu	r2,16(r5)
    3370:	103ff726 	beq	r2,zero,3350 <mcapi_trans_node_get_attribute+0x15c>
    3374:	29800717 	ldw	r6,28(r5)
    3378:	d8800517 	ldw	r2,20(sp)
    337c:	30806026 	beq	r6,r2,3500 <mcapi_trans_node_get_attribute+0x30c>
    3380:	d8c00617 	ldw	r3,24(sp)
    3384:	00800544 	movi	r2,21
    3388:	0021883a 	mov	r16,zero
    338c:	18800015 	stw	r2,0(r3)
    3390:	003fd006 	br	32d4 <mcapi_trans_node_get_attribute+0xe0>
    3394:	28800203 	ldbu	r2,8(r5)
    3398:	103fca26 	beq	r2,zero,32c4 <mcapi_trans_node_get_attribute+0xd0>
    339c:	2887c403 	ldbu	r2,7952(r5)
    33a0:	103feb26 	beq	r2,zero,3350 <mcapi_trans_node_get_attribute+0x15c>
    33a4:	2887c717 	ldw	r2,7964(r5)
    33a8:	d8c00517 	ldw	r3,20(sp)
    33ac:	10fff41e 	bne	r2,r3,3380 <mcapi_trans_node_get_attribute+0x18c>
    33b0:	3809883a 	mov	r4,r7
    33b4:	2947c804 	addi	r5,r5,7968
    33b8:	180d883a 	mov	r6,r3
    33bc:	00104fc0 	call	104fc <memcpy>
    33c0:	04000044 	movi	r16,1
    33c4:	003fc306 	br	32d4 <mcapi_trans_node_get_attribute+0xe0>
    33c8:	28800203 	ldbu	r2,8(r5)
    33cc:	103fbd26 	beq	r2,zero,32c4 <mcapi_trans_node_get_attribute+0xd0>
    33d0:	2883e403 	ldbu	r2,3984(r5)
    33d4:	103fde26 	beq	r2,zero,3350 <mcapi_trans_node_get_attribute+0x15c>
    33d8:	2883e717 	ldw	r2,3996(r5)
    33dc:	d8c00517 	ldw	r3,20(sp)
    33e0:	10ffe71e 	bne	r2,r3,3380 <mcapi_trans_node_get_attribute+0x18c>
    33e4:	3809883a 	mov	r4,r7
    33e8:	2943e804 	addi	r5,r5,4000
    33ec:	180d883a 	mov	r6,r3
    33f0:	00104fc0 	call	104fc <memcpy>
    33f4:	04000044 	movi	r16,1
    33f8:	003fb606 	br	32d4 <mcapi_trans_node_get_attribute+0xe0>
    33fc:	28800203 	ldbu	r2,8(r5)
    3400:	103fb026 	beq	r2,zero,32c4 <mcapi_trans_node_get_attribute+0xd0>
    3404:	288f8403 	ldbu	r2,15888(r5)
    3408:	103fd126 	beq	r2,zero,3350 <mcapi_trans_node_get_attribute+0x15c>
    340c:	288f8717 	ldw	r2,15900(r5)
    3410:	d8c00517 	ldw	r3,20(sp)
    3414:	10ffda1e 	bne	r2,r3,3380 <mcapi_trans_node_get_attribute+0x18c>
    3418:	3809883a 	mov	r4,r7
    341c:	294f8804 	addi	r5,r5,15904
    3420:	180d883a 	mov	r6,r3
    3424:	00104fc0 	call	104fc <memcpy>
    3428:	04000044 	movi	r16,1
    342c:	003fa906 	br	32d4 <mcapi_trans_node_get_attribute+0xe0>
    3430:	28800203 	ldbu	r2,8(r5)
    3434:	103fa326 	beq	r2,zero,32c4 <mcapi_trans_node_get_attribute+0xd0>
    3438:	288ba403 	ldbu	r2,11920(r5)
    343c:	103fc426 	beq	r2,zero,3350 <mcapi_trans_node_get_attribute+0x15c>
    3440:	288ba717 	ldw	r2,11932(r5)
    3444:	d8c00517 	ldw	r3,20(sp)
    3448:	10ffcd1e 	bne	r2,r3,3380 <mcapi_trans_node_get_attribute+0x18c>
    344c:	3809883a 	mov	r4,r7
    3450:	294ba804 	addi	r5,r5,11936
    3454:	180d883a 	mov	r6,r3
    3458:	00104fc0 	call	104fc <memcpy>
    345c:	04000044 	movi	r16,1
    3460:	003f9c06 	br	32d4 <mcapi_trans_node_get_attribute+0xe0>
    3464:	28800203 	ldbu	r2,8(r5)
    3468:	103f9626 	beq	r2,zero,32c4 <mcapi_trans_node_get_attribute+0xd0>
    346c:	28974403 	ldbu	r2,23824(r5)
    3470:	103fb726 	beq	r2,zero,3350 <mcapi_trans_node_get_attribute+0x15c>
    3474:	28974717 	ldw	r2,23836(r5)
    3478:	d8c00517 	ldw	r3,20(sp)
    347c:	10ffc01e 	bne	r2,r3,3380 <mcapi_trans_node_get_attribute+0x18c>
    3480:	3809883a 	mov	r4,r7
    3484:	29574804 	addi	r5,r5,23840
    3488:	180d883a 	mov	r6,r3
    348c:	00104fc0 	call	104fc <memcpy>
    3490:	04000044 	movi	r16,1
    3494:	003f8f06 	br	32d4 <mcapi_trans_node_get_attribute+0xe0>
    3498:	28800203 	ldbu	r2,8(r5)
    349c:	103f8926 	beq	r2,zero,32c4 <mcapi_trans_node_get_attribute+0xd0>
    34a0:	28936403 	ldbu	r2,19856(r5)
    34a4:	103faa26 	beq	r2,zero,3350 <mcapi_trans_node_get_attribute+0x15c>
    34a8:	28936717 	ldw	r2,19868(r5)
    34ac:	d8c00517 	ldw	r3,20(sp)
    34b0:	10ffb31e 	bne	r2,r3,3380 <mcapi_trans_node_get_attribute+0x18c>
    34b4:	3809883a 	mov	r4,r7
    34b8:	29536804 	addi	r5,r5,19872
    34bc:	180d883a 	mov	r6,r3
    34c0:	00104fc0 	call	104fc <memcpy>
    34c4:	04000044 	movi	r16,1
    34c8:	003f8206 	br	32d4 <mcapi_trans_node_get_attribute+0xe0>
    34cc:	28800203 	ldbu	r2,8(r5)
    34d0:	103f7c26 	beq	r2,zero,32c4 <mcapi_trans_node_get_attribute+0xd0>
    34d4:	289b2403 	ldbu	r2,27792(r5)
    34d8:	103f9d26 	beq	r2,zero,3350 <mcapi_trans_node_get_attribute+0x15c>
    34dc:	289b2717 	ldw	r2,27804(r5)
    34e0:	d8c00517 	ldw	r3,20(sp)
    34e4:	10ffa61e 	bne	r2,r3,3380 <mcapi_trans_node_get_attribute+0x18c>
    34e8:	3809883a 	mov	r4,r7
    34ec:	295b2804 	addi	r5,r5,27808
    34f0:	180d883a 	mov	r6,r3
    34f4:	00104fc0 	call	104fc <memcpy>
    34f8:	04000044 	movi	r16,1
    34fc:	003f7506 	br	32d4 <mcapi_trans_node_get_attribute+0xe0>
    3500:	3809883a 	mov	r4,r7
    3504:	29400804 	addi	r5,r5,32
    3508:	00104fc0 	call	104fc <memcpy>
    350c:	04000044 	movi	r16,1
    3510:	003f7006 	br	32d4 <mcapi_trans_node_get_attribute+0xe0>

00003514 <mcapi_trans_node_set_attribute>:
    3514:	2800071e 	bne	r5,zero,3534 <mcapi_trans_node_set_attribute+0x20>
    3518:	00800104 	movi	r2,4
    351c:	38800a26 	beq	r7,r2,3548 <mcapi_trans_node_set_attribute+0x34>
    3520:	d8c00017 	ldw	r3,0(sp)
    3524:	00800544 	movi	r2,21
    3528:	18800015 	stw	r2,0(r3)
    352c:	0005883a 	mov	r2,zero
    3530:	f800283a 	ret
    3534:	d8c00017 	ldw	r3,0(sp)
    3538:	00800604 	movi	r2,24
    353c:	18800015 	stw	r2,0(r3)
    3540:	0005883a 	mov	r2,zero
    3544:	f800283a 	ret
    3548:	30c00003 	ldbu	r3,0(r6)
    354c:	21000204 	addi	r4,r4,8
    3550:	00800044 	movi	r2,1
    3554:	20c00005 	stb	r3,0(r4)
    3558:	30c00043 	ldbu	r3,1(r6)
    355c:	20c00045 	stb	r3,1(r4)
    3560:	30c00083 	ldbu	r3,2(r6)
    3564:	20c00085 	stb	r3,2(r4)
    3568:	30c000c3 	ldbu	r3,3(r6)
    356c:	20c000c5 	stb	r3,3(r4)
    3570:	f800283a 	ret

00003574 <mcapi_trans_finalize>:
    3574:	d1273017 	ldw	r4,-25408(gp)
    3578:	defffd04 	addi	sp,sp,-12
    357c:	000b883a 	mov	r5,zero
    3580:	d80d883a 	mov	r6,sp
    3584:	dfc00215 	stw	ra,8(sp)
    3588:	dc000115 	stw	r16,4(sp)
    358c:	001c1c80 	call	1c1c8 <OSMutexPend>
    3590:	d8800003 	ldbu	r2,0(sp)
    3594:	10000826 	beq	r2,zero,35b8 <mcapi_trans_finalize+0x44>
    3598:	00c00104 	movi	r3,4
    359c:	10c00426 	beq	r2,r3,35b0 <mcapi_trans_finalize+0x3c>
    35a0:	010000b4 	movhi	r4,2
    35a4:	2101f004 	addi	r4,r4,1984
    35a8:	d0272e05 	stb	zero,-25416(gp)
    35ac:	00106fc0 	call	106fc <printf>
    35b0:	01009cc4 	movi	r4,627
    35b4:	000c8780 	call	c878 <MCAPI_ASSERT.part.0>
    35b8:	d0a73117 	ldw	r2,-25404(gp)
    35bc:	04000044 	movi	r16,1
    35c0:	d4272e05 	stb	r16,-25416(gp)
    35c4:	10001526 	beq	r2,zero,361c <mcapi_trans_finalize+0xa8>
    35c8:	d0273115 	stw	zero,-25404(gp)
    35cc:	d1273017 	ldw	r4,-25408(gp)
    35d0:	001c5000 	call	1c500 <OSMutexPost>
    35d4:	10c03fcc 	andi	r3,r2,255
    35d8:	18000926 	beq	r3,zero,3600 <mcapi_trans_finalize+0x8c>
    35dc:	00800104 	movi	r2,4
    35e0:	18800526 	beq	r3,r2,35f8 <mcapi_trans_finalize+0x84>
    35e4:	00800044 	movi	r2,1
    35e8:	010000b4 	movhi	r4,2
    35ec:	21020b04 	addi	r4,r4,2092
    35f0:	d0a72e05 	stb	r2,-25416(gp)
    35f4:	00106fc0 	call	106fc <printf>
    35f8:	01009f04 	movi	r4,636
    35fc:	000c8780 	call	c878 <MCAPI_ASSERT.part.0>
    3600:	d0272e05 	stb	zero,-25416(gp)
    3604:	000ccdc0 	call	ccdc <NS_layer_exit>
    3608:	8005883a 	mov	r2,r16
    360c:	dfc00217 	ldw	ra,8(sp)
    3610:	dc000117 	ldw	r16,4(sp)
    3614:	dec00304 	addi	sp,sp,12
    3618:	f800283a 	ret
    361c:	0021883a 	mov	r16,zero
    3620:	003fea06 	br	35cc <mcapi_trans_finalize+0x58>

00003624 <mcapi_trans_channel_type>:
    3624:	defffc04 	addi	sp,sp,-16
    3628:	dc000115 	stw	r16,4(sp)
    362c:	2021883a 	mov	r16,r4
    3630:	d1273017 	ldw	r4,-25408(gp)
    3634:	000b883a 	mov	r5,zero
    3638:	d80d883a 	mov	r6,sp
    363c:	dfc00315 	stw	ra,12(sp)
    3640:	dc400215 	stw	r17,8(sp)
    3644:	001c1c80 	call	1c1c8 <OSMutexPend>
    3648:	d8800003 	ldbu	r2,0(sp)
    364c:	10000826 	beq	r2,zero,3670 <mcapi_trans_channel_type+0x4c>
    3650:	00c00104 	movi	r3,4
    3654:	10c00426 	beq	r2,r3,3668 <mcapi_trans_channel_type+0x44>
    3658:	010000b4 	movhi	r4,2
    365c:	2101f004 	addi	r4,r4,1984
    3660:	d0272e05 	stb	zero,-25416(gp)
    3664:	00106fc0 	call	106fc <printf>
    3668:	0100a804 	movi	r4,672
    366c:	000c8780 	call	c878 <MCAPI_ASSERT.part.0>
    3670:	80c03fec 	andhi	r3,r16,255
    3674:	1806d43a 	srli	r3,r3,16
    3678:	04400044 	movi	r17,1
    367c:	813fc00c 	andi	r4,r16,65280
    3680:	d4672e05 	stb	r17,-25416(gp)
    3684:	2008d23a 	srli	r4,r4,8
    3688:	1800191e 	bne	r3,zero,36f0 <mcapi_trans_channel_type+0xcc>
    368c:	217fffcc 	andi	r5,r4,65535
    3690:	008001c4 	movi	r2,7
    3694:	11401636 	bltu	r2,r5,36f0 <mcapi_trans_channel_type+0xcc>
    3698:	84003fcc 	andi	r16,r16,255
    369c:	14001436 	bltu	r2,r16,36f0 <mcapi_trans_channel_type+0xcc>
    36a0:	2103e024 	muli	r4,r4,3968
    36a4:	84007a24 	muli	r16,r16,488
    36a8:	18df0324 	muli	r3,r3,31756
    36ac:	d0a73117 	ldw	r2,-25404(gp)
    36b0:	8121883a 	add	r16,r16,r4
    36b4:	d1273017 	ldw	r4,-25408(gp)
    36b8:	80c7883a 	add	r3,r16,r3
    36bc:	10c7883a 	add	r3,r2,r3
    36c0:	1c002403 	ldbu	r16,144(r3)
    36c4:	001c5000 	call	1c500 <OSMutexPost>
    36c8:	10803fcc 	andi	r2,r2,255
    36cc:	10000a26 	beq	r2,zero,36f8 <mcapi_trans_channel_type+0xd4>
    36d0:	00c00104 	movi	r3,4
    36d4:	10c00426 	beq	r2,r3,36e8 <mcapi_trans_channel_type+0xc4>
    36d8:	010000b4 	movhi	r4,2
    36dc:	21020b04 	addi	r4,r4,2092
    36e0:	d4672e05 	stb	r17,-25416(gp)
    36e4:	00106fc0 	call	106fc <printf>
    36e8:	0100a984 	movi	r4,678
    36ec:	000c8780 	call	c878 <MCAPI_ASSERT.part.0>
    36f0:	0100a884 	movi	r4,674
    36f4:	000c8780 	call	c878 <MCAPI_ASSERT.part.0>
    36f8:	80803fcc 	andi	r2,r16,255
    36fc:	d0272e05 	stb	zero,-25416(gp)
    3700:	dfc00317 	ldw	ra,12(sp)
    3704:	dc400217 	ldw	r17,8(sp)
    3708:	dc000117 	ldw	r16,4(sp)
    370c:	dec00404 	addi	sp,sp,16
    3710:	f800283a 	ret

00003714 <mcapi_trans_send_endpoint>:
    3714:	defffd04 	addi	sp,sp,-12
    3718:	dc000115 	stw	r16,4(sp)
    371c:	2021883a 	mov	r16,r4
    3720:	d1273017 	ldw	r4,-25408(gp)
    3724:	000b883a 	mov	r5,zero
    3728:	d80d883a 	mov	r6,sp
    372c:	dfc00215 	stw	ra,8(sp)
    3730:	001c1c80 	call	1c1c8 <OSMutexPend>
    3734:	d8800003 	ldbu	r2,0(sp)
    3738:	10000826 	beq	r2,zero,375c <mcapi_trans_send_endpoint+0x48>
    373c:	00c00104 	movi	r3,4
    3740:	10c00426 	beq	r2,r3,3754 <mcapi_trans_send_endpoint+0x40>
    3744:	010000b4 	movhi	r4,2
    3748:	2101f004 	addi	r4,r4,1984
    374c:	d0272e05 	stb	zero,-25416(gp)
    3750:	00106fc0 	call	106fc <printf>
    3754:	0100ae04 	movi	r4,696
    3758:	000c8780 	call	c878 <MCAPI_ASSERT.part.0>
    375c:	80c03fec 	andhi	r3,r16,255
    3760:	1806d43a 	srli	r3,r3,16
    3764:	00800044 	movi	r2,1
    3768:	813fc00c 	andi	r4,r16,65280
    376c:	d0a72e05 	stb	r2,-25416(gp)
    3770:	2008d23a 	srli	r4,r4,8
    3774:	18001d1e 	bne	r3,zero,37ec <mcapi_trans_send_endpoint+0xd8>
    3778:	217fffcc 	andi	r5,r4,65535
    377c:	008001c4 	movi	r2,7
    3780:	11401a36 	bltu	r2,r5,37ec <mcapi_trans_send_endpoint+0xd8>
    3784:	81403fcc 	andi	r5,r16,255
    3788:	11401836 	bltu	r2,r5,37ec <mcapi_trans_send_endpoint+0xd8>
    378c:	29407a24 	muli	r5,r5,488
    3790:	2103e024 	muli	r4,r4,3968
    3794:	18df0324 	muli	r3,r3,31756
    3798:	d0a73117 	ldw	r2,-25404(gp)
    379c:	2909883a 	add	r4,r5,r4
    37a0:	20c7883a 	add	r3,r4,r3
    37a4:	10c7883a 	add	r3,r2,r3
    37a8:	188014c3 	ldbu	r2,83(r3)
    37ac:	10001726 	beq	r2,zero,380c <mcapi_trans_send_endpoint+0xf8>
    37b0:	18802317 	ldw	r2,140(r3)
    37b4:	80a0c03a 	cmpne	r16,r16,r2
    37b8:	d1273017 	ldw	r4,-25408(gp)
    37bc:	001c5000 	call	1c500 <OSMutexPost>
    37c0:	10c03fcc 	andi	r3,r2,255
    37c4:	18000b26 	beq	r3,zero,37f4 <mcapi_trans_send_endpoint+0xe0>
    37c8:	00800104 	movi	r2,4
    37cc:	18800526 	beq	r3,r2,37e4 <mcapi_trans_send_endpoint+0xd0>
    37d0:	00800044 	movi	r2,1
    37d4:	010000b4 	movhi	r4,2
    37d8:	21020b04 	addi	r4,r4,2092
    37dc:	d0a72e05 	stb	r2,-25416(gp)
    37e0:	00106fc0 	call	106fc <printf>
    37e4:	0100b104 	movi	r4,708
    37e8:	000c8780 	call	c878 <MCAPI_ASSERT.part.0>
    37ec:	0100ae84 	movi	r4,698
    37f0:	000c8780 	call	c878 <MCAPI_ASSERT.part.0>
    37f4:	8005883a 	mov	r2,r16
    37f8:	d0272e05 	stb	zero,-25416(gp)
    37fc:	dfc00217 	ldw	ra,8(sp)
    3800:	dc000117 	ldw	r16,4(sp)
    3804:	dec00304 	addi	sp,sp,12
    3808:	f800283a 	ret
    380c:	04000044 	movi	r16,1
    3810:	003fe906 	br	37b8 <mcapi_trans_send_endpoint+0xa4>

00003814 <mcapi_trans_recv_endpoint>:
    3814:	defffd04 	addi	sp,sp,-12
    3818:	dc000115 	stw	r16,4(sp)
    381c:	2021883a 	mov	r16,r4
    3820:	d1273017 	ldw	r4,-25408(gp)
    3824:	000b883a 	mov	r5,zero
    3828:	d80d883a 	mov	r6,sp
    382c:	dfc00215 	stw	ra,8(sp)
    3830:	001c1c80 	call	1c1c8 <OSMutexPend>
    3834:	d8800003 	ldbu	r2,0(sp)
    3838:	10000826 	beq	r2,zero,385c <mcapi_trans_recv_endpoint+0x48>
    383c:	00c00104 	movi	r3,4
    3840:	10c00426 	beq	r2,r3,3854 <mcapi_trans_recv_endpoint+0x40>
    3844:	010000b4 	movhi	r4,2
    3848:	2101f004 	addi	r4,r4,1984
    384c:	d0272e05 	stb	zero,-25416(gp)
    3850:	00106fc0 	call	106fc <printf>
    3854:	0100b5c4 	movi	r4,727
    3858:	000c8780 	call	c878 <MCAPI_ASSERT.part.0>
    385c:	80c03fec 	andhi	r3,r16,255
    3860:	1806d43a 	srli	r3,r3,16
    3864:	00800044 	movi	r2,1
    3868:	813fc00c 	andi	r4,r16,65280
    386c:	d0a72e05 	stb	r2,-25416(gp)
    3870:	2008d23a 	srli	r4,r4,8
    3874:	18001d1e 	bne	r3,zero,38ec <mcapi_trans_recv_endpoint+0xd8>
    3878:	217fffcc 	andi	r5,r4,65535
    387c:	008001c4 	movi	r2,7
    3880:	11401a36 	bltu	r2,r5,38ec <mcapi_trans_recv_endpoint+0xd8>
    3884:	81403fcc 	andi	r5,r16,255
    3888:	11401836 	bltu	r2,r5,38ec <mcapi_trans_recv_endpoint+0xd8>
    388c:	29407a24 	muli	r5,r5,488
    3890:	2103e024 	muli	r4,r4,3968
    3894:	18df0324 	muli	r3,r3,31756
    3898:	d0a73117 	ldw	r2,-25404(gp)
    389c:	2909883a 	add	r4,r5,r4
    38a0:	20c7883a 	add	r3,r4,r3
    38a4:	10c7883a 	add	r3,r2,r3
    38a8:	188014c3 	ldbu	r2,83(r3)
    38ac:	10001726 	beq	r2,zero,390c <mcapi_trans_recv_endpoint+0xf8>
    38b0:	18802217 	ldw	r2,136(r3)
    38b4:	80a0c03a 	cmpne	r16,r16,r2
    38b8:	d1273017 	ldw	r4,-25408(gp)
    38bc:	001c5000 	call	1c500 <OSMutexPost>
    38c0:	10c03fcc 	andi	r3,r2,255
    38c4:	18000b26 	beq	r3,zero,38f4 <mcapi_trans_recv_endpoint+0xe0>
    38c8:	00800104 	movi	r2,4
    38cc:	18800526 	beq	r3,r2,38e4 <mcapi_trans_recv_endpoint+0xd0>
    38d0:	00800044 	movi	r2,1
    38d4:	010000b4 	movhi	r4,2
    38d8:	21020b04 	addi	r4,r4,2092
    38dc:	d0a72e05 	stb	r2,-25416(gp)
    38e0:	00106fc0 	call	106fc <printf>
    38e4:	0100b8c4 	movi	r4,739
    38e8:	000c8780 	call	c878 <MCAPI_ASSERT.part.0>
    38ec:	0100b644 	movi	r4,729
    38f0:	000c8780 	call	c878 <MCAPI_ASSERT.part.0>
    38f4:	8005883a 	mov	r2,r16
    38f8:	d0272e05 	stb	zero,-25416(gp)
    38fc:	dfc00217 	ldw	ra,8(sp)
    3900:	dc000117 	ldw	r16,4(sp)
    3904:	dec00304 	addi	sp,sp,12
    3908:	f800283a 	ret
    390c:	04000044 	movi	r16,1
    3910:	003fe906 	br	38b8 <mcapi_trans_recv_endpoint+0xa4>

00003914 <mcapi_trans_valid_port>:
    3914:	00800044 	movi	r2,1
    3918:	f800283a 	ret

0000391c <mcapi_trans_valid_node>:
    391c:	20800230 	cmpltui	r2,r4,8
    3920:	f800283a 	ret

00003924 <mcapi_trans_valid_domain>:
    3924:	2005003a 	cmpeq	r2,r4,zero
    3928:	f800283a 	ret

0000392c <mcapi_trans_valid_endpoint>:
    392c:	defffd04 	addi	sp,sp,-12
    3930:	dc000115 	stw	r16,4(sp)
    3934:	2021883a 	mov	r16,r4
    3938:	d1273017 	ldw	r4,-25408(gp)
    393c:	000b883a 	mov	r5,zero
    3940:	d80d883a 	mov	r6,sp
    3944:	dfc00215 	stw	ra,8(sp)
    3948:	001c1c80 	call	1c1c8 <OSMutexPend>
    394c:	d8800003 	ldbu	r2,0(sp)
    3950:	10000826 	beq	r2,zero,3974 <mcapi_trans_valid_endpoint+0x48>
    3954:	00c00104 	movi	r3,4
    3958:	10c00426 	beq	r2,r3,396c <mcapi_trans_valid_endpoint+0x40>
    395c:	010000b4 	movhi	r4,2
    3960:	2101f004 	addi	r4,r4,1984
    3964:	d0272e05 	stb	zero,-25416(gp)
    3968:	00106fc0 	call	106fc <printf>
    396c:	0100c604 	movi	r4,792
    3970:	000c8780 	call	c878 <MCAPI_ASSERT.part.0>
    3974:	80c03fec 	andhi	r3,r16,255
    3978:	1806d43a 	srli	r3,r3,16
    397c:	00800044 	movi	r2,1
    3980:	813fc00c 	andi	r4,r16,65280
    3984:	d0a72e05 	stb	r2,-25416(gp)
    3988:	2008d23a 	srli	r4,r4,8
    398c:	1800051e 	bne	r3,zero,39a4 <mcapi_trans_valid_endpoint+0x78>
    3990:	217fffcc 	andi	r5,r4,65535
    3994:	008001c4 	movi	r2,7
    3998:	11400236 	bltu	r2,r5,39a4 <mcapi_trans_valid_endpoint+0x78>
    399c:	84003fcc 	andi	r16,r16,255
    39a0:	1400142e 	bgeu	r2,r16,39f4 <mcapi_trans_valid_endpoint+0xc8>
    39a4:	0021883a 	mov	r16,zero
    39a8:	d1273017 	ldw	r4,-25408(gp)
    39ac:	001c5000 	call	1c500 <OSMutexPost>
    39b0:	10c03fcc 	andi	r3,r2,255
    39b4:	18000926 	beq	r3,zero,39dc <mcapi_trans_valid_endpoint+0xb0>
    39b8:	00800104 	movi	r2,4
    39bc:	18800526 	beq	r3,r2,39d4 <mcapi_trans_valid_endpoint+0xa8>
    39c0:	00800044 	movi	r2,1
    39c4:	010000b4 	movhi	r4,2
    39c8:	21020b04 	addi	r4,r4,2092
    39cc:	d0a72e05 	stb	r2,-25416(gp)
    39d0:	00106fc0 	call	106fc <printf>
    39d4:	0100c844 	movi	r4,801
    39d8:	000c8780 	call	c878 <MCAPI_ASSERT.part.0>
    39dc:	8005883a 	mov	r2,r16
    39e0:	d0272e05 	stb	zero,-25416(gp)
    39e4:	dfc00217 	ldw	ra,8(sp)
    39e8:	dc000117 	ldw	r16,4(sp)
    39ec:	dec00304 	addi	sp,sp,12
    39f0:	f800283a 	ret
    39f4:	84007a24 	muli	r16,r16,488
    39f8:	2103e024 	muli	r4,r4,3968
    39fc:	18df0324 	muli	r3,r3,31756
    3a00:	d0a73117 	ldw	r2,-25404(gp)
    3a04:	8121883a 	add	r16,r16,r4
    3a08:	80c7883a 	add	r3,r16,r3
    3a0c:	10c7883a 	add	r3,r2,r3
    3a10:	1c001403 	ldbu	r16,80(r3)
    3a14:	8020c03a 	cmpne	r16,r16,zero
    3a18:	003fe306 	br	39a8 <mcapi_trans_valid_endpoint+0x7c>

00003a1c <mcapi_trans_endpoint_exists>:
    3a1c:	defffd04 	addi	sp,sp,-12
    3a20:	dc000115 	stw	r16,4(sp)
    3a24:	dfc00215 	stw	ra,8(sp)
    3a28:	00bfffc4 	movi	r2,-1
    3a2c:	2821883a 	mov	r16,r5
    3a30:	28805426 	beq	r5,r2,3b84 <mcapi_trans_endpoint_exists+0x168>
    3a34:	d1273017 	ldw	r4,-25408(gp)
    3a38:	000b883a 	mov	r5,zero
    3a3c:	d80d883a 	mov	r6,sp
    3a40:	001c1c80 	call	1c1c8 <OSMutexPend>
    3a44:	d8800003 	ldbu	r2,0(sp)
    3a48:	1000461e 	bne	r2,zero,3b64 <mcapi_trans_endpoint_exists+0x148>
    3a4c:	d0a73117 	ldw	r2,-25404(gp)
    3a50:	00c00044 	movi	r3,1
    3a54:	d0e72e05 	stb	r3,-25416(gp)
    3a58:	10005726 	beq	r2,zero,3bb8 <mcapi_trans_endpoint_exists+0x19c>
    3a5c:	d1272d17 	ldw	r4,-25420(gp)
    3a60:	d0e72c17 	ldw	r3,-25424(gp)
    3a64:	2103e024 	muli	r4,r4,3968
    3a68:	18df0324 	muli	r3,r3,31756
    3a6c:	20cb883a 	add	r5,r4,r3
    3a70:	114b883a 	add	r5,r2,r5
    3a74:	29801403 	ldbu	r6,80(r5)
    3a78:	30000226 	beq	r6,zero,3a84 <mcapi_trans_endpoint_exists+0x68>
    3a7c:	29401317 	ldw	r5,76(r5)
    3a80:	2c004b26 	beq	r5,r16,3bb0 <mcapi_trans_endpoint_exists+0x194>
    3a84:	20cb883a 	add	r5,r4,r3
    3a88:	114b883a 	add	r5,r2,r5
    3a8c:	29808e03 	ldbu	r6,568(r5)
    3a90:	30000226 	beq	r6,zero,3a9c <mcapi_trans_endpoint_exists+0x80>
    3a94:	29408d17 	ldw	r5,564(r5)
    3a98:	2c004526 	beq	r5,r16,3bb0 <mcapi_trans_endpoint_exists+0x194>
    3a9c:	20cb883a 	add	r5,r4,r3
    3aa0:	114b883a 	add	r5,r2,r5
    3aa4:	29810803 	ldbu	r6,1056(r5)
    3aa8:	30000226 	beq	r6,zero,3ab4 <mcapi_trans_endpoint_exists+0x98>
    3aac:	29410717 	ldw	r5,1052(r5)
    3ab0:	2c003f26 	beq	r5,r16,3bb0 <mcapi_trans_endpoint_exists+0x194>
    3ab4:	20cb883a 	add	r5,r4,r3
    3ab8:	114b883a 	add	r5,r2,r5
    3abc:	29818203 	ldbu	r6,1544(r5)
    3ac0:	30000226 	beq	r6,zero,3acc <mcapi_trans_endpoint_exists+0xb0>
    3ac4:	29418117 	ldw	r5,1540(r5)
    3ac8:	2c003926 	beq	r5,r16,3bb0 <mcapi_trans_endpoint_exists+0x194>
    3acc:	20cb883a 	add	r5,r4,r3
    3ad0:	114b883a 	add	r5,r2,r5
    3ad4:	2981fc03 	ldbu	r6,2032(r5)
    3ad8:	30000226 	beq	r6,zero,3ae4 <mcapi_trans_endpoint_exists+0xc8>
    3adc:	2941fb17 	ldw	r5,2028(r5)
    3ae0:	2c003326 	beq	r5,r16,3bb0 <mcapi_trans_endpoint_exists+0x194>
    3ae4:	20cb883a 	add	r5,r4,r3
    3ae8:	114b883a 	add	r5,r2,r5
    3aec:	29827603 	ldbu	r6,2520(r5)
    3af0:	30000226 	beq	r6,zero,3afc <mcapi_trans_endpoint_exists+0xe0>
    3af4:	29427517 	ldw	r5,2516(r5)
    3af8:	2c002d26 	beq	r5,r16,3bb0 <mcapi_trans_endpoint_exists+0x194>
    3afc:	20cb883a 	add	r5,r4,r3
    3b00:	114b883a 	add	r5,r2,r5
    3b04:	2982f003 	ldbu	r6,3008(r5)
    3b08:	30000226 	beq	r6,zero,3b14 <mcapi_trans_endpoint_exists+0xf8>
    3b0c:	2942ef17 	ldw	r5,3004(r5)
    3b10:	2c002726 	beq	r5,r16,3bb0 <mcapi_trans_endpoint_exists+0x194>
    3b14:	20c7883a 	add	r3,r4,r3
    3b18:	10c5883a 	add	r2,r2,r3
    3b1c:	10c36a03 	ldbu	r3,3496(r2)
    3b20:	18000226 	beq	r3,zero,3b2c <mcapi_trans_endpoint_exists+0x110>
    3b24:	10836917 	ldw	r2,3492(r2)
    3b28:	14002126 	beq	r2,r16,3bb0 <mcapi_trans_endpoint_exists+0x194>
    3b2c:	0021883a 	mov	r16,zero
    3b30:	d1273017 	ldw	r4,-25408(gp)
    3b34:	001c5000 	call	1c500 <OSMutexPost>
    3b38:	10c03fcc 	andi	r3,r2,255
    3b3c:	18001626 	beq	r3,zero,3b98 <mcapi_trans_endpoint_exists+0x17c>
    3b40:	00800104 	movi	r2,4
    3b44:	18800526 	beq	r3,r2,3b5c <mcapi_trans_endpoint_exists+0x140>
    3b48:	00800044 	movi	r2,1
    3b4c:	010000b4 	movhi	r4,2
    3b50:	21020b04 	addi	r4,r4,2092
    3b54:	d0a72e05 	stb	r2,-25416(gp)
    3b58:	00106fc0 	call	106fc <printf>
    3b5c:	0100d204 	movi	r4,840
    3b60:	000c8780 	call	c878 <MCAPI_ASSERT.part.0>
    3b64:	00c00104 	movi	r3,4
    3b68:	10c00426 	beq	r2,r3,3b7c <mcapi_trans_endpoint_exists+0x160>
    3b6c:	010000b4 	movhi	r4,2
    3b70:	2101f004 	addi	r4,r4,1984
    3b74:	d0272e05 	stb	zero,-25416(gp)
    3b78:	00106fc0 	call	106fc <printf>
    3b7c:	0100ce44 	movi	r4,825
    3b80:	000c8780 	call	c878 <MCAPI_ASSERT.part.0>
    3b84:	0005883a 	mov	r2,zero
    3b88:	dfc00217 	ldw	ra,8(sp)
    3b8c:	dc000117 	ldw	r16,4(sp)
    3b90:	dec00304 	addi	sp,sp,12
    3b94:	f800283a 	ret
    3b98:	8005883a 	mov	r2,r16
    3b9c:	d0272e05 	stb	zero,-25416(gp)
    3ba0:	dfc00217 	ldw	ra,8(sp)
    3ba4:	dc000117 	ldw	r16,4(sp)
    3ba8:	dec00304 	addi	sp,sp,12
    3bac:	f800283a 	ret
    3bb0:	04000044 	movi	r16,1
    3bb4:	003fde06 	br	3b30 <mcapi_trans_endpoint_exists+0x114>
    3bb8:	0100cec4 	movi	r4,827
    3bbc:	000c8780 	call	c878 <MCAPI_ASSERT.part.0>

00003bc0 <mcapi_trans_endpoint_exists_>:
    3bc0:	deffff04 	addi	sp,sp,-4
    3bc4:	dfc00015 	stw	ra,0(sp)
    3bc8:	00bfffc4 	movi	r2,-1
    3bcc:	28803426 	beq	r5,r2,3ca0 <mcapi_trans_endpoint_exists_+0xe0>
    3bd0:	d0a73117 	ldw	r2,-25404(gp)
    3bd4:	10003c26 	beq	r2,zero,3cc8 <mcapi_trans_endpoint_exists_+0x108>
    3bd8:	d1272d17 	ldw	r4,-25420(gp)
    3bdc:	d0e72c17 	ldw	r3,-25424(gp)
    3be0:	2103e024 	muli	r4,r4,3968
    3be4:	18df0324 	muli	r3,r3,31756
    3be8:	20cd883a 	add	r6,r4,r3
    3bec:	118d883a 	add	r6,r2,r6
    3bf0:	31c01403 	ldbu	r7,80(r6)
    3bf4:	38000226 	beq	r7,zero,3c00 <mcapi_trans_endpoint_exists_+0x40>
    3bf8:	31801317 	ldw	r6,76(r6)
    3bfc:	31402e26 	beq	r6,r5,3cb8 <mcapi_trans_endpoint_exists_+0xf8>
    3c00:	20cd883a 	add	r6,r4,r3
    3c04:	118d883a 	add	r6,r2,r6
    3c08:	31c08e03 	ldbu	r7,568(r6)
    3c0c:	38000226 	beq	r7,zero,3c18 <mcapi_trans_endpoint_exists_+0x58>
    3c10:	31808d17 	ldw	r6,564(r6)
    3c14:	31402826 	beq	r6,r5,3cb8 <mcapi_trans_endpoint_exists_+0xf8>
    3c18:	20cd883a 	add	r6,r4,r3
    3c1c:	118d883a 	add	r6,r2,r6
    3c20:	31c10803 	ldbu	r7,1056(r6)
    3c24:	38000226 	beq	r7,zero,3c30 <mcapi_trans_endpoint_exists_+0x70>
    3c28:	31810717 	ldw	r6,1052(r6)
    3c2c:	31402226 	beq	r6,r5,3cb8 <mcapi_trans_endpoint_exists_+0xf8>
    3c30:	20cd883a 	add	r6,r4,r3
    3c34:	118d883a 	add	r6,r2,r6
    3c38:	31c18203 	ldbu	r7,1544(r6)
    3c3c:	38000226 	beq	r7,zero,3c48 <mcapi_trans_endpoint_exists_+0x88>
    3c40:	31818117 	ldw	r6,1540(r6)
    3c44:	31401c26 	beq	r6,r5,3cb8 <mcapi_trans_endpoint_exists_+0xf8>
    3c48:	20cd883a 	add	r6,r4,r3
    3c4c:	118d883a 	add	r6,r2,r6
    3c50:	31c1fc03 	ldbu	r7,2032(r6)
    3c54:	38000226 	beq	r7,zero,3c60 <mcapi_trans_endpoint_exists_+0xa0>
    3c58:	3181fb17 	ldw	r6,2028(r6)
    3c5c:	31401626 	beq	r6,r5,3cb8 <mcapi_trans_endpoint_exists_+0xf8>
    3c60:	20cd883a 	add	r6,r4,r3
    3c64:	118d883a 	add	r6,r2,r6
    3c68:	31c27603 	ldbu	r7,2520(r6)
    3c6c:	38000226 	beq	r7,zero,3c78 <mcapi_trans_endpoint_exists_+0xb8>
    3c70:	31827517 	ldw	r6,2516(r6)
    3c74:	31401026 	beq	r6,r5,3cb8 <mcapi_trans_endpoint_exists_+0xf8>
    3c78:	20cd883a 	add	r6,r4,r3
    3c7c:	118d883a 	add	r6,r2,r6
    3c80:	31c2f003 	ldbu	r7,3008(r6)
    3c84:	38000226 	beq	r7,zero,3c90 <mcapi_trans_endpoint_exists_+0xd0>
    3c88:	3182ef17 	ldw	r6,3004(r6)
    3c8c:	31400a26 	beq	r6,r5,3cb8 <mcapi_trans_endpoint_exists_+0xf8>
    3c90:	20c7883a 	add	r3,r4,r3
    3c94:	10c5883a 	add	r2,r2,r3
    3c98:	10c36a03 	ldbu	r3,3496(r2)
    3c9c:	1800041e 	bne	r3,zero,3cb0 <mcapi_trans_endpoint_exists_+0xf0>
    3ca0:	0005883a 	mov	r2,zero
    3ca4:	dfc00017 	ldw	ra,0(sp)
    3ca8:	dec00104 	addi	sp,sp,4
    3cac:	f800283a 	ret
    3cb0:	10836917 	ldw	r2,3492(r2)
    3cb4:	117ffa1e 	bne	r2,r5,3ca0 <mcapi_trans_endpoint_exists_+0xe0>
    3cb8:	00800044 	movi	r2,1
    3cbc:	dfc00017 	ldw	ra,0(sp)
    3cc0:	dec00104 	addi	sp,sp,4
    3cc4:	f800283a 	ret
    3cc8:	0100d944 	movi	r4,869
    3ccc:	000c8780 	call	c878 <MCAPI_ASSERT.part.0>

00003cd0 <mcapi_trans_valid_endpoints>:
    3cd0:	defffc04 	addi	sp,sp,-16
    3cd4:	dc000115 	stw	r16,4(sp)
    3cd8:	2021883a 	mov	r16,r4
    3cdc:	d1273017 	ldw	r4,-25408(gp)
    3ce0:	dc400215 	stw	r17,8(sp)
    3ce4:	d80d883a 	mov	r6,sp
    3ce8:	2823883a 	mov	r17,r5
    3cec:	000b883a 	mov	r5,zero
    3cf0:	dfc00315 	stw	ra,12(sp)
    3cf4:	001c1c80 	call	1c1c8 <OSMutexPend>
    3cf8:	d8c00003 	ldbu	r3,0(sp)
    3cfc:	18000826 	beq	r3,zero,3d20 <mcapi_trans_valid_endpoints+0x50>
    3d00:	00800104 	movi	r2,4
    3d04:	18800426 	beq	r3,r2,3d18 <mcapi_trans_valid_endpoints+0x48>
    3d08:	010000b4 	movhi	r4,2
    3d0c:	2101f004 	addi	r4,r4,1984
    3d10:	d0272e05 	stb	zero,-25416(gp)
    3d14:	00106fc0 	call	106fc <printf>
    3d18:	0100e084 	movi	r4,898
    3d1c:	000c8780 	call	c878 <MCAPI_ASSERT.part.0>
    3d20:	00800044 	movi	r2,1
    3d24:	80ffc00c 	andi	r3,r16,65280
    3d28:	d0a72e05 	stb	r2,-25416(gp)
    3d2c:	80803fec 	andhi	r2,r16,255
    3d30:	1806d23a 	srli	r3,r3,8
    3d34:	10001b1e 	bne	r2,zero,3da4 <mcapi_trans_valid_endpoints+0xd4>
    3d38:	18ffffcc 	andi	r3,r3,65535
    3d3c:	008001c4 	movi	r2,7
    3d40:	10c01836 	bltu	r2,r3,3da4 <mcapi_trans_valid_endpoints+0xd4>
    3d44:	84003fcc 	andi	r16,r16,255
    3d48:	14001636 	bltu	r2,r16,3da4 <mcapi_trans_valid_endpoints+0xd4>
    3d4c:	88ffc00c 	andi	r3,r17,65280
    3d50:	89003fec 	andhi	r4,r17,255
    3d54:	1806d23a 	srli	r3,r3,8
    3d58:	8c003fcc 	andi	r16,r17,255
    3d5c:	2000111e 	bne	r4,zero,3da4 <mcapi_trans_valid_endpoints+0xd4>
    3d60:	18ffffcc 	andi	r3,r3,65535
    3d64:	10c00f36 	bltu	r2,r3,3da4 <mcapi_trans_valid_endpoints+0xd4>
    3d68:	d1273017 	ldw	r4,-25408(gp)
    3d6c:	843fffcc 	andi	r16,r16,65535
    3d70:	84000230 	cmpltui	r16,r16,8
    3d74:	001c5000 	call	1c500 <OSMutexPost>
    3d78:	10c03fcc 	andi	r3,r2,255
    3d7c:	18000e26 	beq	r3,zero,3db8 <mcapi_trans_valid_endpoints+0xe8>
    3d80:	00800104 	movi	r2,4
    3d84:	18800526 	beq	r3,r2,3d9c <mcapi_trans_valid_endpoints+0xcc>
    3d88:	00800044 	movi	r2,1
    3d8c:	010000b4 	movhi	r4,2
    3d90:	21020b04 	addi	r4,r4,2092
    3d94:	d0a72e05 	stb	r2,-25416(gp)
    3d98:	00106fc0 	call	106fc <printf>
    3d9c:	0100e404 	movi	r4,912
    3da0:	000c8780 	call	c878 <MCAPI_ASSERT.part.0>
    3da4:	d1273017 	ldw	r4,-25408(gp)
    3da8:	0021883a 	mov	r16,zero
    3dac:	001c5000 	call	1c500 <OSMutexPost>
    3db0:	10c03fcc 	andi	r3,r2,255
    3db4:	183ff21e 	bne	r3,zero,3d80 <mcapi_trans_valid_endpoints+0xb0>
    3db8:	8005883a 	mov	r2,r16
    3dbc:	d0272e05 	stb	zero,-25416(gp)
    3dc0:	dfc00317 	ldw	ra,12(sp)
    3dc4:	dc400217 	ldw	r17,8(sp)
    3dc8:	dc000117 	ldw	r16,4(sp)
    3dcc:	dec00404 	addi	sp,sp,16
    3dd0:	f800283a 	ret

00003dd4 <mcapi_trans_endpoint_channel_isopen>:
    3dd4:	20803fec 	andhi	r2,r4,255
    3dd8:	1004d43a 	srli	r2,r2,16
    3ddc:	defffb04 	addi	sp,sp,-20
    3de0:	dfc00415 	stw	ra,16(sp)
    3de4:	dc800315 	stw	r18,12(sp)
    3de8:	dc400215 	stw	r17,8(sp)
    3dec:	dc000115 	stw	r16,4(sp)
    3df0:	1000141e 	bne	r2,zero,3e44 <mcapi_trans_endpoint_channel_isopen+0x70>
    3df4:	20ffc00c 	andi	r3,r4,65280
    3df8:	1806d23a 	srli	r3,r3,8
    3dfc:	014001c4 	movi	r5,7
    3e00:	28c01036 	bltu	r5,r3,3e44 <mcapi_trans_endpoint_channel_isopen+0x70>
    3e04:	24403fcc 	andi	r17,r4,255
    3e08:	2c400e36 	bltu	r5,r17,3e44 <mcapi_trans_endpoint_channel_isopen+0x70>
    3e0c:	d4a00017 	ldw	r18,-32768(gp)
    3e10:	9080021e 	bne	r18,r2,3e1c <mcapi_trans_endpoint_channel_isopen+0x48>
    3e14:	d4200117 	ldw	r16,-32764(gp)
    3e18:	80c00c26 	beq	r16,r3,3e4c <mcapi_trans_endpoint_channel_isopen+0x78>
    3e1c:	000d3b00 	call	d3b0 <NS_endpointChannelIsopen_request>
    3e20:	10803fcc 	andi	r2,r2,255
    3e24:	1021003a 	cmpeq	r16,r2,zero
    3e28:	8005883a 	mov	r2,r16
    3e2c:	dfc00417 	ldw	ra,16(sp)
    3e30:	dc800317 	ldw	r18,12(sp)
    3e34:	dc400217 	ldw	r17,8(sp)
    3e38:	dc000117 	ldw	r16,4(sp)
    3e3c:	dec00504 	addi	sp,sp,20
    3e40:	f800283a 	ret
    3e44:	0100f344 	movi	r4,973
    3e48:	000c8780 	call	c878 <MCAPI_ASSERT.part.0>
    3e4c:	d1273017 	ldw	r4,-25408(gp)
    3e50:	000b883a 	mov	r5,zero
    3e54:	d80d883a 	mov	r6,sp
    3e58:	001c1c80 	call	1c1c8 <OSMutexPend>
    3e5c:	d8800003 	ldbu	r2,0(sp)
    3e60:	10000826 	beq	r2,zero,3e84 <mcapi_trans_endpoint_channel_isopen+0xb0>
    3e64:	00c00104 	movi	r3,4
    3e68:	10c00426 	beq	r2,r3,3e7c <mcapi_trans_endpoint_channel_isopen+0xa8>
    3e6c:	010000b4 	movhi	r4,2
    3e70:	2101f004 	addi	r4,r4,1984
    3e74:	d0272e05 	stb	zero,-25416(gp)
    3e78:	00106fc0 	call	106fc <printf>
    3e7c:	0100f4c4 	movi	r4,979
    3e80:	000c8780 	call	c878 <MCAPI_ASSERT.part.0>
    3e84:	88807a24 	muli	r2,r17,488
    3e88:	8403e024 	muli	r16,r16,3968
    3e8c:	949f0324 	muli	r18,r18,31756
    3e90:	d1273017 	ldw	r4,-25408(gp)
    3e94:	1405883a 	add	r2,r2,r16
    3e98:	14a5883a 	add	r18,r2,r18
    3e9c:	d0a73117 	ldw	r2,-25404(gp)
    3ea0:	04400044 	movi	r17,1
    3ea4:	d4672e05 	stb	r17,-25416(gp)
    3ea8:	1485883a 	add	r2,r2,r18
    3eac:	14001483 	ldbu	r16,82(r2)
    3eb0:	001c5000 	call	1c500 <OSMutexPost>
    3eb4:	10803fcc 	andi	r2,r2,255
    3eb8:	10000826 	beq	r2,zero,3edc <mcapi_trans_endpoint_channel_isopen+0x108>
    3ebc:	00c00104 	movi	r3,4
    3ec0:	10c00426 	beq	r2,r3,3ed4 <mcapi_trans_endpoint_channel_isopen+0x100>
    3ec4:	010000b4 	movhi	r4,2
    3ec8:	21020b04 	addi	r4,r4,2092
    3ecc:	d4672e05 	stb	r17,-25416(gp)
    3ed0:	00106fc0 	call	106fc <printf>
    3ed4:	0100f604 	movi	r4,984
    3ed8:	000c8780 	call	c878 <MCAPI_ASSERT.part.0>
    3edc:	d0272e05 	stb	zero,-25416(gp)
    3ee0:	003fd106 	br	3e28 <mcapi_trans_endpoint_channel_isopen+0x54>

00003ee4 <mcapi_trans_sclchan_send_isopen>:
    3ee4:	0003dd41 	jmpi	3dd4 <mcapi_trans_endpoint_channel_isopen>

00003ee8 <mcapi_trans_sclchan_recv_isopen>:
    3ee8:	0003dd41 	jmpi	3dd4 <mcapi_trans_endpoint_channel_isopen>

00003eec <mcapi_trans_pktchan_send_isopen>:
    3eec:	0003dd41 	jmpi	3dd4 <mcapi_trans_endpoint_channel_isopen>

00003ef0 <mcapi_trans_pktchan_recv_isopen>:
    3ef0:	0003dd41 	jmpi	3dd4 <mcapi_trans_endpoint_channel_isopen>

00003ef4 <mcapi_trans_endpoint_isowner>:
    3ef4:	d0a73117 	ldw	r2,-25404(gp)
    3ef8:	defffc04 	addi	sp,sp,-16
    3efc:	dc000115 	stw	r16,4(sp)
    3f00:	dfc00315 	stw	ra,12(sp)
    3f04:	dc400215 	stw	r17,8(sp)
    3f08:	2021883a 	mov	r16,r4
    3f0c:	10004126 	beq	r2,zero,4014 <mcapi_trans_endpoint_isowner+0x120>
    3f10:	d1273017 	ldw	r4,-25408(gp)
    3f14:	000b883a 	mov	r5,zero
    3f18:	d80d883a 	mov	r6,sp
    3f1c:	d4600117 	ldw	r17,-32764(gp)
    3f20:	001c1c80 	call	1c1c8 <OSMutexPend>
    3f24:	d8800003 	ldbu	r2,0(sp)
    3f28:	10000826 	beq	r2,zero,3f4c <mcapi_trans_endpoint_isowner+0x58>
    3f2c:	00c00104 	movi	r3,4
    3f30:	10c00426 	beq	r2,r3,3f44 <mcapi_trans_endpoint_isowner+0x50>
    3f34:	010000b4 	movhi	r4,2
    3f38:	2101f004 	addi	r4,r4,1984
    3f3c:	d0272e05 	stb	zero,-25416(gp)
    3f40:	00106fc0 	call	106fc <printf>
    3f44:	0100fd84 	movi	r4,1014
    3f48:	000c8780 	call	c878 <MCAPI_ASSERT.part.0>
    3f4c:	80c03fec 	andhi	r3,r16,255
    3f50:	1806d43a 	srli	r3,r3,16
    3f54:	00800044 	movi	r2,1
    3f58:	813fc00c 	andi	r4,r16,65280
    3f5c:	d0a72e05 	stb	r2,-25416(gp)
    3f60:	2008d23a 	srli	r4,r4,8
    3f64:	1800201e 	bne	r3,zero,3fe8 <mcapi_trans_endpoint_isowner+0xf4>
    3f68:	217fffcc 	andi	r5,r4,65535
    3f6c:	008001c4 	movi	r2,7
    3f70:	11401d36 	bltu	r2,r5,3fe8 <mcapi_trans_endpoint_isowner+0xf4>
    3f74:	84003fcc 	andi	r16,r16,255
    3f78:	14001b36 	bltu	r2,r16,3fe8 <mcapi_trans_endpoint_isowner+0xf4>
    3f7c:	81407a24 	muli	r5,r16,488
    3f80:	2103e024 	muli	r4,r4,3968
    3f84:	18df0324 	muli	r3,r3,31756
    3f88:	d0a73117 	ldw	r2,-25404(gp)
    3f8c:	290b883a 	add	r5,r5,r4
    3f90:	28cb883a 	add	r5,r5,r3
    3f94:	114b883a 	add	r5,r2,r5
    3f98:	29401403 	ldbu	r5,80(r5)
    3f9c:	28000426 	beq	r5,zero,3fb0 <mcapi_trans_endpoint_isowner+0xbc>
    3fa0:	20c7883a 	add	r3,r4,r3
    3fa4:	10c7883a 	add	r3,r2,r3
    3fa8:	18800317 	ldw	r2,12(r3)
    3fac:	14401026 	beq	r2,r17,3ff0 <mcapi_trans_endpoint_isowner+0xfc>
    3fb0:	0021883a 	mov	r16,zero
    3fb4:	d1273017 	ldw	r4,-25408(gp)
    3fb8:	001c5000 	call	1c500 <OSMutexPost>
    3fbc:	10c03fcc 	andi	r3,r2,255
    3fc0:	18000d26 	beq	r3,zero,3ff8 <mcapi_trans_endpoint_isowner+0x104>
    3fc4:	00800104 	movi	r2,4
    3fc8:	18800526 	beq	r3,r2,3fe0 <mcapi_trans_endpoint_isowner+0xec>
    3fcc:	00800044 	movi	r2,1
    3fd0:	010000b4 	movhi	r4,2
    3fd4:	21020b04 	addi	r4,r4,2092
    3fd8:	d0a72e05 	stb	r2,-25416(gp)
    3fdc:	00106fc0 	call	106fc <printf>
    3fe0:	0100ff44 	movi	r4,1021
    3fe4:	000c8780 	call	c878 <MCAPI_ASSERT.part.0>
    3fe8:	0100fe04 	movi	r4,1016
    3fec:	000c8780 	call	c878 <MCAPI_ASSERT.part.0>
    3ff0:	04000044 	movi	r16,1
    3ff4:	003fef06 	br	3fb4 <mcapi_trans_endpoint_isowner+0xc0>
    3ff8:	8005883a 	mov	r2,r16
    3ffc:	d0272e05 	stb	zero,-25416(gp)
    4000:	dfc00317 	ldw	ra,12(sp)
    4004:	dc400217 	ldw	r17,8(sp)
    4008:	dc000117 	ldw	r16,4(sp)
    400c:	dec00404 	addi	sp,sp,16
    4010:	f800283a 	ret
    4014:	0100fcc4 	movi	r4,1011
    4018:	000c8780 	call	c878 <MCAPI_ASSERT.part.0>

0000401c <mcapi_trans_channel_connected>:
    401c:	20803fec 	andhi	r2,r4,255
    4020:	1004d43a 	srli	r2,r2,16
    4024:	defffb04 	addi	sp,sp,-20
    4028:	dfc00415 	stw	ra,16(sp)
    402c:	dc800315 	stw	r18,12(sp)
    4030:	dc400215 	stw	r17,8(sp)
    4034:	dc000115 	stw	r16,4(sp)
    4038:	10000f1e 	bne	r2,zero,4078 <mcapi_trans_channel_connected+0x5c>
    403c:	20ffc00c 	andi	r3,r4,65280
    4040:	1806d23a 	srli	r3,r3,8
    4044:	014001c4 	movi	r5,7
    4048:	28c00b36 	bltu	r5,r3,4078 <mcapi_trans_channel_connected+0x5c>
    404c:	24403fcc 	andi	r17,r4,255
    4050:	2c400936 	bltu	r5,r17,4078 <mcapi_trans_channel_connected+0x5c>
    4054:	d4a00017 	ldw	r18,-32768(gp)
    4058:	90800926 	beq	r18,r2,4080 <mcapi_trans_channel_connected+0x64>
    405c:	0005883a 	mov	r2,zero
    4060:	dfc00417 	ldw	ra,16(sp)
    4064:	dc800317 	ldw	r18,12(sp)
    4068:	dc400217 	ldw	r17,8(sp)
    406c:	dc000117 	ldw	r16,4(sp)
    4070:	dec00504 	addi	sp,sp,20
    4074:	f800283a 	ret
    4078:	01010304 	movi	r4,1036
    407c:	000c8780 	call	c878 <MCAPI_ASSERT.part.0>
    4080:	d4200117 	ldw	r16,-32764(gp)
    4084:	80fff51e 	bne	r16,r3,405c <mcapi_trans_channel_connected+0x40>
    4088:	d1273017 	ldw	r4,-25408(gp)
    408c:	000b883a 	mov	r5,zero
    4090:	d80d883a 	mov	r6,sp
    4094:	001c1c80 	call	1c1c8 <OSMutexPend>
    4098:	d8800003 	ldbu	r2,0(sp)
    409c:	10001a1e 	bne	r2,zero,4108 <mcapi_trans_channel_connected+0xec>
    40a0:	88807a24 	muli	r2,r17,488
    40a4:	8403e024 	muli	r16,r16,3968
    40a8:	949f0324 	muli	r18,r18,31756
    40ac:	01000044 	movi	r4,1
    40b0:	1405883a 	add	r2,r2,r16
    40b4:	14a5883a 	add	r18,r2,r18
    40b8:	d0a73117 	ldw	r2,-25404(gp)
    40bc:	d1272e05 	stb	r4,-25416(gp)
    40c0:	1485883a 	add	r2,r2,r18
    40c4:	10801404 	addi	r2,r2,80
    40c8:	10c00003 	ldbu	r3,0(r2)
    40cc:	1800191e 	bne	r3,zero,4134 <mcapi_trans_channel_connected+0x118>
    40d0:	0021883a 	mov	r16,zero
    40d4:	d1273017 	ldw	r4,-25408(gp)
    40d8:	001c5000 	call	1c500 <OSMutexPost>
    40dc:	10c03fcc 	andi	r3,r2,255
    40e0:	18001126 	beq	r3,zero,4128 <mcapi_trans_channel_connected+0x10c>
    40e4:	00800104 	movi	r2,4
    40e8:	18800526 	beq	r3,r2,4100 <mcapi_trans_channel_connected+0xe4>
    40ec:	00800044 	movi	r2,1
    40f0:	010000b4 	movhi	r4,2
    40f4:	21020b04 	addi	r4,r4,2092
    40f8:	d0a72e05 	stb	r2,-25416(gp)
    40fc:	00106fc0 	call	106fc <printf>
    4100:	01010704 	movi	r4,1052
    4104:	000c8780 	call	c878 <MCAPI_ASSERT.part.0>
    4108:	00c00104 	movi	r3,4
    410c:	10c00426 	beq	r2,r3,4120 <mcapi_trans_channel_connected+0x104>
    4110:	010000b4 	movhi	r4,2
    4114:	2101f004 	addi	r4,r4,1984
    4118:	d0272e05 	stb	zero,-25416(gp)
    411c:	00106fc0 	call	106fc <printf>
    4120:	01010584 	movi	r4,1046
    4124:	000c8780 	call	c878 <MCAPI_ASSERT.part.0>
    4128:	d0272e05 	stb	zero,-25416(gp)
    412c:	8005883a 	mov	r2,r16
    4130:	003fcb06 	br	4060 <mcapi_trans_channel_connected+0x44>
    4134:	140000c3 	ldbu	r16,3(r2)
    4138:	8020c03a 	cmpne	r16,r16,zero
    413c:	003fe506 	br	40d4 <mcapi_trans_channel_connected+0xb8>

00004140 <mcapi_trans_compatible_endpoint_attributes>:
    4140:	00800044 	movi	r2,1
    4144:	f800283a 	ret

00004148 <mcapi_trans_valid_pktchan_send_handle>:
    4148:	defffd04 	addi	sp,sp,-12
    414c:	dc000115 	stw	r16,4(sp)
    4150:	2021883a 	mov	r16,r4
    4154:	d1273017 	ldw	r4,-25408(gp)
    4158:	000b883a 	mov	r5,zero
    415c:	d80d883a 	mov	r6,sp
    4160:	dfc00215 	stw	ra,8(sp)
    4164:	001c1c80 	call	1c1c8 <OSMutexPend>
    4168:	d8800003 	ldbu	r2,0(sp)
    416c:	10000826 	beq	r2,zero,4190 <mcapi_trans_valid_pktchan_send_handle+0x48>
    4170:	00c00104 	movi	r3,4
    4174:	10c00426 	beq	r2,r3,4188 <mcapi_trans_valid_pktchan_send_handle+0x40>
    4178:	010000b4 	movhi	r4,2
    417c:	2101f004 	addi	r4,r4,1984
    4180:	d0272e05 	stb	zero,-25416(gp)
    4184:	00106fc0 	call	106fc <printf>
    4188:	01010f44 	movi	r4,1085
    418c:	000c8780 	call	c878 <MCAPI_ASSERT.part.0>
    4190:	80c03fec 	andhi	r3,r16,255
    4194:	1806d43a 	srli	r3,r3,16
    4198:	00800044 	movi	r2,1
    419c:	813fc00c 	andi	r4,r16,65280
    41a0:	d0a72e05 	stb	r2,-25416(gp)
    41a4:	2008d23a 	srli	r4,r4,8
    41a8:	1800051e 	bne	r3,zero,41c0 <mcapi_trans_valid_pktchan_send_handle+0x78>
    41ac:	217fffcc 	andi	r5,r4,65535
    41b0:	008001c4 	movi	r2,7
    41b4:	11400236 	bltu	r2,r5,41c0 <mcapi_trans_valid_pktchan_send_handle+0x78>
    41b8:	84003fcc 	andi	r16,r16,255
    41bc:	1400142e 	bgeu	r2,r16,4210 <mcapi_trans_valid_pktchan_send_handle+0xc8>
    41c0:	0021883a 	mov	r16,zero
    41c4:	d1273017 	ldw	r4,-25408(gp)
    41c8:	001c5000 	call	1c500 <OSMutexPost>
    41cc:	10c03fcc 	andi	r3,r2,255
    41d0:	18000926 	beq	r3,zero,41f8 <mcapi_trans_valid_pktchan_send_handle+0xb0>
    41d4:	00800104 	movi	r2,4
    41d8:	18800526 	beq	r3,r2,41f0 <mcapi_trans_valid_pktchan_send_handle+0xa8>
    41dc:	00800044 	movi	r2,1
    41e0:	010000b4 	movhi	r4,2
    41e4:	21020b04 	addi	r4,r4,2092
    41e8:	d0a72e05 	stb	r2,-25416(gp)
    41ec:	00106fc0 	call	106fc <printf>
    41f0:	01011344 	movi	r4,1101
    41f4:	000c8780 	call	c878 <MCAPI_ASSERT.part.0>
    41f8:	8005883a 	mov	r2,r16
    41fc:	d0272e05 	stb	zero,-25416(gp)
    4200:	dfc00217 	ldw	ra,8(sp)
    4204:	dc000117 	ldw	r16,4(sp)
    4208:	dec00304 	addi	sp,sp,12
    420c:	f800283a 	ret
    4210:	84007a24 	muli	r16,r16,488
    4214:	2103e024 	muli	r4,r4,3968
    4218:	18df0324 	muli	r3,r3,31756
    421c:	d0a73117 	ldw	r2,-25404(gp)
    4220:	8121883a 	add	r16,r16,r4
    4224:	80c7883a 	add	r3,r16,r3
    4228:	10c7883a 	add	r3,r2,r3
    422c:	1c002403 	ldbu	r16,144(r3)
    4230:	84000060 	cmpeqi	r16,r16,1
    4234:	003fe306 	br	41c4 <mcapi_trans_valid_pktchan_send_handle+0x7c>

00004238 <mcapi_trans_valid_pktchan_recv_handle>:
    4238:	defffd04 	addi	sp,sp,-12
    423c:	dc000115 	stw	r16,4(sp)
    4240:	2021883a 	mov	r16,r4
    4244:	d1273017 	ldw	r4,-25408(gp)
    4248:	000b883a 	mov	r5,zero
    424c:	d80d883a 	mov	r6,sp
    4250:	dfc00215 	stw	ra,8(sp)
    4254:	001c1c80 	call	1c1c8 <OSMutexPend>
    4258:	d8800003 	ldbu	r2,0(sp)
    425c:	10000826 	beq	r2,zero,4280 <mcapi_trans_valid_pktchan_recv_handle+0x48>
    4260:	00c00104 	movi	r3,4
    4264:	10c00426 	beq	r2,r3,4278 <mcapi_trans_valid_pktchan_recv_handle+0x40>
    4268:	010000b4 	movhi	r4,2
    426c:	2101f004 	addi	r4,r4,1984
    4270:	d0272e05 	stb	zero,-25416(gp)
    4274:	00106fc0 	call	106fc <printf>
    4278:	01011784 	movi	r4,1118
    427c:	000c8780 	call	c878 <MCAPI_ASSERT.part.0>
    4280:	80c03fec 	andhi	r3,r16,255
    4284:	1806d43a 	srli	r3,r3,16
    4288:	00800044 	movi	r2,1
    428c:	813fc00c 	andi	r4,r16,65280
    4290:	d0a72e05 	stb	r2,-25416(gp)
    4294:	2008d23a 	srli	r4,r4,8
    4298:	1800051e 	bne	r3,zero,42b0 <mcapi_trans_valid_pktchan_recv_handle+0x78>
    429c:	217fffcc 	andi	r5,r4,65535
    42a0:	008001c4 	movi	r2,7
    42a4:	11400236 	bltu	r2,r5,42b0 <mcapi_trans_valid_pktchan_recv_handle+0x78>
    42a8:	84003fcc 	andi	r16,r16,255
    42ac:	1400142e 	bgeu	r2,r16,4300 <mcapi_trans_valid_pktchan_recv_handle+0xc8>
    42b0:	0021883a 	mov	r16,zero
    42b4:	d1273017 	ldw	r4,-25408(gp)
    42b8:	001c5000 	call	1c500 <OSMutexPost>
    42bc:	10c03fcc 	andi	r3,r2,255
    42c0:	18000926 	beq	r3,zero,42e8 <mcapi_trans_valid_pktchan_recv_handle+0xb0>
    42c4:	00800104 	movi	r2,4
    42c8:	18800526 	beq	r3,r2,42e0 <mcapi_trans_valid_pktchan_recv_handle+0xa8>
    42cc:	00800044 	movi	r2,1
    42d0:	010000b4 	movhi	r4,2
    42d4:	21020b04 	addi	r4,r4,2092
    42d8:	d0a72e05 	stb	r2,-25416(gp)
    42dc:	00106fc0 	call	106fc <printf>
    42e0:	01011b84 	movi	r4,1134
    42e4:	000c8780 	call	c878 <MCAPI_ASSERT.part.0>
    42e8:	8005883a 	mov	r2,r16
    42ec:	d0272e05 	stb	zero,-25416(gp)
    42f0:	dfc00217 	ldw	ra,8(sp)
    42f4:	dc000117 	ldw	r16,4(sp)
    42f8:	dec00304 	addi	sp,sp,12
    42fc:	f800283a 	ret
    4300:	84007a24 	muli	r16,r16,488
    4304:	2103e024 	muli	r4,r4,3968
    4308:	18df0324 	muli	r3,r3,31756
    430c:	d0a73117 	ldw	r2,-25404(gp)
    4310:	8121883a 	add	r16,r16,r4
    4314:	80c7883a 	add	r3,r16,r3
    4318:	10c7883a 	add	r3,r2,r3
    431c:	1c002403 	ldbu	r16,144(r3)
    4320:	84000060 	cmpeqi	r16,r16,1
    4324:	003fe306 	br	42b4 <mcapi_trans_valid_pktchan_recv_handle+0x7c>

00004328 <mcapi_trans_valid_sclchan_send_handle>:
    4328:	defffd04 	addi	sp,sp,-12
    432c:	dc000115 	stw	r16,4(sp)
    4330:	2021883a 	mov	r16,r4
    4334:	d1273017 	ldw	r4,-25408(gp)
    4338:	000b883a 	mov	r5,zero
    433c:	d80d883a 	mov	r6,sp
    4340:	dfc00215 	stw	ra,8(sp)
    4344:	001c1c80 	call	1c1c8 <OSMutexPend>
    4348:	d8800003 	ldbu	r2,0(sp)
    434c:	10000826 	beq	r2,zero,4370 <mcapi_trans_valid_sclchan_send_handle+0x48>
    4350:	00c00104 	movi	r3,4
    4354:	10c00426 	beq	r2,r3,4368 <mcapi_trans_valid_sclchan_send_handle+0x40>
    4358:	010000b4 	movhi	r4,2
    435c:	2101f004 	addi	r4,r4,1984
    4360:	d0272e05 	stb	zero,-25416(gp)
    4364:	00106fc0 	call	106fc <printf>
    4368:	01011fc4 	movi	r4,1151
    436c:	000c8780 	call	c878 <MCAPI_ASSERT.part.0>
    4370:	80c03fec 	andhi	r3,r16,255
    4374:	1806d43a 	srli	r3,r3,16
    4378:	00800044 	movi	r2,1
    437c:	813fc00c 	andi	r4,r16,65280
    4380:	d0a72e05 	stb	r2,-25416(gp)
    4384:	2008d23a 	srli	r4,r4,8
    4388:	1800051e 	bne	r3,zero,43a0 <mcapi_trans_valid_sclchan_send_handle+0x78>
    438c:	217fffcc 	andi	r5,r4,65535
    4390:	008001c4 	movi	r2,7
    4394:	11400236 	bltu	r2,r5,43a0 <mcapi_trans_valid_sclchan_send_handle+0x78>
    4398:	84003fcc 	andi	r16,r16,255
    439c:	1400142e 	bgeu	r2,r16,43f0 <mcapi_trans_valid_sclchan_send_handle+0xc8>
    43a0:	0021883a 	mov	r16,zero
    43a4:	d1273017 	ldw	r4,-25408(gp)
    43a8:	001c5000 	call	1c500 <OSMutexPost>
    43ac:	10c03fcc 	andi	r3,r2,255
    43b0:	18000926 	beq	r3,zero,43d8 <mcapi_trans_valid_sclchan_send_handle+0xb0>
    43b4:	00800104 	movi	r2,4
    43b8:	18800526 	beq	r3,r2,43d0 <mcapi_trans_valid_sclchan_send_handle+0xa8>
    43bc:	00800044 	movi	r2,1
    43c0:	010000b4 	movhi	r4,2
    43c4:	21020b04 	addi	r4,r4,2092
    43c8:	d0a72e05 	stb	r2,-25416(gp)
    43cc:	00106fc0 	call	106fc <printf>
    43d0:	010123c4 	movi	r4,1167
    43d4:	000c8780 	call	c878 <MCAPI_ASSERT.part.0>
    43d8:	8005883a 	mov	r2,r16
    43dc:	d0272e05 	stb	zero,-25416(gp)
    43e0:	dfc00217 	ldw	ra,8(sp)
    43e4:	dc000117 	ldw	r16,4(sp)
    43e8:	dec00304 	addi	sp,sp,12
    43ec:	f800283a 	ret
    43f0:	84007a24 	muli	r16,r16,488
    43f4:	2103e024 	muli	r4,r4,3968
    43f8:	18df0324 	muli	r3,r3,31756
    43fc:	d0a73117 	ldw	r2,-25404(gp)
    4400:	8121883a 	add	r16,r16,r4
    4404:	80c7883a 	add	r3,r16,r3
    4408:	10c7883a 	add	r3,r2,r3
    440c:	1c002403 	ldbu	r16,144(r3)
    4410:	840000a0 	cmpeqi	r16,r16,2
    4414:	003fe306 	br	43a4 <mcapi_trans_valid_sclchan_send_handle+0x7c>

00004418 <mcapi_trans_valid_sclchan_recv_handle>:
    4418:	defffd04 	addi	sp,sp,-12
    441c:	dc000115 	stw	r16,4(sp)
    4420:	2021883a 	mov	r16,r4
    4424:	d1273017 	ldw	r4,-25408(gp)
    4428:	000b883a 	mov	r5,zero
    442c:	d80d883a 	mov	r6,sp
    4430:	dfc00215 	stw	ra,8(sp)
    4434:	001c1c80 	call	1c1c8 <OSMutexPend>
    4438:	d8800003 	ldbu	r2,0(sp)
    443c:	10000826 	beq	r2,zero,4460 <mcapi_trans_valid_sclchan_recv_handle+0x48>
    4440:	00c00104 	movi	r3,4
    4444:	10c00426 	beq	r2,r3,4458 <mcapi_trans_valid_sclchan_recv_handle+0x40>
    4448:	010000b4 	movhi	r4,2
    444c:	2101f004 	addi	r4,r4,1984
    4450:	d0272e05 	stb	zero,-25416(gp)
    4454:	00106fc0 	call	106fc <printf>
    4458:	01012884 	movi	r4,1186
    445c:	000c8780 	call	c878 <MCAPI_ASSERT.part.0>
    4460:	80c03fec 	andhi	r3,r16,255
    4464:	1806d43a 	srli	r3,r3,16
    4468:	00800044 	movi	r2,1
    446c:	813fc00c 	andi	r4,r16,65280
    4470:	d0a72e05 	stb	r2,-25416(gp)
    4474:	2008d23a 	srli	r4,r4,8
    4478:	1800051e 	bne	r3,zero,4490 <mcapi_trans_valid_sclchan_recv_handle+0x78>
    447c:	217fffcc 	andi	r5,r4,65535
    4480:	008001c4 	movi	r2,7
    4484:	11400236 	bltu	r2,r5,4490 <mcapi_trans_valid_sclchan_recv_handle+0x78>
    4488:	84003fcc 	andi	r16,r16,255
    448c:	1400142e 	bgeu	r2,r16,44e0 <mcapi_trans_valid_sclchan_recv_handle+0xc8>
    4490:	0021883a 	mov	r16,zero
    4494:	d1273017 	ldw	r4,-25408(gp)
    4498:	001c5000 	call	1c500 <OSMutexPost>
    449c:	10c03fcc 	andi	r3,r2,255
    44a0:	18000926 	beq	r3,zero,44c8 <mcapi_trans_valid_sclchan_recv_handle+0xb0>
    44a4:	00800104 	movi	r2,4
    44a8:	18800526 	beq	r3,r2,44c0 <mcapi_trans_valid_sclchan_recv_handle+0xa8>
    44ac:	00800044 	movi	r2,1
    44b0:	010000b4 	movhi	r4,2
    44b4:	21020b04 	addi	r4,r4,2092
    44b8:	d0a72e05 	stb	r2,-25416(gp)
    44bc:	00106fc0 	call	106fc <printf>
    44c0:	01012c84 	movi	r4,1202
    44c4:	000c8780 	call	c878 <MCAPI_ASSERT.part.0>
    44c8:	8005883a 	mov	r2,r16
    44cc:	d0272e05 	stb	zero,-25416(gp)
    44d0:	dfc00217 	ldw	ra,8(sp)
    44d4:	dc000117 	ldw	r16,4(sp)
    44d8:	dec00304 	addi	sp,sp,12
    44dc:	f800283a 	ret
    44e0:	84007a24 	muli	r16,r16,488
    44e4:	2103e024 	muli	r4,r4,3968
    44e8:	18df0324 	muli	r3,r3,31756
    44ec:	d0a73117 	ldw	r2,-25404(gp)
    44f0:	8121883a 	add	r16,r16,r4
    44f4:	80c7883a 	add	r3,r16,r3
    44f8:	10c7883a 	add	r3,r2,r3
    44fc:	1c002403 	ldbu	r16,144(r3)
    4500:	840000a0 	cmpeqi	r16,r16,2
    4504:	003fe306 	br	4494 <mcapi_trans_valid_sclchan_recv_handle+0x7c>

00004508 <mcapi_trans_initialized>:
    4508:	d1273017 	ldw	r4,-25408(gp)
    450c:	defffc04 	addi	sp,sp,-16
    4510:	000b883a 	mov	r5,zero
    4514:	d80d883a 	mov	r6,sp
    4518:	dfc00315 	stw	ra,12(sp)
    451c:	dc400215 	stw	r17,8(sp)
    4520:	dc000115 	stw	r16,4(sp)
    4524:	001c1c80 	call	1c1c8 <OSMutexPend>
    4528:	d8800003 	ldbu	r2,0(sp)
    452c:	10000c26 	beq	r2,zero,4560 <mcapi_trans_initialized+0x58>
    4530:	00c00104 	movi	r3,4
    4534:	10c00426 	beq	r2,r3,4548 <mcapi_trans_initialized+0x40>
    4538:	010000b4 	movhi	r4,2
    453c:	2101f004 	addi	r4,r4,1984
    4540:	d0272e05 	stb	zero,-25416(gp)
    4544:	00106fc0 	call	106fc <printf>
    4548:	0005883a 	mov	r2,zero
    454c:	dfc00317 	ldw	ra,12(sp)
    4550:	dc400217 	ldw	r17,8(sp)
    4554:	dc000117 	ldw	r16,4(sp)
    4558:	dec00404 	addi	sp,sp,16
    455c:	f800283a 	ret
    4560:	d1273017 	ldw	r4,-25408(gp)
    4564:	04000044 	movi	r16,1
    4568:	d4272e05 	stb	r16,-25416(gp)
    456c:	d4673117 	ldw	r17,-25404(gp)
    4570:	001c5000 	call	1c500 <OSMutexPost>
    4574:	10803fcc 	andi	r2,r2,255
    4578:	10000826 	beq	r2,zero,459c <mcapi_trans_initialized+0x94>
    457c:	00c00104 	movi	r3,4
    4580:	10c00426 	beq	r2,r3,4594 <mcapi_trans_initialized+0x8c>
    4584:	010000b4 	movhi	r4,2
    4588:	21020b04 	addi	r4,r4,2092
    458c:	d4272e05 	stb	r16,-25416(gp)
    4590:	00106fc0 	call	106fc <printf>
    4594:	010132c4 	movi	r4,1227
    4598:	000c8780 	call	c878 <MCAPI_ASSERT.part.0>
    459c:	8804c03a 	cmpne	r2,r17,zero
    45a0:	d0272e05 	stb	zero,-25416(gp)
    45a4:	dfc00317 	ldw	ra,12(sp)
    45a8:	dc400217 	ldw	r17,8(sp)
    45ac:	dc000117 	ldw	r16,4(sp)
    45b0:	dec00404 	addi	sp,sp,16
    45b4:	f800283a 	ret

000045b8 <mcapi_trans_num_endpoints>:
    45b8:	d1273017 	ldw	r4,-25408(gp)
    45bc:	defffc04 	addi	sp,sp,-16
    45c0:	000b883a 	mov	r5,zero
    45c4:	d80d883a 	mov	r6,sp
    45c8:	dfc00315 	stw	ra,12(sp)
    45cc:	dc400215 	stw	r17,8(sp)
    45d0:	dc000115 	stw	r16,4(sp)
    45d4:	001c1c80 	call	1c1c8 <OSMutexPend>
    45d8:	d8800003 	ldbu	r2,0(sp)
    45dc:	10000826 	beq	r2,zero,4600 <mcapi_trans_num_endpoints+0x48>
    45e0:	00c00104 	movi	r3,4
    45e4:	10c00426 	beq	r2,r3,45f8 <mcapi_trans_num_endpoints+0x40>
    45e8:	010000b4 	movhi	r4,2
    45ec:	2101f004 	addi	r4,r4,1984
    45f0:	d0272e05 	stb	zero,-25416(gp)
    45f4:	00106fc0 	call	106fc <printf>
    45f8:	010137c4 	movi	r4,1247
    45fc:	000c8780 	call	c878 <MCAPI_ASSERT.part.0>
    4600:	d0a73117 	ldw	r2,-25404(gp)
    4604:	04000044 	movi	r16,1
    4608:	d4272e05 	stb	r16,-25416(gp)
    460c:	10001a26 	beq	r2,zero,4678 <mcapi_trans_num_endpoints+0xc0>
    4610:	d1672d17 	ldw	r5,-25420(gp)
    4614:	d0e72c17 	ldw	r3,-25424(gp)
    4618:	d1273017 	ldw	r4,-25408(gp)
    461c:	2943e024 	muli	r5,r5,3968
    4620:	18df0324 	muli	r3,r3,31756
    4624:	28c7883a 	add	r3,r5,r3
    4628:	10c5883a 	add	r2,r2,r3
    462c:	1440120b 	ldhu	r17,72(r2)
    4630:	001c5000 	call	1c500 <OSMutexPost>
    4634:	10803fcc 	andi	r2,r2,255
    4638:	10000826 	beq	r2,zero,465c <mcapi_trans_num_endpoints+0xa4>
    463c:	00c00104 	movi	r3,4
    4640:	10c00426 	beq	r2,r3,4654 <mcapi_trans_num_endpoints+0x9c>
    4644:	010000b4 	movhi	r4,2
    4648:	21020b04 	addi	r4,r4,2092
    464c:	d4272e05 	stb	r16,-25416(gp)
    4650:	00106fc0 	call	106fc <printf>
    4654:	01013a04 	movi	r4,1256
    4658:	000c8780 	call	c878 <MCAPI_ASSERT.part.0>
    465c:	88bfffcc 	andi	r2,r17,65535
    4660:	d0272e05 	stb	zero,-25416(gp)
    4664:	dfc00317 	ldw	ra,12(sp)
    4668:	dc400217 	ldw	r17,8(sp)
    466c:	dc000117 	ldw	r16,4(sp)
    4670:	dec00404 	addi	sp,sp,16
    4674:	f800283a 	ret
    4678:	01013844 	movi	r4,1249
    467c:	000c8780 	call	c878 <MCAPI_ASSERT.part.0>

00004680 <mcapi_trans_valid_priority>:
    4680:	208002f0 	cmpltui	r2,r4,11
    4684:	f800283a 	ret

00004688 <mcapi_trans_connected>:
    4688:	defffd04 	addi	sp,sp,-12
    468c:	dc000115 	stw	r16,4(sp)
    4690:	2021883a 	mov	r16,r4
    4694:	d1273017 	ldw	r4,-25408(gp)
    4698:	000b883a 	mov	r5,zero
    469c:	d80d883a 	mov	r6,sp
    46a0:	dfc00215 	stw	ra,8(sp)
    46a4:	001c1c80 	call	1c1c8 <OSMutexPend>
    46a8:	d8800003 	ldbu	r2,0(sp)
    46ac:	10000826 	beq	r2,zero,46d0 <mcapi_trans_connected+0x48>
    46b0:	00c00104 	movi	r3,4
    46b4:	10c00426 	beq	r2,r3,46c8 <mcapi_trans_connected+0x40>
    46b8:	010000b4 	movhi	r4,2
    46bc:	2101f004 	addi	r4,r4,1984
    46c0:	d0272e05 	stb	zero,-25416(gp)
    46c4:	00106fc0 	call	106fc <printf>
    46c8:	01014104 	movi	r4,1284
    46cc:	000c8780 	call	c878 <MCAPI_ASSERT.part.0>
    46d0:	80c03fec 	andhi	r3,r16,255
    46d4:	1806d43a 	srli	r3,r3,16
    46d8:	00800044 	movi	r2,1
    46dc:	813fc00c 	andi	r4,r16,65280
    46e0:	d0a72e05 	stb	r2,-25416(gp)
    46e4:	2008d23a 	srli	r4,r4,8
    46e8:	1800051e 	bne	r3,zero,4700 <mcapi_trans_connected+0x78>
    46ec:	217fffcc 	andi	r5,r4,65535
    46f0:	008001c4 	movi	r2,7
    46f4:	11400236 	bltu	r2,r5,4700 <mcapi_trans_connected+0x78>
    46f8:	84003fcc 	andi	r16,r16,255
    46fc:	1400142e 	bgeu	r2,r16,4750 <mcapi_trans_connected+0xc8>
    4700:	0021883a 	mov	r16,zero
    4704:	d1273017 	ldw	r4,-25408(gp)
    4708:	001c5000 	call	1c500 <OSMutexPost>
    470c:	10c03fcc 	andi	r3,r2,255
    4710:	18000926 	beq	r3,zero,4738 <mcapi_trans_connected+0xb0>
    4714:	00800104 	movi	r2,4
    4718:	18800526 	beq	r3,r2,4730 <mcapi_trans_connected+0xa8>
    471c:	00800044 	movi	r2,1
    4720:	010000b4 	movhi	r4,2
    4724:	21020b04 	addi	r4,r4,2092
    4728:	d0a72e05 	stb	r2,-25416(gp)
    472c:	00106fc0 	call	106fc <printf>
    4730:	010142c4 	movi	r4,1291
    4734:	000c8780 	call	c878 <MCAPI_ASSERT.part.0>
    4738:	8005883a 	mov	r2,r16
    473c:	d0272e05 	stb	zero,-25416(gp)
    4740:	dfc00217 	ldw	ra,8(sp)
    4744:	dc000117 	ldw	r16,4(sp)
    4748:	dec00304 	addi	sp,sp,12
    474c:	f800283a 	ret
    4750:	84007a24 	muli	r16,r16,488
    4754:	2103e024 	muli	r4,r4,3968
    4758:	18df0324 	muli	r3,r3,31756
    475c:	d0a73117 	ldw	r2,-25404(gp)
    4760:	8121883a 	add	r16,r16,r4
    4764:	80c7883a 	add	r3,r16,r3
    4768:	10c7883a 	add	r3,r2,r3
    476c:	1c002403 	ldbu	r16,144(r3)
    4770:	8020c03a 	cmpne	r16,r16,zero
    4774:	003fe306 	br	4704 <mcapi_trans_connected+0x7c>

00004778 <mcapi_trans_valid_status_param>:
    4778:	2004c03a 	cmpne	r2,r4,zero
    477c:	f800283a 	ret

00004780 <mcapi_trans_valid_version_param>:
    4780:	2004c03a 	cmpne	r2,r4,zero
    4784:	f800283a 	ret

00004788 <mcapi_trans_valid_buffer_param>:
    4788:	2004c03a 	cmpne	r2,r4,zero
    478c:	f800283a 	ret

00004790 <mcapi_trans_valid_request_handle>:
    4790:	20800017 	ldw	r2,0(r4)
    4794:	01003fc4 	movi	r4,255
    4798:	10ffffcc 	andi	r3,r2,65535
    479c:	20c00236 	bltu	r4,r3,47a8 <mcapi_trans_valid_request_handle+0x18>
    47a0:	1004d7fa 	srli	r2,r2,31
    47a4:	f800283a 	ret
    47a8:	0005883a 	mov	r2,zero
    47ac:	f800283a 	ret

000047b0 <mcapi_trans_valid_size_param>:
    47b0:	2004c03a 	cmpne	r2,r4,zero
    47b4:	f800283a 	ret

000047b8 <mcapi_trans_endpoint_create>:
    47b8:	defffa04 	addi	sp,sp,-24
    47bc:	dc800315 	stw	r18,12(sp)
    47c0:	2025883a 	mov	r18,r4
    47c4:	d1273017 	ldw	r4,-25408(gp)
    47c8:	dcc00415 	stw	r19,16(sp)
    47cc:	dc400215 	stw	r17,8(sp)
    47d0:	3027883a 	mov	r19,r6
    47d4:	2823883a 	mov	r17,r5
    47d8:	d80d883a 	mov	r6,sp
    47dc:	000b883a 	mov	r5,zero
    47e0:	dfc00515 	stw	ra,20(sp)
    47e4:	dc000115 	stw	r16,4(sp)
    47e8:	001c1c80 	call	1c1c8 <OSMutexPend>
    47ec:	d8800003 	ldbu	r2,0(sp)
    47f0:	10000826 	beq	r2,zero,4814 <mcapi_trans_endpoint_create+0x5c>
    47f4:	00c00104 	movi	r3,4
    47f8:	10c00426 	beq	r2,r3,480c <mcapi_trans_endpoint_create+0x54>
    47fc:	010000b4 	movhi	r4,2
    4800:	2101f004 	addi	r4,r4,1984
    4804:	d0272e05 	stb	zero,-25416(gp)
    4808:	00106fc0 	call	106fc <printf>
    480c:	01015984 	movi	r4,1382
    4810:	000c8780 	call	c878 <MCAPI_ASSERT.part.0>
    4814:	d0e73117 	ldw	r3,-25404(gp)
    4818:	00800044 	movi	r2,1
    481c:	d0a72e05 	stb	r2,-25416(gp)
    4820:	18003226 	beq	r3,zero,48ec <mcapi_trans_endpoint_create+0x134>
    4824:	d1272d17 	ldw	r4,-25420(gp)
    4828:	d2672c17 	ldw	r9,-25424(gp)
    482c:	018001c4 	movi	r6,7
    4830:	2203e024 	muli	r8,r4,3968
    4834:	49df0324 	muli	r7,r9,31756
    4838:	41c5883a 	add	r2,r8,r7
    483c:	1885883a 	add	r2,r3,r2
    4840:	1140120b 	ldhu	r5,72(r2)
    4844:	31405836 	bltu	r6,r5,49a8 <mcapi_trans_endpoint_create+0x1f0>
    4848:	11401403 	ldbu	r5,80(r2)
    484c:	28002926 	beq	r5,zero,48f4 <mcapi_trans_endpoint_create+0x13c>
    4850:	11408e03 	ldbu	r5,568(r2)
    4854:	28004626 	beq	r5,zero,4970 <mcapi_trans_endpoint_create+0x1b8>
    4858:	11410803 	ldbu	r5,1056(r2)
    485c:	28004626 	beq	r5,zero,4978 <mcapi_trans_endpoint_create+0x1c0>
    4860:	11418203 	ldbu	r5,1544(r2)
    4864:	28004626 	beq	r5,zero,4980 <mcapi_trans_endpoint_create+0x1c8>
    4868:	1141fc03 	ldbu	r5,2032(r2)
    486c:	28004626 	beq	r5,zero,4988 <mcapi_trans_endpoint_create+0x1d0>
    4870:	11427603 	ldbu	r5,2520(r2)
    4874:	28004626 	beq	r5,zero,4990 <mcapi_trans_endpoint_create+0x1d8>
    4878:	1082f003 	ldbu	r2,3008(r2)
    487c:	10004626 	beq	r2,zero,4998 <mcapi_trans_endpoint_create+0x1e0>
    4880:	41c5883a 	add	r2,r8,r7
    4884:	1885883a 	add	r2,r3,r2
    4888:	10836a03 	ldbu	r2,3496(r2)
    488c:	10004426 	beq	r2,zero,49a0 <mcapi_trans_endpoint_create+0x1e8>
    4890:	0021883a 	mov	r16,zero
    4894:	d1273017 	ldw	r4,-25408(gp)
    4898:	001c5000 	call	1c500 <OSMutexPost>
    489c:	10c03fcc 	andi	r3,r2,255
    48a0:	18000926 	beq	r3,zero,48c8 <mcapi_trans_endpoint_create+0x110>
    48a4:	00800104 	movi	r2,4
    48a8:	18800526 	beq	r3,r2,48c0 <mcapi_trans_endpoint_create+0x108>
    48ac:	00800044 	movi	r2,1
    48b0:	010000b4 	movhi	r4,2
    48b4:	21020b04 	addi	r4,r4,2092
    48b8:	d0a72e05 	stb	r2,-25416(gp)
    48bc:	00106fc0 	call	106fc <printf>
    48c0:	01016284 	movi	r4,1418
    48c4:	000c8780 	call	c878 <MCAPI_ASSERT.part.0>
    48c8:	8005883a 	mov	r2,r16
    48cc:	d0272e05 	stb	zero,-25416(gp)
    48d0:	dfc00517 	ldw	ra,20(sp)
    48d4:	dcc00417 	ldw	r19,16(sp)
    48d8:	dc800317 	ldw	r18,12(sp)
    48dc:	dc400217 	ldw	r17,8(sp)
    48e0:	dc000117 	ldw	r16,4(sp)
    48e4:	dec00604 	addi	sp,sp,24
    48e8:	f800283a 	ret
    48ec:	01015a84 	movi	r4,1386
    48f0:	000c8780 	call	c878 <MCAPI_ASSERT.part.0>
    48f4:	000b883a 	mov	r5,zero
    48f8:	28807a24 	muli	r2,r5,488
    48fc:	41cd883a 	add	r6,r8,r7
    4900:	198d883a 	add	r6,r3,r6
    4904:	1211883a 	add	r8,r2,r8
    4908:	41cf883a 	add	r7,r8,r7
    490c:	19c7883a 	add	r3,r3,r7
    4910:	18801404 	addi	r2,r3,80
    4914:	04000044 	movi	r16,1
    4918:	14000005 	stb	r16,0(r2)
    491c:	18001485 	stb	zero,82(r3)
    4920:	1cc01445 	stb	r19,81(r3)
    4924:	30801204 	addi	r2,r6,72
    4928:	1180000b 	ldhu	r6,0(r2)
    492c:	1c401315 	stw	r17,76(r3)
    4930:	18001515 	stw	zero,84(r3)
    4934:	30c00044 	addi	r3,r6,1
    4938:	10c0000d 	sth	r3,0(r2)
    493c:	4a7fffcc 	andi	r9,r9,65535
    4940:	4800091e 	bne	r9,zero,4968 <mcapi_trans_endpoint_create+0x1b0>
    4944:	213fffcc 	andi	r4,r4,65535
    4948:	008001c4 	movi	r2,7
    494c:	11000636 	bltu	r2,r4,4968 <mcapi_trans_endpoint_create+0x1b0>
    4950:	4804923a 	slli	r2,r9,8
    4954:	1104b03a 	or	r2,r2,r4
    4958:	1004923a 	slli	r2,r2,8
    495c:	288ab03a 	or	r5,r5,r2
    4960:	91400015 	stw	r5,0(r18)
    4964:	003fcb06 	br	4894 <mcapi_trans_endpoint_create+0xdc>
    4968:	01043ac4 	movi	r4,4331
    496c:	000c8780 	call	c878 <MCAPI_ASSERT.part.0>
    4970:	01400044 	movi	r5,1
    4974:	003fe006 	br	48f8 <mcapi_trans_endpoint_create+0x140>
    4978:	01400084 	movi	r5,2
    497c:	003fde06 	br	48f8 <mcapi_trans_endpoint_create+0x140>
    4980:	014000c4 	movi	r5,3
    4984:	003fdc06 	br	48f8 <mcapi_trans_endpoint_create+0x140>
    4988:	01400104 	movi	r5,4
    498c:	003fda06 	br	48f8 <mcapi_trans_endpoint_create+0x140>
    4990:	01400144 	movi	r5,5
    4994:	003fd806 	br	48f8 <mcapi_trans_endpoint_create+0x140>
    4998:	01400184 	movi	r5,6
    499c:	003fd606 	br	48f8 <mcapi_trans_endpoint_create+0x140>
    49a0:	014001c4 	movi	r5,7
    49a4:	003fd406 	br	48f8 <mcapi_trans_endpoint_create+0x140>
    49a8:	01015b84 	movi	r4,1390
    49ac:	000c8780 	call	c878 <MCAPI_ASSERT.part.0>

000049b0 <mcapi_trans_endpoint_create_>:
    49b0:	defff904 	addi	sp,sp,-28
    49b4:	dc400215 	stw	r17,8(sp)
    49b8:	2023883a 	mov	r17,r4
    49bc:	d1273017 	ldw	r4,-25408(gp)
    49c0:	dd000515 	stw	r20,20(sp)
    49c4:	dc000115 	stw	r16,4(sp)
    49c8:	2829883a 	mov	r20,r5
    49cc:	3021883a 	mov	r16,r6
    49d0:	000b883a 	mov	r5,zero
    49d4:	d80d883a 	mov	r6,sp
    49d8:	dcc00415 	stw	r19,16(sp)
    49dc:	dc800315 	stw	r18,12(sp)
    49e0:	dfc00615 	stw	ra,24(sp)
    49e4:	3827883a 	mov	r19,r7
    49e8:	dc800703 	ldbu	r18,28(sp)
    49ec:	001c1c80 	call	1c1c8 <OSMutexPend>
    49f0:	d8800003 	ldbu	r2,0(sp)
    49f4:	10000826 	beq	r2,zero,4a18 <mcapi_trans_endpoint_create_+0x68>
    49f8:	00c00104 	movi	r3,4
    49fc:	10c00426 	beq	r2,r3,4a10 <mcapi_trans_endpoint_create_+0x60>
    4a00:	010000b4 	movhi	r4,2
    4a04:	2101f004 	addi	r4,r4,1984
    4a08:	d0272e05 	stb	zero,-25416(gp)
    4a0c:	00106fc0 	call	106fc <printf>
    4a10:	01016804 	movi	r4,1440
    4a14:	000c8780 	call	c878 <MCAPI_ASSERT.part.0>
    4a18:	00800044 	movi	r2,1
    4a1c:	d0a72e05 	stb	r2,-25416(gp)
    4a20:	a000571e 	bne	r20,zero,4b80 <mcapi_trans_endpoint_create_+0x1d0>
    4a24:	018001c4 	movi	r6,7
    4a28:	34005336 	bltu	r6,r16,4b78 <mcapi_trans_endpoint_create_+0x1c8>
    4a2c:	d0e73117 	ldw	r3,-25404(gp)
    4a30:	8143e024 	muli	r5,r16,3968
    4a34:	1945883a 	add	r2,r3,r5
    4a38:	1100120b 	ldhu	r4,72(r2)
    4a3c:	31004c36 	bltu	r6,r4,4b70 <mcapi_trans_endpoint_create_+0x1c0>
    4a40:	11001403 	ldbu	r4,80(r2)
    4a44:	20002726 	beq	r4,zero,4ae4 <mcapi_trans_endpoint_create_+0x134>
    4a48:	11008e03 	ldbu	r4,568(r2)
    4a4c:	20003a26 	beq	r4,zero,4b38 <mcapi_trans_endpoint_create_+0x188>
    4a50:	11010803 	ldbu	r4,1056(r2)
    4a54:	20003a26 	beq	r4,zero,4b40 <mcapi_trans_endpoint_create_+0x190>
    4a58:	11018203 	ldbu	r4,1544(r2)
    4a5c:	20003a26 	beq	r4,zero,4b48 <mcapi_trans_endpoint_create_+0x198>
    4a60:	1101fc03 	ldbu	r4,2032(r2)
    4a64:	20003a26 	beq	r4,zero,4b50 <mcapi_trans_endpoint_create_+0x1a0>
    4a68:	10827603 	ldbu	r2,2520(r2)
    4a6c:	10003a26 	beq	r2,zero,4b58 <mcapi_trans_endpoint_create_+0x1a8>
    4a70:	1945883a 	add	r2,r3,r5
    4a74:	1102f003 	ldbu	r4,3008(r2)
    4a78:	20003926 	beq	r4,zero,4b60 <mcapi_trans_endpoint_create_+0x1b0>
    4a7c:	10836a03 	ldbu	r2,3496(r2)
    4a80:	10003926 	beq	r2,zero,4b68 <mcapi_trans_endpoint_create_+0x1b8>
    4a84:	0021883a 	mov	r16,zero
    4a88:	d1273017 	ldw	r4,-25408(gp)
    4a8c:	001c5000 	call	1c500 <OSMutexPost>
    4a90:	10c03fcc 	andi	r3,r2,255
    4a94:	18000926 	beq	r3,zero,4abc <mcapi_trans_endpoint_create_+0x10c>
    4a98:	00800104 	movi	r2,4
    4a9c:	18800526 	beq	r3,r2,4ab4 <mcapi_trans_endpoint_create_+0x104>
    4aa0:	00800044 	movi	r2,1
    4aa4:	010000b4 	movhi	r4,2
    4aa8:	21020b04 	addi	r4,r4,2092
    4aac:	d0a72e05 	stb	r2,-25416(gp)
    4ab0:	00106fc0 	call	106fc <printf>
    4ab4:	01017104 	movi	r4,1476
    4ab8:	000c8780 	call	c878 <MCAPI_ASSERT.part.0>
    4abc:	8005883a 	mov	r2,r16
    4ac0:	d0272e05 	stb	zero,-25416(gp)
    4ac4:	dfc00617 	ldw	ra,24(sp)
    4ac8:	dd000517 	ldw	r20,20(sp)
    4acc:	dcc00417 	ldw	r19,16(sp)
    4ad0:	dc800317 	ldw	r18,12(sp)
    4ad4:	dc400217 	ldw	r17,8(sp)
    4ad8:	dc000117 	ldw	r16,4(sp)
    4adc:	dec00704 	addi	sp,sp,28
    4ae0:	f800283a 	ret
    4ae4:	0009883a 	mov	r4,zero
    4ae8:	20807a24 	muli	r2,r4,488
    4aec:	194f883a 	add	r7,r3,r5
    4af0:	01800044 	movi	r6,1
    4af4:	114b883a 	add	r5,r2,r5
    4af8:	1947883a 	add	r3,r3,r5
    4afc:	18801404 	addi	r2,r3,80
    4b00:	11800005 	stb	r6,0(r2)
    4b04:	18001485 	stb	zero,82(r3)
    4b08:	1c801445 	stb	r18,81(r3)
    4b0c:	38801204 	addi	r2,r7,72
    4b10:	1140000b 	ldhu	r5,0(r2)
    4b14:	8020923a 	slli	r16,r16,8
    4b18:	1cc01315 	stw	r19,76(r3)
    4b1c:	18001515 	stw	zero,84(r3)
    4b20:	28c00044 	addi	r3,r5,1
    4b24:	2408b03a 	or	r4,r4,r16
    4b28:	10c0000d 	sth	r3,0(r2)
    4b2c:	89000015 	stw	r4,0(r17)
    4b30:	3021883a 	mov	r16,r6
    4b34:	003fd406 	br	4a88 <mcapi_trans_endpoint_create_+0xd8>
    4b38:	01000044 	movi	r4,1
    4b3c:	003fea06 	br	4ae8 <mcapi_trans_endpoint_create_+0x138>
    4b40:	01000084 	movi	r4,2
    4b44:	003fe806 	br	4ae8 <mcapi_trans_endpoint_create_+0x138>
    4b48:	010000c4 	movi	r4,3
    4b4c:	003fe606 	br	4ae8 <mcapi_trans_endpoint_create_+0x138>
    4b50:	01000104 	movi	r4,4
    4b54:	003fe406 	br	4ae8 <mcapi_trans_endpoint_create_+0x138>
    4b58:	01000144 	movi	r4,5
    4b5c:	003fe206 	br	4ae8 <mcapi_trans_endpoint_create_+0x138>
    4b60:	01000184 	movi	r4,6
    4b64:	003fe006 	br	4ae8 <mcapi_trans_endpoint_create_+0x138>
    4b68:	010001c4 	movi	r4,7
    4b6c:	003fde06 	br	4ae8 <mcapi_trans_endpoint_create_+0x138>
    4b70:	01016a04 	movi	r4,1448
    4b74:	000c8780 	call	c878 <MCAPI_ASSERT.part.0>
    4b78:	01016944 	movi	r4,1445
    4b7c:	000c8780 	call	c878 <MCAPI_ASSERT.part.0>
    4b80:	01016904 	movi	r4,1444
    4b84:	000c8780 	call	c878 <MCAPI_ASSERT.part.0>

00004b88 <mcapi_trans_endpoint_get_attribute>:
    4b88:	defff804 	addi	sp,sp,-32
    4b8c:	dc000115 	stw	r16,4(sp)
    4b90:	20803fec 	andhi	r2,r4,255
    4b94:	dc000817 	ldw	r16,32(sp)
    4b98:	1004d43a 	srli	r2,r2,16
    4b9c:	dc800315 	stw	r18,12(sp)
    4ba0:	dc400215 	stw	r17,8(sp)
    4ba4:	dfc00715 	stw	ra,28(sp)
    4ba8:	dd400615 	stw	r21,24(sp)
    4bac:	dd000515 	stw	r20,20(sp)
    4bb0:	dcc00415 	stw	r19,16(sp)
    4bb4:	00c00584 	movi	r3,22
    4bb8:	80c00015 	stw	r3,0(r16)
    4bbc:	2823883a 	mov	r17,r5
    4bc0:	3025883a 	mov	r18,r6
    4bc4:	1000131e 	bne	r2,zero,4c14 <mcapi_trans_endpoint_get_attribute+0x8c>
    4bc8:	20ffc00c 	andi	r3,r4,65280
    4bcc:	1806d23a 	srli	r3,r3,8
    4bd0:	01c001c4 	movi	r7,7
    4bd4:	38c00f36 	bltu	r7,r3,4c14 <mcapi_trans_endpoint_get_attribute+0x8c>
    4bd8:	25003fcc 	andi	r20,r4,255
    4bdc:	3d000d36 	bltu	r7,r20,4c14 <mcapi_trans_endpoint_get_attribute+0x8c>
    4be0:	d5600017 	ldw	r21,-32768(gp)
    4be4:	a8800d26 	beq	r21,r2,4c1c <mcapi_trans_endpoint_get_attribute+0x94>
    4be8:	00800b44 	movi	r2,45
    4bec:	80800015 	stw	r2,0(r16)
    4bf0:	dfc00717 	ldw	ra,28(sp)
    4bf4:	dd400617 	ldw	r21,24(sp)
    4bf8:	dd000517 	ldw	r20,20(sp)
    4bfc:	dcc00417 	ldw	r19,16(sp)
    4c00:	dc800317 	ldw	r18,12(sp)
    4c04:	dc400217 	ldw	r17,8(sp)
    4c08:	dc000117 	ldw	r16,4(sp)
    4c0c:	dec00804 	addi	sp,sp,32
    4c10:	f800283a 	ret
    4c14:	010176c4 	movi	r4,1499
    4c18:	000c8780 	call	c878 <MCAPI_ASSERT.part.0>
    4c1c:	d4e00117 	ldw	r19,-32764(gp)
    4c20:	98fff11e 	bne	r19,r3,4be8 <mcapi_trans_endpoint_get_attribute+0x60>
    4c24:	d1273017 	ldw	r4,-25408(gp)
    4c28:	000b883a 	mov	r5,zero
    4c2c:	d80d883a 	mov	r6,sp
    4c30:	001c1c80 	call	1c1c8 <OSMutexPend>
    4c34:	d8800003 	ldbu	r2,0(sp)
    4c38:	10000826 	beq	r2,zero,4c5c <mcapi_trans_endpoint_get_attribute+0xd4>
    4c3c:	00c00104 	movi	r3,4
    4c40:	10c00426 	beq	r2,r3,4c54 <mcapi_trans_endpoint_get_attribute+0xcc>
    4c44:	010000b4 	movhi	r4,2
    4c48:	2101f004 	addi	r4,r4,1984
    4c4c:	d0272e05 	stb	zero,-25416(gp)
    4c50:	00106fc0 	call	106fc <printf>
    4c54:	01017804 	movi	r4,1504
    4c58:	000c8780 	call	c878 <MCAPI_ASSERT.part.0>
    4c5c:	00800044 	movi	r2,1
    4c60:	d0a72e05 	stb	r2,-25416(gp)
    4c64:	00800244 	movi	r2,9
    4c68:	88800d1e 	bne	r17,r2,4ca0 <mcapi_trans_endpoint_get_attribute+0x118>
    4c6c:	a0807a24 	muli	r2,r20,488
    4c70:	9cc3e024 	muli	r19,r19,3968
    4c74:	ad5f0324 	muli	r21,r21,31756
    4c78:	d0e73117 	ldw	r3,-25404(gp)
    4c7c:	14c5883a 	add	r2,r2,r19
    4c80:	1545883a 	add	r2,r2,r21
    4c84:	1885883a 	add	r2,r3,r2
    4c88:	10802517 	ldw	r2,148(r2)
    4c8c:	00c00844 	movi	r3,33
    4c90:	1885c83a 	sub	r2,r3,r2
    4c94:	90800015 	stw	r2,0(r18)
    4c98:	00800044 	movi	r2,1
    4c9c:	80800015 	stw	r2,0(r16)
    4ca0:	d1273017 	ldw	r4,-25408(gp)
    4ca4:	001c5000 	call	1c500 <OSMutexPost>
    4ca8:	10803fcc 	andi	r2,r2,255
    4cac:	10000926 	beq	r2,zero,4cd4 <mcapi_trans_endpoint_get_attribute+0x14c>
    4cb0:	00c00104 	movi	r3,4
    4cb4:	10c00526 	beq	r2,r3,4ccc <mcapi_trans_endpoint_get_attribute+0x144>
    4cb8:	00800044 	movi	r2,1
    4cbc:	010000b4 	movhi	r4,2
    4cc0:	21020b04 	addi	r4,r4,2092
    4cc4:	d0a72e05 	stb	r2,-25416(gp)
    4cc8:	00106fc0 	call	106fc <printf>
    4ccc:	01017a44 	movi	r4,1513
    4cd0:	000c8780 	call	c878 <MCAPI_ASSERT.part.0>
    4cd4:	d0272e05 	stb	zero,-25416(gp)
    4cd8:	003fc506 	br	4bf0 <mcapi_trans_endpoint_get_attribute+0x68>

00004cdc <mcapi_trans_endpoint_set_attribute>:
    4cdc:	008000b4 	movhi	r2,2
    4ce0:	108f0904 	addi	r2,r2,15396
    4ce4:	10800017 	ldw	r2,0(r2)
    4ce8:	010000b4 	movhi	r4,2
    4cec:	21021704 	addi	r4,r4,2140
    4cf0:	01400044 	movi	r5,1
    4cf4:	11c00317 	ldw	r7,12(r2)
    4cf8:	01800d04 	movi	r6,52
    4cfc:	000fd381 	jmpi	fd38 <fwrite>

00004d00 <mcapi_trans_endpoint_get_have_lock>:
    4d00:	d2673117 	ldw	r9,-25404(gp)
    4d04:	deffff04 	addi	sp,sp,-4
    4d08:	dfc00015 	stw	ra,0(sp)
    4d0c:	48800203 	ldbu	r2,8(r9)
    4d10:	10000226 	beq	r2,zero,4d1c <mcapi_trans_endpoint_get_have_lock+0x1c>
    4d14:	48800117 	ldw	r2,4(r9)
    4d18:	11400426 	beq	r2,r5,4d2c <mcapi_trans_endpoint_get_have_lock+0x2c>
    4d1c:	0005883a 	mov	r2,zero
    4d20:	dfc00017 	ldw	ra,0(sp)
    4d24:	dec00104 	addi	sp,sp,4
    4d28:	f800283a 	ret
    4d2c:	4ac00404 	addi	r11,r9,16
    4d30:	4b000304 	addi	r12,r9,12
    4d34:	4b801204 	addi	r14,r9,72
    4d38:	0015883a 	mov	r10,zero
    4d3c:	03c00204 	movi	r15,8
    4d40:	00000506 	br	4d58 <mcapi_trans_endpoint_get_have_lock+0x58>
    4d44:	52800044 	addi	r10,r10,1
    4d48:	5ac3e004 	addi	r11,r11,3968
    4d4c:	6303e004 	addi	r12,r12,3968
    4d50:	7383e004 	addi	r14,r14,3968
    4d54:	53fff126 	beq	r10,r15,4d1c <mcapi_trans_endpoint_get_have_lock+0x1c>
    4d58:	58800003 	ldbu	r2,0(r11)
    4d5c:	103ff926 	beq	r2,zero,4d44 <mcapi_trans_endpoint_get_have_lock+0x44>
    4d60:	60800017 	ldw	r2,0(r12)
    4d64:	11bff71e 	bne	r2,r6,4d44 <mcapi_trans_endpoint_get_have_lock+0x44>
    4d68:	7340000b 	ldhu	r13,0(r14)
    4d6c:	683ff526 	beq	r13,zero,4d44 <mcapi_trans_endpoint_get_have_lock+0x44>
    4d70:	5143e024 	muli	r5,r10,3968
    4d74:	0007883a 	mov	r3,zero
    4d78:	28801404 	addi	r2,r5,80
    4d7c:	29401304 	addi	r5,r5,76
    4d80:	4885883a 	add	r2,r9,r2
    4d84:	494b883a 	add	r5,r9,r5
    4d88:	00000406 	br	4d9c <mcapi_trans_endpoint_get_have_lock+0x9c>
    4d8c:	18c00044 	addi	r3,r3,1
    4d90:	10807a04 	addi	r2,r2,488
    4d94:	29407a04 	addi	r5,r5,488
    4d98:	1b7fea2e 	bgeu	r3,r13,4d44 <mcapi_trans_endpoint_get_have_lock+0x44>
    4d9c:	12000003 	ldbu	r8,0(r2)
    4da0:	403ffa26 	beq	r8,zero,4d8c <mcapi_trans_endpoint_get_have_lock+0x8c>
    4da4:	2a000017 	ldw	r8,0(r5)
    4da8:	41fff81e 	bne	r8,r7,4d8c <mcapi_trans_endpoint_get_have_lock+0x8c>
    4dac:	18bfffcc 	andi	r2,r3,65535
    4db0:	014001c4 	movi	r5,7
    4db4:	2880022e 	bgeu	r5,r2,4dc0 <mcapi_trans_endpoint_get_have_lock+0xc0>
    4db8:	01043ac4 	movi	r4,4331
    4dbc:	000c8780 	call	c878 <MCAPI_ASSERT.part.0>
    4dc0:	5014923a 	slli	r10,r10,8
    4dc4:	00800044 	movi	r2,1
    4dc8:	50c6b03a 	or	r3,r10,r3
    4dcc:	20c00015 	stw	r3,0(r4)
    4dd0:	003fd306 	br	4d20 <mcapi_trans_endpoint_get_have_lock+0x20>

00004dd4 <mcapi_trans_endpoint_get_i>:
    4dd4:	defff604 	addi	sp,sp,-40
    4dd8:	dd800715 	stw	r22,28(sp)
    4ddc:	dc400215 	stw	r17,8(sp)
    4de0:	202d883a 	mov	r22,r4
    4de4:	dc400b17 	ldw	r17,44(sp)
    4de8:	d1273017 	ldw	r4,-25408(gp)
    4dec:	dcc00415 	stw	r19,16(sp)
    4df0:	dc800315 	stw	r18,12(sp)
    4df4:	3027883a 	mov	r19,r6
    4df8:	2825883a 	mov	r18,r5
    4dfc:	d80d883a 	mov	r6,sp
    4e00:	000b883a 	mov	r5,zero
    4e04:	dd400615 	stw	r21,24(sp)
    4e08:	dd000515 	stw	r20,20(sp)
    4e0c:	dfc00915 	stw	ra,36(sp)
    4e10:	ddc00815 	stw	r23,32(sp)
    4e14:	dc000115 	stw	r16,4(sp)
    4e18:	3829883a 	mov	r20,r7
    4e1c:	8d400017 	ldw	r21,0(r17)
    4e20:	001c1c80 	call	1c1c8 <OSMutexPend>
    4e24:	d8800003 	ldbu	r2,0(sp)
    4e28:	10000826 	beq	r2,zero,4e4c <mcapi_trans_endpoint_get_i+0x78>
    4e2c:	00c00104 	movi	r3,4
    4e30:	10c00426 	beq	r2,r3,4e44 <mcapi_trans_endpoint_get_i+0x70>
    4e34:	010000b4 	movhi	r4,2
    4e38:	2101f004 	addi	r4,r4,1984
    4e3c:	d0272e05 	stb	zero,-25416(gp)
    4e40:	00106fc0 	call	106fc <printf>
    4e44:	01018684 	movi	r4,1562
    4e48:	000c8780 	call	c878 <MCAPI_ASSERT.part.0>
    4e4c:	d0a73117 	ldw	r2,-25404(gp)
    4e50:	00c00074 	movhi	r3,1
    4e54:	18cda304 	addi	r3,r3,13964
    4e58:	01000044 	movi	r4,1
    4e5c:	10c7883a 	add	r3,r2,r3
    4e60:	1c020217 	ldw	r16,2056(r3)
    4e64:	d1272e05 	stb	r4,-25416(gp)
    4e68:	023fffc4 	movi	r8,-1
    4e6c:	82004026 	beq	r16,r8,4f70 <mcapi_trans_endpoint_get_i+0x19c>
    4e70:	85c00c24 	muli	r23,r16,48
    4e74:	800a90fa 	slli	r5,r16,3
    4e78:	01bfa314 	movui	r6,65164
    4e7c:	15cf883a 	add	r7,r2,r23
    4e80:	398d883a 	add	r6,r7,r6
    4e84:	31000005 	stb	r4,0(r6)
    4e88:	194b883a 	add	r5,r3,r5
    4e8c:	29c00017 	ldw	r7,0(r5)
    4e90:	19820317 	ldw	r6,2060(r3)
    4e94:	1c020315 	stw	r16,2060(r3)
    4e98:	380890fa 	slli	r4,r7,3
    4e9c:	19c20215 	stw	r7,2056(r3)
    4ea0:	29800015 	stw	r6,0(r5)
    4ea4:	1909883a 	add	r4,r3,r4
    4ea8:	22000115 	stw	r8,4(r4)
    4eac:	2a000115 	stw	r8,4(r5)
    4eb0:	32000326 	beq	r6,r8,4ec0 <mcapi_trans_endpoint_get_i+0xec>
    4eb4:	300c90fa 	slli	r6,r6,3
    4eb8:	1987883a 	add	r3,r3,r6
    4ebc:	1c000115 	stw	r16,4(r3)
    4ec0:	00c00074 	movhi	r3,1
    4ec4:	18cda304 	addi	r3,r3,13964
    4ec8:	10c7883a 	add	r3,r2,r3
    4ecc:	19020017 	ldw	r4,2048(r3)
    4ed0:	21000044 	addi	r4,r4,1
    4ed4:	19020015 	stw	r4,2048(r3)
    4ed8:	00c00044 	movi	r3,1
    4edc:	a8c03d26 	beq	r21,r3,4fd4 <mcapi_trans_endpoint_get_i+0x200>
    4ee0:	002b883a 	mov	r21,zero
    4ee4:	15c5883a 	add	r2,r2,r23
    4ee8:	00ffab14 	movui	r3,65196
    4eec:	10c7883a 	add	r3,r2,r3
    4ef0:	89400017 	ldw	r5,0(r17)
    4ef4:	18000045 	stb	zero,1(r3)
    4ef8:	1d400005 	stb	r21,0(r3)
    4efc:	00ffa414 	movui	r3,65168
    4f00:	10c7883a 	add	r3,r2,r3
    4f04:	b1c00017 	ldw	r7,0(r22)
    4f08:	013fad14 	movui	r4,65204
    4f0c:	18000015 	stw	zero,0(r3)
    4f10:	d8c00a17 	ldw	r3,40(sp)
    4f14:	1109883a 	add	r4,r2,r4
    4f18:	21400015 	stw	r5,0(r4)
    4f1c:	84200034 	orhi	r16,r16,32768
    4f20:	1c000015 	stw	r16,0(r3)
    4f24:	027faa14 	movui	r9,65192
    4f28:	023fa514 	movui	r8,65172
    4f2c:	01bfac14 	movui	r6,65200
    4f30:	017fae14 	movui	r5,65208
    4f34:	013fa814 	movui	r4,65184
    4f38:	00ffa914 	movui	r3,65188
    4f3c:	1211883a 	add	r8,r2,r8
    4f40:	118d883a 	add	r6,r2,r6
    4f44:	114b883a 	add	r5,r2,r5
    4f48:	1109883a 	add	r4,r2,r4
    4f4c:	10c7883a 	add	r3,r2,r3
    4f50:	1245883a 	add	r2,r2,r9
    4f54:	02400144 	movi	r9,5
    4f58:	42400015 	stw	r9,0(r8)
    4f5c:	31c00015 	stw	r7,0(r6)
    4f60:	2d800015 	stw	r22,0(r5)
    4f64:	24c00015 	stw	r19,0(r4)
    4f68:	1d000015 	stw	r20,0(r3)
    4f6c:	14800015 	stw	r18,0(r2)
    4f70:	d1273017 	ldw	r4,-25408(gp)
    4f74:	001c5000 	call	1c500 <OSMutexPost>
    4f78:	10803fcc 	andi	r2,r2,255
    4f7c:	10000926 	beq	r2,zero,4fa4 <mcapi_trans_endpoint_get_i+0x1d0>
    4f80:	00c00104 	movi	r3,4
    4f84:	10c00526 	beq	r2,r3,4f9c <mcapi_trans_endpoint_get_i+0x1c8>
    4f88:	00800044 	movi	r2,1
    4f8c:	010000b4 	movhi	r4,2
    4f90:	21020b04 	addi	r4,r4,2092
    4f94:	d0a72e05 	stb	r2,-25416(gp)
    4f98:	00106fc0 	call	106fc <printf>
    4f9c:	01018ec4 	movi	r4,1595
    4fa0:	000c8780 	call	c878 <MCAPI_ASSERT.part.0>
    4fa4:	d0272e05 	stb	zero,-25416(gp)
    4fa8:	dfc00917 	ldw	ra,36(sp)
    4fac:	ddc00817 	ldw	r23,32(sp)
    4fb0:	dd800717 	ldw	r22,28(sp)
    4fb4:	dd400617 	ldw	r21,24(sp)
    4fb8:	dd000517 	ldw	r20,20(sp)
    4fbc:	dcc00417 	ldw	r19,16(sp)
    4fc0:	dc800317 	ldw	r18,12(sp)
    4fc4:	dc400217 	ldw	r17,8(sp)
    4fc8:	dc000117 	ldw	r16,4(sp)
    4fcc:	dec00a04 	addi	sp,sp,40
    4fd0:	f800283a 	ret
    4fd4:	d0a00017 	ldw	r2,-32768(gp)
    4fd8:	9080021e 	bne	r18,r2,4fe4 <mcapi_trans_endpoint_get_i+0x210>
    4fdc:	d0a00117 	ldw	r2,-32764(gp)
    4fe0:	98802726 	beq	r19,r2,5080 <mcapi_trans_endpoint_get_i+0x2ac>
    4fe4:	d1273017 	ldw	r4,-25408(gp)
    4fe8:	001c5000 	call	1c500 <OSMutexPost>
    4fec:	10803fcc 	andi	r2,r2,255
    4ff0:	10000926 	beq	r2,zero,5018 <mcapi_trans_endpoint_get_i+0x244>
    4ff4:	00c00104 	movi	r3,4
    4ff8:	10c00526 	beq	r2,r3,5010 <mcapi_trans_endpoint_get_i+0x23c>
    4ffc:	00800044 	movi	r2,1
    5000:	010000b4 	movhi	r4,2
    5004:	21020b04 	addi	r4,r4,2092
    5008:	d0a72e05 	stb	r2,-25416(gp)
    500c:	00106fc0 	call	106fc <printf>
    5010:	01018ac4 	movi	r4,1579
    5014:	000c8780 	call	c878 <MCAPI_ASSERT.part.0>
    5018:	b009883a 	mov	r4,r22
    501c:	900b883a 	mov	r5,r18
    5020:	980d883a 	mov	r6,r19
    5024:	a00f883a 	mov	r7,r20
    5028:	d0272e05 	stb	zero,-25416(gp)
    502c:	000cf740 	call	cf74 <NS_getRemoteEndpoint_request>
    5030:	d1273017 	ldw	r4,-25408(gp)
    5034:	10803fcc 	andi	r2,r2,255
    5038:	000b883a 	mov	r5,zero
    503c:	d80d883a 	mov	r6,sp
    5040:	102b003a 	cmpeq	r21,r2,zero
    5044:	001c1c80 	call	1c1c8 <OSMutexPend>
    5048:	d8800003 	ldbu	r2,0(sp)
    504c:	10000826 	beq	r2,zero,5070 <mcapi_trans_endpoint_get_i+0x29c>
    5050:	00c00104 	movi	r3,4
    5054:	10c00426 	beq	r2,r3,5068 <mcapi_trans_endpoint_get_i+0x294>
    5058:	010000b4 	movhi	r4,2
    505c:	2101f004 	addi	r4,r4,1984
    5060:	d0272e05 	stb	zero,-25416(gp)
    5064:	00106fc0 	call	106fc <printf>
    5068:	01018c84 	movi	r4,1586
    506c:	000c8780 	call	c878 <MCAPI_ASSERT.part.0>
    5070:	00800044 	movi	r2,1
    5074:	d0a72e05 	stb	r2,-25416(gp)
    5078:	d0a73117 	ldw	r2,-25404(gp)
    507c:	003f9906 	br	4ee4 <mcapi_trans_endpoint_get_i+0x110>
    5080:	b009883a 	mov	r4,r22
    5084:	900b883a 	mov	r5,r18
    5088:	980d883a 	mov	r6,r19
    508c:	a00f883a 	mov	r7,r20
    5090:	0004d000 	call	4d00 <mcapi_trans_endpoint_get_have_lock>
    5094:	10803fcc 	andi	r2,r2,255
    5098:	102ac03a 	cmpne	r21,r2,zero
    509c:	d0a73117 	ldw	r2,-25404(gp)
    50a0:	003f9006 	br	4ee4 <mcapi_trans_endpoint_get_i+0x110>

000050a4 <mcapi_trans_endpoint_get_>:
    50a4:	defffa04 	addi	sp,sp,-24
    50a8:	dc800315 	stw	r18,12(sp)
    50ac:	2025883a 	mov	r18,r4
    50b0:	d1273017 	ldw	r4,-25408(gp)
    50b4:	dc400215 	stw	r17,8(sp)
    50b8:	dc000115 	stw	r16,4(sp)
    50bc:	3023883a 	mov	r17,r6
    50c0:	2821883a 	mov	r16,r5
    50c4:	d80d883a 	mov	r6,sp
    50c8:	000b883a 	mov	r5,zero
    50cc:	dcc00415 	stw	r19,16(sp)
    50d0:	dfc00515 	stw	ra,20(sp)
    50d4:	3827883a 	mov	r19,r7
    50d8:	001c1c80 	call	1c1c8 <OSMutexPend>
    50dc:	d8800003 	ldbu	r2,0(sp)
    50e0:	10000826 	beq	r2,zero,5104 <mcapi_trans_endpoint_get_+0x60>
    50e4:	00c00104 	movi	r3,4
    50e8:	10c00426 	beq	r2,r3,50fc <mcapi_trans_endpoint_get_+0x58>
    50ec:	010000b4 	movhi	r4,2
    50f0:	2101f004 	addi	r4,r4,1984
    50f4:	d0272e05 	stb	zero,-25416(gp)
    50f8:	00106fc0 	call	106fc <printf>
    50fc:	0101a004 	movi	r4,1664
    5100:	000c8780 	call	c878 <MCAPI_ASSERT.part.0>
    5104:	d1a73117 	ldw	r6,-25404(gp)
    5108:	00800044 	movi	r2,1
    510c:	d0a72e05 	stb	r2,-25416(gp)
    5110:	30800203 	ldbu	r2,8(r6)
    5114:	1000171e 	bne	r2,zero,5174 <mcapi_trans_endpoint_get_+0xd0>
    5118:	0021883a 	mov	r16,zero
    511c:	d1273017 	ldw	r4,-25408(gp)
    5120:	001c5000 	call	1c500 <OSMutexPost>
    5124:	10803fcc 	andi	r2,r2,255
