Archive member included because of file (symbol)

c:/altera/13.1/nios2eds/bin/gnu/h-i686-mingw32/bin/../lib/gcc/nios2-elf/4.7.3\libgcc.a(lib2-divmod.o)
                              obj/default/MCAPI_Transport/mcapi_trans_nios.o (__divsi3)
c:/altera/13.1/nios2eds/bin/gnu/h-i686-mingw32/bin/../lib/gcc/nios2-elf/4.7.3\libgcc.a(lib2-divtable.o)
                              obj/default/MCAPI_Transport/mcapi_trans_nios.o (__divsi3_table)
c:/altera/13.1/nios2eds/bin/gnu/h-i686-mingw32/bin/../lib/gcc/nios2-elf/4.7.3/../../../../../H-i686-mingw32/nios2-elf/lib\libc.a(lib_a-exit.o)
                              obj/default/MCAPI_Transport/mcapi_trans_nios.o (exit)
c:/altera/13.1/nios2eds/bin/gnu/h-i686-mingw32/bin/../lib/gcc/nios2-elf/4.7.3/../../../../../H-i686-mingw32/nios2-elf/lib\libc.a(lib_a-fflush.o)
                              obj/default/MCAPI_Transport/mcapi_trans_nios.o (fflush)
c:/altera/13.1/nios2eds/bin/gnu/h-i686-mingw32/bin/../lib/gcc/nios2-elf/4.7.3/../../../../../H-i686-mingw32/nios2-elf/lib\libc.a(lib_a-findfp.o)
                              c:/altera/13.1/nios2eds/bin/gnu/h-i686-mingw32/bin/../lib/gcc/nios2-elf/4.7.3/../../../../../H-i686-mingw32/nios2-elf/lib\libc.a(lib_a-fflush.o) (__sinit)
c:/altera/13.1/nios2eds/bin/gnu/h-i686-mingw32/bin/../lib/gcc/nios2-elf/4.7.3/../../../../../H-i686-mingw32/nios2-elf/lib\libc.a(lib_a-fprintf.o)
                              obj/default/MCAPI_Top/mcapi.o (fprintf)
c:/altera/13.1/nios2eds/bin/gnu/h-i686-mingw32/bin/../lib/gcc/nios2-elf/4.7.3/../../../../../H-i686-mingw32/nios2-elf/lib\libc.a(lib_a-fwalk.o)
                              c:/altera/13.1/nios2eds/bin/gnu/h-i686-mingw32/bin/../lib/gcc/nios2-elf/4.7.3/../../../../../H-i686-mingw32/nios2-elf/lib\libc.a(lib_a-findfp.o) (_fwalk)
c:/altera/13.1/nios2eds/bin/gnu/h-i686-mingw32/bin/../lib/gcc/nios2-elf/4.7.3/../../../../../H-i686-mingw32/nios2-elf/lib\libc.a(lib_a-fwrite.o)
                              obj/default/MCAPI_Transport/mcapi_trans_nios.o (fwrite)
c:/altera/13.1/nios2eds/bin/gnu/h-i686-mingw32/bin/../lib/gcc/nios2-elf/4.7.3/../../../../../H-i686-mingw32/nios2-elf/lib\libc.a(lib_a-impure.o)
                              c:/altera/13.1/nios2eds/bin/gnu/h-i686-mingw32/bin/../lib/gcc/nios2-elf/4.7.3/../../../../../H-i686-mingw32/nios2-elf/lib\libc.a(lib_a-exit.o) (_global_impure_ptr)
c:/altera/13.1/nios2eds/bin/gnu/h-i686-mingw32/bin/../lib/gcc/nios2-elf/4.7.3/../../../../../H-i686-mingw32/nios2-elf/lib\libc.a(lib_a-mallocr.o)
                              c:/altera/13.1/nios2eds/bin/gnu/h-i686-mingw32/bin/../lib/gcc/nios2-elf/4.7.3/../../../../../H-i686-mingw32/nios2-elf/lib\libc.a(lib_a-findfp.o) (_malloc_r)
c:/altera/13.1/nios2eds/bin/gnu/h-i686-mingw32/bin/../lib/gcc/nios2-elf/4.7.3/../../../../../H-i686-mingw32/nios2-elf/lib\libc.a(lib_a-memcpy.o)
                              obj/default/MCAPI_Top/mcapi.o (memcpy)
c:/altera/13.1/nios2eds/bin/gnu/h-i686-mingw32/bin/../lib/gcc/nios2-elf/4.7.3/../../../../../H-i686-mingw32/nios2-elf/lib\libc.a(lib_a-memset.o)
                              obj/default/MCAPI_Top/mcapi.o (memset)
c:/altera/13.1/nios2eds/bin/gnu/h-i686-mingw32/bin/../lib/gcc/nios2-elf/4.7.3/../../../../../H-i686-mingw32/nios2-elf/lib\libc.a(lib_a-printf.o)
                              obj/default/MCAPI_Transport/mcapi_trans_nios.o (printf)
c:/altera/13.1/nios2eds/bin/gnu/h-i686-mingw32/bin/../lib/gcc/nios2-elf/4.7.3/../../../../../H-i686-mingw32/nios2-elf/lib\libc.a(lib_a-puts.o)
                              obj/default/MCAPI_Transport/mcapi_trans_nios.o (puts)
c:/altera/13.1/nios2eds/bin/gnu/h-i686-mingw32/bin/../lib/gcc/nios2-elf/4.7.3/../../../../../H-i686-mingw32/nios2-elf/lib\libc.a(lib_a-rand.o)
                              obj/default/SysTestNode1.o (rand)
c:/altera/13.1/nios2eds/bin/gnu/h-i686-mingw32/bin/../lib/gcc/nios2-elf/4.7.3/../../../../../H-i686-mingw32/nios2-elf/lib\libc.a(lib_a-sbrkr.o)
                              c:/altera/13.1/nios2eds/bin/gnu/h-i686-mingw32/bin/../lib/gcc/nios2-elf/4.7.3/../../../../../H-i686-mingw32/nios2-elf/lib\libc.a(lib_a-mallocr.o) (_sbrk_r)
c:/altera/13.1/nios2eds/bin/gnu/h-i686-mingw32/bin/../lib/gcc/nios2-elf/4.7.3/../../../../../H-i686-mingw32/nios2-elf/lib\libc.a(lib_a-stdio.o)
                              c:/altera/13.1/nios2eds/bin/gnu/h-i686-mingw32/bin/../lib/gcc/nios2-elf/4.7.3/../../../../../H-i686-mingw32/nios2-elf/lib\libc.a(lib_a-findfp.o) (__sread)
c:/altera/13.1/nios2eds/bin/gnu/h-i686-mingw32/bin/../lib/gcc/nios2-elf/4.7.3/../../../../../H-i686-mingw32/nios2-elf/lib\libc.a(lib_a-strlen.o)
                              c:/altera/13.1/nios2eds/bin/gnu/h-i686-mingw32/bin/../lib/gcc/nios2-elf/4.7.3/../../../../../H-i686-mingw32/nios2-elf/lib\libc.a(lib_a-puts.o) (strlen)
c:/altera/13.1/nios2eds/bin/gnu/h-i686-mingw32/bin/../lib/gcc/nios2-elf/4.7.3/../../../../../H-i686-mingw32/nios2-elf/lib\libc.a(lib_a-vfprintf.o)
                              c:/altera/13.1/nios2eds/bin/gnu/h-i686-mingw32/bin/../lib/gcc/nios2-elf/4.7.3/../../../../../H-i686-mingw32/nios2-elf/lib\libc.a(lib_a-printf.o) (___vfprintf_internal_r)
c:/altera/13.1/nios2eds/bin/gnu/h-i686-mingw32/bin/../lib/gcc/nios2-elf/4.7.3/../../../../../H-i686-mingw32/nios2-elf/lib\libc.a(lib_a-writer.o)
                              c:/altera/13.1/nios2eds/bin/gnu/h-i686-mingw32/bin/../lib/gcc/nios2-elf/4.7.3/../../../../../H-i686-mingw32/nios2-elf/lib\libc.a(lib_a-stdio.o) (_write_r)
c:/altera/13.1/nios2eds/bin/gnu/h-i686-mingw32/bin/../lib/gcc/nios2-elf/4.7.3/../../../../../H-i686-mingw32/nios2-elf/lib\libc.a(lib_a-wsetup.o)
                              c:/altera/13.1/nios2eds/bin/gnu/h-i686-mingw32/bin/../lib/gcc/nios2-elf/4.7.3/../../../../../H-i686-mingw32/nios2-elf/lib\libc.a(lib_a-vfprintf.o) (__swsetup_r)
c:/altera/13.1/nios2eds/bin/gnu/h-i686-mingw32/bin/../lib/gcc/nios2-elf/4.7.3/../../../../../H-i686-mingw32/nios2-elf/lib\libc.a(lib_a-__call_atexit.o)
                              c:/altera/13.1/nios2eds/bin/gnu/h-i686-mingw32/bin/../lib/gcc/nios2-elf/4.7.3/../../../../../H-i686-mingw32/nios2-elf/lib\libc.a(lib_a-exit.o) (__call_exitprocs)
c:/altera/13.1/nios2eds/bin/gnu/h-i686-mingw32/bin/../lib/gcc/nios2-elf/4.7.3/../../../../../H-i686-mingw32/nios2-elf/lib\libc.a(lib_a-closer.o)
                              c:/altera/13.1/nios2eds/bin/gnu/h-i686-mingw32/bin/../lib/gcc/nios2-elf/4.7.3/../../../../../H-i686-mingw32/nios2-elf/lib\libc.a(lib_a-stdio.o) (_close_r)
c:/altera/13.1/nios2eds/bin/gnu/h-i686-mingw32/bin/../lib/gcc/nios2-elf/4.7.3/../../../../../H-i686-mingw32/nios2-elf/lib\libc.a(lib_a-dtoa.o)
                              c:/altera/13.1/nios2eds/bin/gnu/h-i686-mingw32/bin/../lib/gcc/nios2-elf/4.7.3/../../../../../H-i686-mingw32/nios2-elf/lib\libc.a(lib_a-vfprintf.o) (_dtoa_r)
c:/altera/13.1/nios2eds/bin/gnu/h-i686-mingw32/bin/../lib/gcc/nios2-elf/4.7.3/../../../../../H-i686-mingw32/nios2-elf/lib\libc.a(lib_a-fclose.o)
                              c:/altera/13.1/nios2eds/bin/gnu/h-i686-mingw32/bin/../lib/gcc/nios2-elf/4.7.3/../../../../../H-i686-mingw32/nios2-elf/lib\libc.a(lib_a-findfp.o) (fclose)
c:/altera/13.1/nios2eds/bin/gnu/h-i686-mingw32/bin/../lib/gcc/nios2-elf/4.7.3/../../../../../H-i686-mingw32/nios2-elf/lib\libc.a(lib_a-freer.o)
                              c:/altera/13.1/nios2eds/bin/gnu/h-i686-mingw32/bin/../lib/gcc/nios2-elf/4.7.3/../../../../../H-i686-mingw32/nios2-elf/lib\libc.a(lib_a-mallocr.o) (_free_r)
c:/altera/13.1/nios2eds/bin/gnu/h-i686-mingw32/bin/../lib/gcc/nios2-elf/4.7.3/../../../../../H-i686-mingw32/nios2-elf/lib\libc.a(lib_a-fvwrite.o)
                              c:/altera/13.1/nios2eds/bin/gnu/h-i686-mingw32/bin/../lib/gcc/nios2-elf/4.7.3/../../../../../H-i686-mingw32/nios2-elf/lib\libc.a(lib_a-fwrite.o) (__sfvwrite_r)
c:/altera/13.1/nios2eds/bin/gnu/h-i686-mingw32/bin/../lib/gcc/nios2-elf/4.7.3/../../../../../H-i686-mingw32/nios2-elf/lib\libc.a(lib_a-int_errno.o)
                              c:/altera/13.1/nios2eds/bin/gnu/h-i686-mingw32/bin/../lib/gcc/nios2-elf/4.7.3/../../../../../H-i686-mingw32/nios2-elf/lib\libc.a(lib_a-sbrkr.o) (errno)
c:/altera/13.1/nios2eds/bin/gnu/h-i686-mingw32/bin/../lib/gcc/nios2-elf/4.7.3/../../../../../H-i686-mingw32/nios2-elf/lib\libc.a(lib_a-locale.o)
                              c:/altera/13.1/nios2eds/bin/gnu/h-i686-mingw32/bin/../lib/gcc/nios2-elf/4.7.3/../../../../../H-i686-mingw32/nios2-elf/lib\libc.a(lib_a-vfprintf.o) (_localeconv_r)
c:/altera/13.1/nios2eds/bin/gnu/h-i686-mingw32/bin/../lib/gcc/nios2-elf/4.7.3/../../../../../H-i686-mingw32/nios2-elf/lib\libc.a(lib_a-lseekr.o)
                              c:/altera/13.1/nios2eds/bin/gnu/h-i686-mingw32/bin/../lib/gcc/nios2-elf/4.7.3/../../../../../H-i686-mingw32/nios2-elf/lib\libc.a(lib_a-stdio.o) (_lseek_r)
c:/altera/13.1/nios2eds/bin/gnu/h-i686-mingw32/bin/../lib/gcc/nios2-elf/4.7.3/../../../../../H-i686-mingw32/nios2-elf/lib\libc.a(lib_a-makebuf.o)
                              c:/altera/13.1/nios2eds/bin/gnu/h-i686-mingw32/bin/../lib/gcc/nios2-elf/4.7.3/../../../../../H-i686-mingw32/nios2-elf/lib\libc.a(lib_a-wsetup.o) (__smakebuf_r)
c:/altera/13.1/nios2eds/bin/gnu/h-i686-mingw32/bin/../lib/gcc/nios2-elf/4.7.3/../../../../../H-i686-mingw32/nios2-elf/lib\libc.a(lib_a-memchr.o)
                              c:/altera/13.1/nios2eds/bin/gnu/h-i686-mingw32/bin/../lib/gcc/nios2-elf/4.7.3/../../../../../H-i686-mingw32/nios2-elf/lib\libc.a(lib_a-vfprintf.o) (memchr)
c:/altera/13.1/nios2eds/bin/gnu/h-i686-mingw32/bin/../lib/gcc/nios2-elf/4.7.3/../../../../../H-i686-mingw32/nios2-elf/lib\libc.a(lib_a-memmove.o)
                              c:/altera/13.1/nios2eds/bin/gnu/h-i686-mingw32/bin/../lib/gcc/nios2-elf/4.7.3/../../../../../H-i686-mingw32/nios2-elf/lib\libc.a(lib_a-fvwrite.o) (memmove)
c:/altera/13.1/nios2eds/bin/gnu/h-i686-mingw32/bin/../lib/gcc/nios2-elf/4.7.3/../../../../../H-i686-mingw32/nios2-elf/lib\libc.a(lib_a-mprec.o)
                              c:/altera/13.1/nios2eds/bin/gnu/h-i686-mingw32/bin/../lib/gcc/nios2-elf/4.7.3/../../../../../H-i686-mingw32/nios2-elf/lib\libc.a(lib_a-dtoa.o) (_Balloc)
c:/altera/13.1/nios2eds/bin/gnu/h-i686-mingw32/bin/../lib/gcc/nios2-elf/4.7.3/../../../../../H-i686-mingw32/nios2-elf/lib\libc.a(lib_a-readr.o)
                              c:/altera/13.1/nios2eds/bin/gnu/h-i686-mingw32/bin/../lib/gcc/nios2-elf/4.7.3/../../../../../H-i686-mingw32/nios2-elf/lib\libc.a(lib_a-stdio.o) (_read_r)
c:/altera/13.1/nios2eds/bin/gnu/h-i686-mingw32/bin/../lib/gcc/nios2-elf/4.7.3/../../../../../H-i686-mingw32/nios2-elf/lib\libc.a(lib_a-reallocr.o)
                              c:/altera/13.1/nios2eds/bin/gnu/h-i686-mingw32/bin/../lib/gcc/nios2-elf/4.7.3/../../../../../H-i686-mingw32/nios2-elf/lib\libc.a(lib_a-fvwrite.o) (_realloc_r)
c:/altera/13.1/nios2eds/bin/gnu/h-i686-mingw32/bin/../lib/gcc/nios2-elf/4.7.3/../../../../../H-i686-mingw32/nios2-elf/lib\libc.a(lib_a-s_isinfd.o)
                              c:/altera/13.1/nios2eds/bin/gnu/h-i686-mingw32/bin/../lib/gcc/nios2-elf/4.7.3/../../../../../H-i686-mingw32/nios2-elf/lib\libc.a(lib_a-vfprintf.o) (__isinfd)
c:/altera/13.1/nios2eds/bin/gnu/h-i686-mingw32/bin/../lib/gcc/nios2-elf/4.7.3/../../../../../H-i686-mingw32/nios2-elf/lib\libc.a(lib_a-s_isnand.o)
                              c:/altera/13.1/nios2eds/bin/gnu/h-i686-mingw32/bin/../lib/gcc/nios2-elf/4.7.3/../../../../../H-i686-mingw32/nios2-elf/lib\libc.a(lib_a-vfprintf.o) (__isnand)
c:/altera/13.1/nios2eds/bin/gnu/h-i686-mingw32/bin/../lib/gcc/nios2-elf/4.7.3/../../../../../H-i686-mingw32/nios2-elf/lib\libc.a(lib_a-strcmp.o)
                              c:/altera/13.1/nios2eds/bin/gnu/h-i686-mingw32/bin/../lib/gcc/nios2-elf/4.7.3/../../../../../H-i686-mingw32/nios2-elf/lib\libc.a(lib_a-locale.o) (strcmp)
c:/altera/13.1/nios2eds/bin/gnu/h-i686-mingw32/bin/../lib/gcc/nios2-elf/4.7.3/../../../../../H-i686-mingw32/nios2-elf/lib\libc.a(lib_a-callocr.o)
                              c:/altera/13.1/nios2eds/bin/gnu/h-i686-mingw32/bin/../lib/gcc/nios2-elf/4.7.3/../../../../../H-i686-mingw32/nios2-elf/lib\libc.a(lib_a-mprec.o) (_calloc_r)
c:/altera/13.1/nios2eds/bin/gnu/h-i686-mingw32/bin/../lib/gcc/nios2-elf/4.7.3/../../../../../H-i686-mingw32/nios2-elf/lib\libc.a(lib_a-fstatr.o)
                              c:/altera/13.1/nios2eds/bin/gnu/h-i686-mingw32/bin/../lib/gcc/nios2-elf/4.7.3/../../../../../H-i686-mingw32/nios2-elf/lib\libc.a(lib_a-makebuf.o) (_fstat_r)
c:/altera/13.1/nios2eds/bin/gnu/h-i686-mingw32/bin/../lib/gcc/nios2-elf/4.7.3/../../../../../H-i686-mingw32/nios2-elf/lib\libc.a(lib_a-isattyr.o)
                              c:/altera/13.1/nios2eds/bin/gnu/h-i686-mingw32/bin/../lib/gcc/nios2-elf/4.7.3/../../../../../H-i686-mingw32/nios2-elf/lib\libc.a(lib_a-makebuf.o) (_isatty_r)
c:/altera/13.1/nios2eds/bin/gnu/h-i686-mingw32/bin/../lib/gcc/nios2-elf/4.7.3\libgcc.a(_muldi3.o)
                              c:/altera/13.1/nios2eds/bin/gnu/h-i686-mingw32/bin/../lib/gcc/nios2-elf/4.7.3/../../../../../H-i686-mingw32/nios2-elf/lib\libc.a(lib_a-rand.o) (__muldi3)
c:/altera/13.1/nios2eds/bin/gnu/h-i686-mingw32/bin/../lib/gcc/nios2-elf/4.7.3\libgcc.a(_udivdi3.o)
                              c:/altera/13.1/nios2eds/bin/gnu/h-i686-mingw32/bin/../lib/gcc/nios2-elf/4.7.3/../../../../../H-i686-mingw32/nios2-elf/lib\libc.a(lib_a-vfprintf.o) (__udivdi3)
c:/altera/13.1/nios2eds/bin/gnu/h-i686-mingw32/bin/../lib/gcc/nios2-elf/4.7.3\libgcc.a(_umoddi3.o)
                              c:/altera/13.1/nios2eds/bin/gnu/h-i686-mingw32/bin/../lib/gcc/nios2-elf/4.7.3/../../../../../H-i686-mingw32/nios2-elf/lib\libc.a(lib_a-vfprintf.o) (__umoddi3)
c:/altera/13.1/nios2eds/bin/gnu/h-i686-mingw32/bin/../lib/gcc/nios2-elf/4.7.3\libgcc.a(_addsub_df.o)
                              c:/altera/13.1/nios2eds/bin/gnu/h-i686-mingw32/bin/../lib/gcc/nios2-elf/4.7.3/../../../../../H-i686-mingw32/nios2-elf/lib\libc.a(lib_a-dtoa.o) (__adddf3)
c:/altera/13.1/nios2eds/bin/gnu/h-i686-mingw32/bin/../lib/gcc/nios2-elf/4.7.3\libgcc.a(_mul_df.o)
                              c:/altera/13.1/nios2eds/bin/gnu/h-i686-mingw32/bin/../lib/gcc/nios2-elf/4.7.3/../../../../../H-i686-mingw32/nios2-elf/lib\libc.a(lib_a-dtoa.o) (__muldf3)
c:/altera/13.1/nios2eds/bin/gnu/h-i686-mingw32/bin/../lib/gcc/nios2-elf/4.7.3\libgcc.a(_div_df.o)
                              c:/altera/13.1/nios2eds/bin/gnu/h-i686-mingw32/bin/../lib/gcc/nios2-elf/4.7.3/../../../../../H-i686-mingw32/nios2-elf/lib\libc.a(lib_a-dtoa.o) (__divdf3)
c:/altera/13.1/nios2eds/bin/gnu/h-i686-mingw32/bin/../lib/gcc/nios2-elf/4.7.3\libgcc.a(_eq_df.o)
                              c:/altera/13.1/nios2eds/bin/gnu/h-i686-mingw32/bin/../lib/gcc/nios2-elf/4.7.3/../../../../../H-i686-mingw32/nios2-elf/lib\libc.a(lib_a-vfprintf.o) (__eqdf2)
c:/altera/13.1/nios2eds/bin/gnu/h-i686-mingw32/bin/../lib/gcc/nios2-elf/4.7.3\libgcc.a(_ne_df.o)
                              c:/altera/13.1/nios2eds/bin/gnu/h-i686-mingw32/bin/../lib/gcc/nios2-elf/4.7.3/../../../../../H-i686-mingw32/nios2-elf/lib\libc.a(lib_a-vfprintf.o) (__nedf2)
c:/altera/13.1/nios2eds/bin/gnu/h-i686-mingw32/bin/../lib/gcc/nios2-elf/4.7.3\libgcc.a(_gt_df.o)
                              c:/altera/13.1/nios2eds/bin/gnu/h-i686-mingw32/bin/../lib/gcc/nios2-elf/4.7.3/../../../../../H-i686-mingw32/nios2-elf/lib\libc.a(lib_a-dtoa.o) (__gtdf2)
c:/altera/13.1/nios2eds/bin/gnu/h-i686-mingw32/bin/../lib/gcc/nios2-elf/4.7.3\libgcc.a(_ge_df.o)
                              c:/altera/13.1/nios2eds/bin/gnu/h-i686-mingw32/bin/../lib/gcc/nios2-elf/4.7.3/../../../../../H-i686-mingw32/nios2-elf/lib\libc.a(lib_a-dtoa.o) (__gedf2)
c:/altera/13.1/nios2eds/bin/gnu/h-i686-mingw32/bin/../lib/gcc/nios2-elf/4.7.3\libgcc.a(_lt_df.o)
                              c:/altera/13.1/nios2eds/bin/gnu/h-i686-mingw32/bin/../lib/gcc/nios2-elf/4.7.3/../../../../../H-i686-mingw32/nios2-elf/lib\libc.a(lib_a-vfprintf.o) (__ltdf2)
c:/altera/13.1/nios2eds/bin/gnu/h-i686-mingw32/bin/../lib/gcc/nios2-elf/4.7.3\libgcc.a(_si_to_df.o)
                              c:/altera/13.1/nios2eds/bin/gnu/h-i686-mingw32/bin/../lib/gcc/nios2-elf/4.7.3/../../../../../H-i686-mingw32/nios2-elf/lib\libc.a(lib_a-dtoa.o) (__floatsidf)
c:/altera/13.1/nios2eds/bin/gnu/h-i686-mingw32/bin/../lib/gcc/nios2-elf/4.7.3\libgcc.a(_df_to_si.o)
                              c:/altera/13.1/nios2eds/bin/gnu/h-i686-mingw32/bin/../lib/gcc/nios2-elf/4.7.3/../../../../../H-i686-mingw32/nios2-elf/lib\libc.a(lib_a-dtoa.o) (__fixdfsi)
c:/altera/13.1/nios2eds/bin/gnu/h-i686-mingw32/bin/../lib/gcc/nios2-elf/4.7.3\libgcc.a(_thenan_df.o)
                              c:/altera/13.1/nios2eds/bin/gnu/h-i686-mingw32/bin/../lib/gcc/nios2-elf/4.7.3\libgcc.a(_addsub_df.o) (__thenan_df)
c:/altera/13.1/nios2eds/bin/gnu/h-i686-mingw32/bin/../lib/gcc/nios2-elf/4.7.3\libgcc.a(_usi_to_df.o)
                              c:/altera/13.1/nios2eds/bin/gnu/h-i686-mingw32/bin/../lib/gcc/nios2-elf/4.7.3/../../../../../H-i686-mingw32/nios2-elf/lib\libc.a(lib_a-dtoa.o) (__floatunsidf)
c:/altera/13.1/nios2eds/bin/gnu/h-i686-mingw32/bin/../lib/gcc/nios2-elf/4.7.3\libgcc.a(_clz.o)
                              c:/altera/13.1/nios2eds/bin/gnu/h-i686-mingw32/bin/../lib/gcc/nios2-elf/4.7.3\libgcc.a(_udivdi3.o) (__clz_tab)
c:/altera/13.1/nios2eds/bin/gnu/h-i686-mingw32/bin/../lib/gcc/nios2-elf/4.7.3\libgcc.a(_clzsi2.o)
                              c:/altera/13.1/nios2eds/bin/gnu/h-i686-mingw32/bin/../lib/gcc/nios2-elf/4.7.3\libgcc.a(_si_to_df.o) (__clzsi2)
c:/altera/13.1/nios2eds/bin/gnu/h-i686-mingw32/bin/../lib/gcc/nios2-elf/4.7.3\libgcc.a(_pack_df.o)
                              c:/altera/13.1/nios2eds/bin/gnu/h-i686-mingw32/bin/../lib/gcc/nios2-elf/4.7.3\libgcc.a(_addsub_df.o) (__pack_d)
c:/altera/13.1/nios2eds/bin/gnu/h-i686-mingw32/bin/../lib/gcc/nios2-elf/4.7.3\libgcc.a(_unpack_df.o)
                              c:/altera/13.1/nios2eds/bin/gnu/h-i686-mingw32/bin/../lib/gcc/nios2-elf/4.7.3\libgcc.a(_addsub_df.o) (__unpack_d)
c:/altera/13.1/nios2eds/bin/gnu/h-i686-mingw32/bin/../lib/gcc/nios2-elf/4.7.3\libgcc.a(_fpcmp_parts_df.o)
                              c:/altera/13.1/nios2eds/bin/gnu/h-i686-mingw32/bin/../lib/gcc/nios2-elf/4.7.3\libgcc.a(_eq_df.o) (__fpcmp_parts_d)
c:/altera/13.1/nios2eds/bin/gnu/h-i686-mingw32/bin/../lib/gcc/nios2-elf/4.7.3\libgcc.a(_lshrdi3.o)
                              c:/altera/13.1/nios2eds/bin/gnu/h-i686-mingw32/bin/../lib/gcc/nios2-elf/4.7.3\libgcc.a(_pack_df.o) (__lshrdi3)
c:/altera/13.1/nios2eds/bin/gnu/h-i686-mingw32/bin/../lib/gcc/nios2-elf/4.7.3\libgcc.a(_ashldi3.o)
                              c:/altera/13.1/nios2eds/bin/gnu/h-i686-mingw32/bin/../lib/gcc/nios2-elf/4.7.3\libgcc.a(_pack_df.o) (__ashldi3)
../UcosiiBSP_for_cpu_s0/\libucosii_bsp.a(alt_close.o)
                              c:/altera/13.1/nios2eds/bin/gnu/h-i686-mingw32/bin/../lib/gcc/nios2-elf/4.7.3/../../../../../H-i686-mingw32/nios2-elf/lib\libc.a(lib_a-closer.o) (close)
../UcosiiBSP_for_cpu_s0/\libucosii_bsp.a(alt_dev.o)
                              ../UcosiiBSP_for_cpu_s0/\libucosii_bsp.a(alt_close.o) (alt_fd_list)
../UcosiiBSP_for_cpu_s0/\libucosii_bsp.a(alt_errno.o)
                              ../UcosiiBSP_for_cpu_s0/\libucosii_bsp.a(alt_close.o) (alt_errno)
../UcosiiBSP_for_cpu_s0/\libucosii_bsp.a(alt_exit.o)
                              c:/altera/13.1/nios2eds/bin/gnu/h-i686-mingw32/bin/../lib/gcc/nios2-elf/4.7.3/../../../../../H-i686-mingw32/nios2-elf/lib\libc.a(lib_a-exit.o) (_exit)
../UcosiiBSP_for_cpu_s0/\libucosii_bsp.a(alt_fstat.o)
                              c:/altera/13.1/nios2eds/bin/gnu/h-i686-mingw32/bin/../lib/gcc/nios2-elf/4.7.3/../../../../../H-i686-mingw32/nios2-elf/lib\libc.a(lib_a-fstatr.o) (fstat)
../UcosiiBSP_for_cpu_s0/\libucosii_bsp.a(alt_irq_register.o)
                              obj/default/PH_FifoDriver_UCOSII/PH_layer.o (alt_irq_register)
../UcosiiBSP_for_cpu_s0/\libucosii_bsp.a(alt_irq_vars.o)
                              obj/default/PH_FifoDriver_UCOSII/PH_layer.o (alt_irq_active)
../UcosiiBSP_for_cpu_s0/\libucosii_bsp.a(alt_isatty.o)
                              c:/altera/13.1/nios2eds/bin/gnu/h-i686-mingw32/bin/../lib/gcc/nios2-elf/4.7.3/../../../../../H-i686-mingw32/nios2-elf/lib\libc.a(lib_a-isattyr.o) (isatty)
../UcosiiBSP_for_cpu_s0/\libucosii_bsp.a(alt_load.o)
                              ../UcosiiBSP_for_cpu_s0//obj/HAL/src/crt0.o (alt_load)
../UcosiiBSP_for_cpu_s0/\libucosii_bsp.a(alt_lseek.o)
                              c:/altera/13.1/nios2eds/bin/gnu/h-i686-mingw32/bin/../lib/gcc/nios2-elf/4.7.3/../../../../../H-i686-mingw32/nios2-elf/lib\libc.a(lib_a-lseekr.o) (lseek)
../UcosiiBSP_for_cpu_s0/\libucosii_bsp.a(alt_main.o)
                              ../UcosiiBSP_for_cpu_s0//obj/HAL/src/crt0.o (alt_main)
../UcosiiBSP_for_cpu_s0/\libucosii_bsp.a(alt_read.o)
                              c:/altera/13.1/nios2eds/bin/gnu/h-i686-mingw32/bin/../lib/gcc/nios2-elf/4.7.3/../../../../../H-i686-mingw32/nios2-elf/lib\libc.a(lib_a-readr.o) (read)
../UcosiiBSP_for_cpu_s0/\libucosii_bsp.a(alt_release_fd.o)
                              ../UcosiiBSP_for_cpu_s0/\libucosii_bsp.a(alt_close.o) (alt_release_fd)
../UcosiiBSP_for_cpu_s0/\libucosii_bsp.a(alt_sbrk.o)
                              c:/altera/13.1/nios2eds/bin/gnu/h-i686-mingw32/bin/../lib/gcc/nios2-elf/4.7.3/../../../../../H-i686-mingw32/nios2-elf/lib\libc.a(lib_a-sbrkr.o) (sbrk)
../UcosiiBSP_for_cpu_s0/\libucosii_bsp.a(alt_usleep.o)
                              obj/default/NS_Layer/NS_layer.o (usleep)
../UcosiiBSP_for_cpu_s0/\libucosii_bsp.a(alt_write.o)
                              c:/altera/13.1/nios2eds/bin/gnu/h-i686-mingw32/bin/../lib/gcc/nios2-elf/4.7.3/../../../../../H-i686-mingw32/nios2-elf/lib\libc.a(lib_a-writer.o) (write)
../UcosiiBSP_for_cpu_s0/\libucosii_bsp.a(alt_env_lock.o)
                              ../UcosiiBSP_for_cpu_s0/\libucosii_bsp.a(alt_main.o) (alt_envsem)
../UcosiiBSP_for_cpu_s0/\libucosii_bsp.a(alt_malloc_lock.o)
                              c:/altera/13.1/nios2eds/bin/gnu/h-i686-mingw32/bin/../lib/gcc/nios2-elf/4.7.3/../../../../../H-i686-mingw32/nios2-elf/lib\libc.a(lib_a-mallocr.o) (__malloc_lock)
../UcosiiBSP_for_cpu_s0/\libucosii_bsp.a(os_core.o)
                              ../UcosiiBSP_for_cpu_s0/\libucosii_bsp.a(alt_main.o) (OSInit)
../UcosiiBSP_for_cpu_s0/\libucosii_bsp.a(os_dbg.o)
                              ../UcosiiBSP_for_cpu_s0/\libucosii_bsp.a(os_core.o) (OSDebugInit)
../UcosiiBSP_for_cpu_s0/\libucosii_bsp.a(os_flag.o)
                              ../UcosiiBSP_for_cpu_s0/\libucosii_bsp.a(os_core.o) (OS_FlagInit)
../UcosiiBSP_for_cpu_s0/\libucosii_bsp.a(os_mem.o)
                              ../UcosiiBSP_for_cpu_s0/\libucosii_bsp.a(os_core.o) (OS_MemInit)
../UcosiiBSP_for_cpu_s0/\libucosii_bsp.a(os_mutex.o)
                              obj/default/MCAPI_Transport/mcapi_trans_nios.o (OSMutexCreate)
../UcosiiBSP_for_cpu_s0/\libucosii_bsp.a(os_q.o)
                              ../UcosiiBSP_for_cpu_s0/\libucosii_bsp.a(os_core.o) (OS_QInit)
../UcosiiBSP_for_cpu_s0/\libucosii_bsp.a(os_sem.o)
                              obj/default/NS_Layer/NS_layer.o (OSSemCreate)
../UcosiiBSP_for_cpu_s0/\libucosii_bsp.a(os_task.o)
                              obj/default/PH_FifoDriver_UCOSII/PH_layer.o (OSTaskCreateExt)
../UcosiiBSP_for_cpu_s0/\libucosii_bsp.a(os_time.o)
                              obj/default/MCAPI_Transport/mcapi_trans_nios.o (OSTimeDly)
../UcosiiBSP_for_cpu_s0/\libucosii_bsp.a(alt_sys_init.o)
                              ../UcosiiBSP_for_cpu_s0/\libucosii_bsp.a(alt_main.o) (alt_irq_init)
../UcosiiBSP_for_cpu_s0/\libucosii_bsp.a(altera_avalon_jtag_uart_fd.o)
                              ../UcosiiBSP_for_cpu_s0/\libucosii_bsp.a(alt_sys_init.o) (altera_avalon_jtag_uart_read_fd)
../UcosiiBSP_for_cpu_s0/\libucosii_bsp.a(altera_avalon_jtag_uart_init.o)
                              ../UcosiiBSP_for_cpu_s0/\libucosii_bsp.a(alt_sys_init.o) (altera_avalon_jtag_uart_init)
../UcosiiBSP_for_cpu_s0/\libucosii_bsp.a(altera_avalon_jtag_uart_ioctl.o)
                              ../UcosiiBSP_for_cpu_s0/\libucosii_bsp.a(altera_avalon_jtag_uart_fd.o) (altera_avalon_jtag_uart_ioctl)
../UcosiiBSP_for_cpu_s0/\libucosii_bsp.a(altera_avalon_jtag_uart_read.o)
                              ../UcosiiBSP_for_cpu_s0/\libucosii_bsp.a(altera_avalon_jtag_uart_fd.o) (altera_avalon_jtag_uart_read)
../UcosiiBSP_for_cpu_s0/\libucosii_bsp.a(altera_avalon_jtag_uart_write.o)
                              ../UcosiiBSP_for_cpu_s0/\libucosii_bsp.a(altera_avalon_jtag_uart_fd.o) (altera_avalon_jtag_uart_write)
../UcosiiBSP_for_cpu_s0/\libucosii_bsp.a(altera_avalon_timer_sc.o)
                              ../UcosiiBSP_for_cpu_s0/\libucosii_bsp.a(alt_sys_init.o) (alt_avalon_timer_sc_init)
../UcosiiBSP_for_cpu_s0/\libucosii_bsp.a(alt_alarm_start.o)
                              ../UcosiiBSP_for_cpu_s0/\libucosii_bsp.a(altera_avalon_jtag_uart_init.o) (alt_alarm_start)
../UcosiiBSP_for_cpu_s0/\libucosii_bsp.a(alt_busy_sleep.o)
                              ../UcosiiBSP_for_cpu_s0/\libucosii_bsp.a(alt_usleep.o) (alt_busy_sleep)
../UcosiiBSP_for_cpu_s0/\libucosii_bsp.a(alt_dcache_flush_all.o)
                              ../UcosiiBSP_for_cpu_s0/\libucosii_bsp.a(alt_load.o) (alt_dcache_flush_all)
../UcosiiBSP_for_cpu_s0/\libucosii_bsp.a(alt_dev_llist_insert.o)
                              ../UcosiiBSP_for_cpu_s0/\libucosii_bsp.a(alt_sys_init.o) (alt_dev_llist_insert)
../UcosiiBSP_for_cpu_s0/\libucosii_bsp.a(alt_do_ctors.o)
                              ../UcosiiBSP_for_cpu_s0/\libucosii_bsp.a(alt_main.o) (_do_ctors)
../UcosiiBSP_for_cpu_s0/\libucosii_bsp.a(alt_do_dtors.o)
                              ../UcosiiBSP_for_cpu_s0/\libucosii_bsp.a(alt_main.o) (_do_dtors)
../UcosiiBSP_for_cpu_s0/\libucosii_bsp.a(alt_icache_flush_all.o)
                              ../UcosiiBSP_for_cpu_s0/\libucosii_bsp.a(alt_load.o) (alt_icache_flush_all)
../UcosiiBSP_for_cpu_s0/\libucosii_bsp.a(alt_io_redirect.o)
                              ../UcosiiBSP_for_cpu_s0/\libucosii_bsp.a(alt_main.o) (alt_io_redirect)
../UcosiiBSP_for_cpu_s0/\libucosii_bsp.a(alt_irq_entry.o)
                              ../UcosiiBSP_for_cpu_s0/\libucosii_bsp.a(alt_irq_register.o) (alt_irq_entry)
../UcosiiBSP_for_cpu_s0/\libucosii_bsp.a(alt_irq_handler.o)
                              ../UcosiiBSP_for_cpu_s0/\libucosii_bsp.a(alt_irq_register.o) (alt_irq_handler)
../UcosiiBSP_for_cpu_s0/\libucosii_bsp.a(alt_open.o)
                              ../UcosiiBSP_for_cpu_s0/\libucosii_bsp.a(alt_io_redirect.o) (open)
../UcosiiBSP_for_cpu_s0/\libucosii_bsp.a(alt_tick.o)
                              ../UcosiiBSP_for_cpu_s0/\libucosii_bsp.a(altera_avalon_timer_sc.o) (alt_tick)
../UcosiiBSP_for_cpu_s0/\libucosii_bsp.a(altera_nios2_qsys_irq.o)
                              ../UcosiiBSP_for_cpu_s0/\libucosii_bsp.a(alt_sys_init.o) (altera_nios2_qsys_irq_init)
../UcosiiBSP_for_cpu_s0/\libucosii_bsp.a(os_cpu_a.o)
                              ../UcosiiBSP_for_cpu_s0/\libucosii_bsp.a(os_core.o) (OSIntCtxSw)
../UcosiiBSP_for_cpu_s0/\libucosii_bsp.a(os_cpu_c.o)
                              ../UcosiiBSP_for_cpu_s0/\libucosii_bsp.a(os_task.o) (OSTaskStkInit)
../UcosiiBSP_for_cpu_s0/\libucosii_bsp.a(alt_exception_entry.o)
                              ../UcosiiBSP_for_cpu_s0/\libucosii_bsp.a(alt_irq_entry.o) (alt_exception)
../UcosiiBSP_for_cpu_s0/\libucosii_bsp.a(alt_find_dev.o)
                              ../UcosiiBSP_for_cpu_s0/\libucosii_bsp.a(alt_open.o) (alt_find_dev)
../UcosiiBSP_for_cpu_s0/\libucosii_bsp.a(alt_find_file.o)
                              ../UcosiiBSP_for_cpu_s0/\libucosii_bsp.a(alt_open.o) (alt_find_file)
../UcosiiBSP_for_cpu_s0/\libucosii_bsp.a(alt_get_fd.o)
                              ../UcosiiBSP_for_cpu_s0/\libucosii_bsp.a(alt_open.o) (alt_get_fd)
../UcosiiBSP_for_cpu_s0/\libucosii_bsp.a(alt_icache_flush.o)
                              ../UcosiiBSP_for_cpu_s0/\libucosii_bsp.a(alt_icache_flush_all.o) (alt_icache_flush)
c:/altera/13.1/nios2eds/bin/gnu/h-i686-mingw32/bin/../lib/gcc/nios2-elf/4.7.3/../../../../../H-i686-mingw32/nios2-elf/lib\libc.a(lib_a-atexit.o)
                              ../UcosiiBSP_for_cpu_s0/\libucosii_bsp.a(alt_main.o) (atexit)
c:/altera/13.1/nios2eds/bin/gnu/h-i686-mingw32/bin/../lib/gcc/nios2-elf/4.7.3/../../../../../H-i686-mingw32/nios2-elf/lib\libc.a(lib_a-memcmp.o)
                              ../UcosiiBSP_for_cpu_s0/\libucosii_bsp.a(alt_find_dev.o) (memcmp)
c:/altera/13.1/nios2eds/bin/gnu/h-i686-mingw32/bin/../lib/gcc/nios2-elf/4.7.3/../../../../../H-i686-mingw32/nios2-elf/lib\libc.a(lib_a-__atexit.o)
                              c:/altera/13.1/nios2eds/bin/gnu/h-i686-mingw32/bin/../lib/gcc/nios2-elf/4.7.3/../../../../../H-i686-mingw32/nios2-elf/lib\libc.a(lib_a-atexit.o) (__register_exitproc)
c:/altera/13.1/nios2eds/bin/gnu/h-i686-mingw32/bin/../lib/gcc/nios2-elf/4.7.3\libgcc.a(_fixunsdfsi.o)
                              ../UcosiiBSP_for_cpu_s0/\libucosii_bsp.a(os_time.o) (__fixunsdfsi)

Allocating common symbols
Common symbol       size              file

node1_sendMSG_to_node2_task_stk
                    0x2000            obj/default/SysTestNode1.o
mcapi_db_impl       0x13ea0           obj/default/MCAPI_Transport/mcapi_trans_nios.o
PH_FIFO2_RcvTask_stk
                    0x2000            obj/default/PH_FifoDriver_UCOSII/PH_layer.o
alt_irq             0x100             ../UcosiiBSP_for_cpu_s0/\libucosii_bsp.a(alt_irq_handler.o)
semAlmostFull_fifo_1
                    0x4               obj/default/PH_FifoDriver_UCOSII/PH_layer.o
PH_FIFO1_RcvTask_stk
                    0x2000            obj/default/PH_FifoDriver_UCOSII/PH_layer.o
OSLockNesting       0x1               ../UcosiiBSP_for_cpu_s0/\libucosii_bsp.a(os_core.o)
OSRunning           0x1               ../UcosiiBSP_for_cpu_s0/\libucosii_bsp.a(os_core.o)
bridge_base_fifo_2  0x4               obj/default/PH_FifoDriver_UCOSII/PH_layer.o
callIDs             0x20              obj/default/NS_Layer/NS_layer.o
OSIdleCtr           0x4               ../UcosiiBSP_for_cpu_s0/\libucosii_bsp.a(os_core.o)
prio                0x4               obj/default/SysTestNode1.o
OSPrioHighRdy       0x1               ../UcosiiBSP_for_cpu_s0/\libucosii_bsp.a(os_core.o)
errno               0x4               c:/altera/13.1/nios2eds/bin/gnu/h-i686-mingw32/bin/../lib/gcc/nios2-elf/4.7.3/../../../../../H-i686-mingw32/nios2-elf/lib\libc.a(lib_a-int_errno.o)
init_task_stk       0x2000            obj/default/SysTestNode1.o
alt_heapsem         0x4               ../UcosiiBSP_for_cpu_s0/\libucosii_bsp.a(alt_malloc_lock.o)
node1_sendMSG_to_node0_task_stk
                    0x2000            obj/default/SysTestNode1.o
OSFlagTbl           0x370             ../UcosiiBSP_for_cpu_s0/\libucosii_bsp.a(os_core.o)
node2_recvEP_from_node0
                    0x4               obj/default/SysTestNode1.o
OSPrioCur           0x1               ../UcosiiBSP_for_cpu_s0/\libucosii_bsp.a(os_core.o)
node0_sendEP_to_node1
                    0x4               obj/default/SysTestNode1.o
node0_recvEP_from_node2
                    0x4               obj/default/SysTestNode1.o
node1_sendEP_to_node0
                    0x4               obj/default/SysTestNode1.o
node2_sendEP_to_node1
                    0x4               obj/default/SysTestNode1.o
OSTCBList           0x4               ../UcosiiBSP_for_cpu_s0/\libucosii_bsp.a(os_core.o)
alt_fd_list_lock    0x4               ../UcosiiBSP_for_cpu_s0/\libucosii_bsp.a(alt_dev.o)
node1_recvMSG_from_node0_task_stk
                    0x2000            obj/default/SysTestNode1.o
OSMemTbl            0xc30             ../UcosiiBSP_for_cpu_s0/\libucosii_bsp.a(os_core.o)
OSTickStepState     0x1               ../UcosiiBSP_for_cpu_s0/\libucosii_bsp.a(os_core.o)
OSTaskStatStk       0x800             ../UcosiiBSP_for_cpu_s0/\libucosii_bsp.a(os_core.o)
mutexSend           0x4               obj/default/PH_FifoDriver_UCOSII/PH_layer.o
node1_recvMSG_from_node2_task_stk
                    0x2000            obj/default/SysTestNode1.o
OSCtxSwCtr          0x4               ../UcosiiBSP_for_cpu_s0/\libucosii_bsp.a(os_core.o)
sem_serviceRequest  0x20              obj/default/NS_Layer/NS_layer.o
OSIdleCtrMax        0x4               ../UcosiiBSP_for_cpu_s0/\libucosii_bsp.a(os_core.o)
OSTCBFreeList       0x4               ../UcosiiBSP_for_cpu_s0/\libucosii_bsp.a(os_core.o)
node1_recvEP_from_node2
                    0x4               obj/default/SysTestNode1.o
node1_recvEP_from_node0
                    0x4               obj/default/SysTestNode1.o
reentMutex          0x4               obj/default/NS_Layer/NS_layer.o
OSCPUUsage          0x1               ../UcosiiBSP_for_cpu_s0/\libucosii_bsp.a(os_core.o)
OSTaskCtr           0x1               ../UcosiiBSP_for_cpu_s0/\libucosii_bsp.a(os_core.o)
DatabaseMutex       0x4               obj/default/MCAPI_Transport/mcapi_trans_nios.o
OSMemFreeList       0x4               ../UcosiiBSP_for_cpu_s0/\libucosii_bsp.a(os_core.o)
node1_sendEP_to_node2
                    0x4               obj/default/SysTestNode1.o
OSQTbl              0x1e0             ../UcosiiBSP_for_cpu_s0/\libucosii_bsp.a(os_core.o)
OSTCBHighRdy        0x4               ../UcosiiBSP_for_cpu_s0/\libucosii_bsp.a(os_core.o)
OSQFreeList         0x4               ../UcosiiBSP_for_cpu_s0/\libucosii_bsp.a(os_core.o)
OSRdyGrp            0x1               ../UcosiiBSP_for_cpu_s0/\libucosii_bsp.a(os_core.o)
_atexit0            0x190             c:/altera/13.1/nios2eds/bin/gnu/h-i686-mingw32/bin/../lib/gcc/nios2-elf/4.7.3/../../../../../H-i686-mingw32/nios2-elf/lib\libc.a(lib_a-atexit.o)
OSRdyTbl            0x6               ../UcosiiBSP_for_cpu_s0/\libucosii_bsp.a(os_core.o)
semAlmostFull_fifo_2
                    0x4               obj/default/PH_FifoDriver_UCOSII/PH_layer.o
bridge_base_fifo_1  0x4               obj/default/PH_FifoDriver_UCOSII/PH_layer.o
node2_recvEP_from_node1
                    0x4               obj/default/SysTestNode1.o
node2_sendEP_to_node0
                    0x4               obj/default/SysTestNode1.o
OSEventFreeList     0x4               ../UcosiiBSP_for_cpu_s0/\libucosii_bsp.a(os_core.o)
node0_recvEP_from_node1
                    0x4               obj/default/SysTestNode1.o
bridge_irq_fifo_1   0x4               obj/default/PH_FifoDriver_UCOSII/PH_layer.o
OSIntNesting        0x1               ../UcosiiBSP_for_cpu_s0/\libucosii_bsp.a(os_core.o)
OSTCBCur            0x4               ../UcosiiBSP_for_cpu_s0/\libucosii_bsp.a(os_core.o)
node0_sendEP_to_node2
                    0x4               obj/default/SysTestNode1.o
OSTime              0x4               ../UcosiiBSP_for_cpu_s0/\libucosii_bsp.a(os_core.o)
OSTaskIdleStk       0x800             ../UcosiiBSP_for_cpu_s0/\libucosii_bsp.a(os_core.o)
serviceRequest      0x1e0             obj/default/NS_Layer/NS_layer.o
OSEventTbl          0xc30             ../UcosiiBSP_for_cpu_s0/\libucosii_bsp.a(os_core.o)
OSTCBTbl            0xd80             ../UcosiiBSP_for_cpu_s0/\libucosii_bsp.a(os_core.o)
OSFlagFreeList      0x4               ../UcosiiBSP_for_cpu_s0/\libucosii_bsp.a(os_core.o)
OSStatRdy           0x1               ../UcosiiBSP_for_cpu_s0/\libucosii_bsp.a(os_core.o)
OSTCBPrioTbl        0xa4              ../UcosiiBSP_for_cpu_s0/\libucosii_bsp.a(os_core.o)
bridge_irq_fifo_2   0x4               obj/default/PH_FifoDriver_UCOSII/PH_layer.o
alt_envsem          0x4               ../UcosiiBSP_for_cpu_s0/\libucosii_bsp.a(alt_env_lock.o)
OSIdleCtrRun        0x4               ../UcosiiBSP_for_cpu_s0/\libucosii_bsp.a(os_core.o)
mcapi_db            0x4               obj/default/MCAPI_Transport/mcapi_trans_nios.o

Memory Configuration

Name             Origin             Length             Attributes
reset            0x00000000         0x00000020
sdram            0x00000020         0x03ffffe0
*default*        0x00000000         0xffffffff

Linker script and memory map

LOAD ../UcosiiBSP_for_cpu_s0//obj/HAL/src/crt0.o
LOAD obj/default/MCAPI_Top/mcapi.o
LOAD obj/default/MCAPI_Transport/mcapi_trans_nios.o
LOAD obj/default/NS_Layer/NS_layer.o
LOAD obj/default/PH_FifoDriver_UCOSII/PH_layer.o
LOAD obj/default/SysTestNode1.o
LOAD obj/default/UTILS/util_packet_handling.o
LOAD c:/altera/13.1/nios2eds/bin/gnu/h-i686-mingw32/bin/../lib/gcc/nios2-elf/4.7.3/../../../../../H-i686-mingw32/nios2-elf/lib\libstdc++.a
LOAD c:/altera/13.1/nios2eds/bin/gnu/h-i686-mingw32/bin/../lib/gcc/nios2-elf/4.7.3/../../../../../H-i686-mingw32/nios2-elf/lib\libm.a
LOAD c:/altera/13.1/nios2eds/bin/gnu/h-i686-mingw32/bin/../lib/gcc/nios2-elf/4.7.3\libgcc.a
START GROUP
LOAD c:/altera/13.1/nios2eds/bin/gnu/h-i686-mingw32/bin/../lib/gcc/nios2-elf/4.7.3/../../../../../H-i686-mingw32/nios2-elf/lib\libc.a
LOAD c:/altera/13.1/nios2eds/bin/gnu/h-i686-mingw32/bin/../lib/gcc/nios2-elf/4.7.3\libgcc.a
LOAD ../UcosiiBSP_for_cpu_s0/\libucosii_bsp.a
END GROUP
LOAD c:/altera/13.1/nios2eds/bin/gnu/h-i686-mingw32/bin/../lib/gcc/nios2-elf/4.7.3\libgcc.a
                0x00000000                __alt_mem_sdram = 0x0

.entry          0x00000000       0x20
 *(.entry)
 .entry         0x00000000       0x20 ../UcosiiBSP_for_cpu_s0//obj/HAL/src/crt0.o
                0x00000000                __reset

.exceptions     0x00000020      0x134
                0x00000020                PROVIDE (__ram_exceptions_start, ABSOLUTE (.))
                0x00000020                . = ALIGN (0x20)
 *(.irq)
 *(.exceptions.entry.label)
 .exceptions.entry.label
                0x00000020        0x0 ../UcosiiBSP_for_cpu_s0/\libucosii_bsp.a(alt_irq_entry.o)
                0x00000020                alt_irq_entry
 .exceptions.entry.label
                0x00000020        0x0 ../UcosiiBSP_for_cpu_s0/\libucosii_bsp.a(alt_exception_entry.o)
                0x00000020                alt_exception
 *(.exceptions.entry.user)
 *(.exceptions.entry.ecc_fatal)
 *(.exceptions.entry)
 .exceptions.entry
                0x00000020       0x54 ../UcosiiBSP_for_cpu_s0/\libucosii_bsp.a(alt_exception_entry.o)
 *(.exceptions.irqtest.user)
 *(.exceptions.irqtest)
 .exceptions.irqtest
                0x00000074       0x10 ../UcosiiBSP_for_cpu_s0/\libucosii_bsp.a(alt_irq_entry.o)
 *(.exceptions.irqhandler.user)
 *(.exceptions.irqhandler)
 .exceptions.irqhandler
                0x00000084        0x4 ../UcosiiBSP_for_cpu_s0/\libucosii_bsp.a(alt_irq_entry.o)
 *(.exceptions.irqreturn.user)
 *(.exceptions.irqreturn)
 .exceptions.irqreturn
                0x00000088        0x4 ../UcosiiBSP_for_cpu_s0/\libucosii_bsp.a(alt_irq_entry.o)
 *(.exceptions.notirq.label)
 .exceptions.notirq.label
                0x0000008c        0x0 ../UcosiiBSP_for_cpu_s0/\libucosii_bsp.a(alt_irq_entry.o)
 *(.exceptions.notirq.user)
 *(.exceptions.notirq)
 .exceptions.notirq
                0x0000008c        0x8 ../UcosiiBSP_for_cpu_s0/\libucosii_bsp.a(alt_exception_entry.o)
 *(.exceptions.soft.user)
 *(.exceptions.soft)
 *(.exceptions.unknown.user)
 *(.exceptions.unknown)
 .exceptions.unknown
                0x00000094        0x4 ../UcosiiBSP_for_cpu_s0/\libucosii_bsp.a(alt_exception_entry.o)
 *(.exceptions.exit.label)
 .exceptions.exit.label
                0x00000098        0x0 ../UcosiiBSP_for_cpu_s0/\libucosii_bsp.a(alt_irq_entry.o)
 .exceptions.exit.label
                0x00000098        0x0 ../UcosiiBSP_for_cpu_s0/\libucosii_bsp.a(alt_exception_entry.o)
 *(.exceptions.exit.user)
 *(.exceptions.exit)
 .exceptions.exit
                0x00000098       0x54 ../UcosiiBSP_for_cpu_s0/\libucosii_bsp.a(alt_exception_entry.o)
 *(.exceptions)
 .exceptions    0x000000ec       0x68 ../UcosiiBSP_for_cpu_s0/\libucosii_bsp.a(alt_irq_handler.o)
                0x000000ec                alt_irq_handler
                0x00000154                PROVIDE (__ram_exceptions_end, ABSOLUTE (.))
                0x00000020                PROVIDE (__flash_exceptions_start, LOADADDR (.exceptions))

.text           0x00000154    0x201c4
                0x00000154                PROVIDE (stext, ABSOLUTE (.))
 *(.interp)
 *(.hash)
 *(.dynsym)
 *(.dynstr)
 *(.gnu.version)
 *(.gnu.version_d)
 *(.gnu.version_r)
 *(.rel.init)
 *(.rela.init)
 *(.rel.text .rel.text.* .rel.gnu.linkonce.t.*)
 *(.rela.text .rela.text.* .rela.gnu.linkonce.t.*)
 *(.rel.fini)
 *(.rela.fini)
 *(.rel.rodata .rel.rodata.* .rel.gnu.linkonce.r.*)
 *(.rela.rodata .rela.rodata.* .rela.gnu.linkonce.r.*)
 *(.rel.data .rel.data.* .rel.gnu.linkonce.d.*)
 *(.rela.data .rela.data.* .rela.gnu.linkonce.d.*)
 *(.rel.tdata .rel.tdata.* .rel.gnu.linkonce.td.*)
 *(.rela.tdata .rela.tdata.* .rela.gnu.linkonce.td.*)
 *(.rel.tbss .rel.tbss.* .rel.gnu.linkonce.tb.*)
 *(.rela.tbss .rela.tbss.* .rela.gnu.linkonce.tb.*)
 *(.rel.ctors)
 *(.rela.ctors)
 *(.rel.dtors)
 *(.rela.dtors)
 *(.rel.got)
 *(.rela.got)
 *(.rel.sdata .rel.sdata.* .rel.gnu.linkonce.s.*)
 *(.rela.sdata .rela.sdata.* .rela.gnu.linkonce.s.*)
 *(.rel.sbss .rel.sbss.* .rel.gnu.linkonce.sb.*)
 *(.rela.sbss .rela.sbss.* .rela.gnu.linkonce.sb.*)
 *(.rel.sdata2 .rel.sdata2.* .rel.gnu.linkonce.s2.*)
 *(.rela.sdata2 .rela.sdata2.* .rela.gnu.linkonce.s2.*)
 *(.rel.sbss2 .rel.sbss2.* .rel.gnu.linkonce.sb2.*)
 *(.rela.sbss2 .rela.sbss2.* .rela.gnu.linkonce.sb2.*)
 *(.rel.bss .rel.bss.* .rel.gnu.linkonce.b.*)
 *(.rela.bss .rela.bss.* .rela.gnu.linkonce.b.*)
 *(.rel.plt)
 *(.rela.plt)
 *(.rel.dyn)
 *(.init)
 *(.plt)
 *(.text .stub .text.* .gnu.linkonce.t.*)
 .text          0x00000154       0x3c ../UcosiiBSP_for_cpu_s0//obj/HAL/src/crt0.o
                0x00000154                _start
 .text          0x00000190     0x2378 obj/default/MCAPI_Top/mcapi.o
                0x00000190                mcapi_display_status
                0x0000076c                mcapi_set_debug_level
                0x00000770                mcapi_display_state
                0x00000774                mcapi_initialize
                0x00000834                mcapi_node_init_attributes
                0x0000088c                mcapi_node_set_attribute
                0x000008ec                mcapi_node_get_attribute
                0x00000950                mcapi_finalize
                0x0000098c                mcapi_domain_id_get
                0x000009d8                mcapi_node_id_get
                0x00000a24                mcapi_endpoint_create
                0x00000b1c                mcapi_endpoint_get_i
                0x00000bcc                mcapi_endpoint_get
                0x00000ca0                mcapi_endpoint_delete
                0x00000d48                mcapi_endpoint_get_attribute
                0x00000de8                mcapi_msg_send_i
                0x00000eb0                mcapi_msg_send
                0x00000fb4                mcapi_msg_recv_i
                0x0000108c                mcapi_msg_recv
                0x00001160                mcapi_msg_available
                0x000011c4                mcapi_pktchan_connect_i
                0x00001280                mcapi_pktchan_recv_open_i
                0x00001354                mcapi_pktchan_send_open_i
                0x00001428                mcapi_pktchan_send_i
                0x000014dc                mcapi_pktchan_send
                0x000015a4                mcapi_pktchan_recv_i
                0x00001660                mcapi_pktchan_recv
                0x00001734                mcapi_pktchan_available
                0x00001798                mcapi_pktchan_release
                0x000017d4                mcapi_pktchan_recv_close_i
                0x0000187c                mcapi_pktchan_send_close_i
                0x00001924                mcapi_sclchan_connect_i
                0x00001a30                mcapi_sclchan_recv_open_i
                0x00001b0c                mcapi_sclchan_send_open_i
                0x00001be8                mcapi_sclchan_send_uint64
                0x00001c88                mcapi_sclchan_send_uint32
                0x00001d3c                mcapi_sclchan_send_uint16
                0x00001dcc                mcapi_sclchan_send_uint8
                0x00001e68                mcapi_sclchan_recv_uint64
                0x00001efc                mcapi_sclchan_recv_uint32
                0x00001f88                mcapi_sclchan_recv_uint16
                0x00002014                mcapi_sclchan_recv_uint8
                0x000020ac                mcapi_sclchan_available
                0x00002110                mcapi_sclchan_recv_close_i
                0x000021b8                mcapi_sclchan_send_close_i
                0x00002260                mcapi_test
                0x00002314                mcapi_wait
                0x000023f0                mcapi_wait_any
                0x000024a4                mcapi_cancel
 .text          0x00002508     0xa370 obj/default/MCAPI_Transport/mcapi_trans_nios.o
                0x000027a4                MCAPI_ASSERT
                0x000027c8                mca_dprintf
                0x000027dc                mcapi_trans_get_node_num
                0x000027fc                mcapi_trans_get_domain_num
                0x0000281c                mcapi_trans_remove_request_have_lock
                0x00002900                mcapi_trans_reserve_request_have_lock
                0x000029a0                mcapi_trans_init_indexed_array_have_lock
                0x00002a4c                mcapi_trans_initialize
                0x00003000                mcapi_trans_initialize_database
                0x000031dc                mcapi_trans_node_init_attributes
                0x000031f4                mcapi_trans_node_get_attribute
                0x00003514                mcapi_trans_node_set_attribute
                0x00003574                mcapi_trans_finalize
                0x00003624                mcapi_trans_channel_type
                0x00003714                mcapi_trans_send_endpoint
                0x00003814                mcapi_trans_recv_endpoint
                0x00003914                mcapi_trans_valid_port
                0x0000391c                mcapi_trans_valid_node
                0x00003924                mcapi_trans_valid_domain
                0x0000392c                mcapi_trans_valid_endpoint
                0x00003a1c                mcapi_trans_endpoint_exists
                0x00003bc0                mcapi_trans_endpoint_exists_
                0x00003cd0                mcapi_trans_valid_endpoints
                0x00003dd4                mcapi_trans_endpoint_channel_isopen
                0x00003ee4                mcapi_trans_sclchan_send_isopen
                0x00003ee8                mcapi_trans_sclchan_recv_isopen
                0x00003eec                mcapi_trans_pktchan_send_isopen
                0x00003ef0                mcapi_trans_pktchan_recv_isopen
                0x00003ef4                mcapi_trans_endpoint_isowner
                0x0000401c                mcapi_trans_channel_connected
                0x00004140                mcapi_trans_compatible_endpoint_attributes
                0x00004148                mcapi_trans_valid_pktchan_send_handle
                0x00004238                mcapi_trans_valid_pktchan_recv_handle
                0x00004328                mcapi_trans_valid_sclchan_send_handle
                0x00004418                mcapi_trans_valid_sclchan_recv_handle
                0x00004508                mcapi_trans_initialized
                0x000045b8                mcapi_trans_num_endpoints
                0x00004680                mcapi_trans_valid_priority
                0x00004688                mcapi_trans_connected
                0x00004778                mcapi_trans_valid_status_param
                0x00004780                mcapi_trans_valid_version_param
                0x00004788                mcapi_trans_valid_buffer_param
                0x00004790                mcapi_trans_valid_request_handle
                0x000047b0                mcapi_trans_valid_size_param
                0x000047b8                mcapi_trans_endpoint_create
                0x000049b0                mcapi_trans_endpoint_create_
                0x00004b88                mcapi_trans_endpoint_get_attribute
                0x00004cdc                mcapi_trans_endpoint_set_attribute
                0x00004d00                mcapi_trans_endpoint_get_have_lock
                0x00004dd4                mcapi_trans_endpoint_get_i
                0x000050a4                mcapi_trans_endpoint_get_
                0x0000524c                mcapi_trans_endpoint_delete
                0x0000535c                mcapi_trans_msg_available
                0x0000544c                mcapi_trans_pktchan_recv_open_i
                0x00005768                mcapi_trans_pktchan_send_open_i
                0x00005a84                mcapi_trans_pktchan_available
                0x00005b74                mcapi_trans_pktchan_free
                0x00005c3c                mcapi_trans_pktchan_send_close_i
                0x00005f00                mcapi_trans_sclchan_recv_open_i
                0x0000621c                mcapi_trans_sclchan_send_open_i
                0x00006538                mcapi_trans_sclchan_available_i
                0x00006628                mcapi_trans_sclchan_send_close_i
                0x000068ec                mcapi_trans_signal_handler
                0x000068f0                setup_request_have_lock
                0x00006b9c                mcapi_trans_decode_request_handle
                0x00006bc0                mcapi_trans_display_state_have_lock
                0x00006fb4                mcapi_trans_display_state
                0x00007050                check_open_channel_request_have_lock
                0x000071d0                check_close_channel_request_have_lock
                0x00007368                check_get_endpt_request_have_lock
                0x000075bc                cancel_receive_request_have_lock
                0x00007878                mcapi_trans_cancel
                0x000079f4                check_receive_request_have_lock
                0x00007f00                mcapi_trans_test_i
                0x00008208                mcapi_trans_wait_any
                0x00008390                mcapi_trans_wait
                0x00008484                mcapi_trans_endpoint_get
                0x00008500                mcapi_trans_connect_channel_have_lock
                0x00008620                mcapi_trans_sclchan_connect_i
                0x000087fc                mcapi_trans_pktchan_connect_i
                0x000089d8                mcapi_trans_send
                0x00008e24                mcapi_trans_send_have_lock
                0x000091e4                mcapi_trans_sclchan_send
                0x000093f8                mcapi_trans_pktchan_send_i
                0x00009868                mcapi_trans_pktchan_send
                0x00009914                mcapi_trans_msg_send_i
                0x00009dac                mcapi_trans_msg_send
                0x00009ebc                mcapi_trans_recv_have_lock_
                0x0000a06c                mcapi_trans_open_channel_have_lock
                0x0000a0a0                mcapi_trans_close_channel_have_lock
                0x0000a0d0                mcapi_trans_yield_have_lock
                0x0000a170                mcapi_trans_access_database_pre
                0x0000a1dc                mcapi_trans_access_database_post
                0x0000a244                mcapi_trans_add_domain_and_node
                0x0000a408                mcapi_trans_encode_handle
                0x0000a448                mcapi_trans_decode_handle
                0x0000a490                mcapi_trans_get_database_indices
                0x0000a59c                mcapi_trans_whoami
                0x0000a5d4                print_queue
                0x0000a93c                mcapi_trans_push_queue
                0x0000aa18                mcapi_trans_pop_queue
                0x0000ac68                mcapi_trans_recv_have_lock
                0x0000b060                mcapi_trans_sclchan_recv_close_i
                0x0000b48c                mcapi_trans_pktchan_recv_close_i
                0x0000bb94                mcapi_trans_sclchan_recv
                0x0000c048                mcapi_trans_msg_recv_i
                0x0000c270                mcapi_trans_msg_recv
                0x0000c330                mcapi_trans_pktchan_recv_i
                0x0000c518                mcapi_trans_pktchan_recv
                0x0000c5c4                mcapi_trans_compact_queue
                0x0000c70c                mcapi_trans_empty_queue
                0x0000c7e4                mcapi_trans_full_queue
 .text.unlikely
                0x0000c878       0x30 obj/default/MCAPI_Transport/mcapi_trans_nios.o
 .text          0x0000c8a8     0x150c obj/default/NS_Layer/NS_layer.o
                0x0000c8a8                getIndex
                0x0000c8d0                NS_get_serviceRequestID
                0x0000ca20                NS_getCallID
                0x0000cb5c                NS_releaseCallID
                0x0000ccdc                NS_layer_exit
                0x0000cce4                NS_init
                0x0000cf74                NS_getRemoteEndpoint_request
                0x0000d274                NS_getRemoteEndpoint_response
                0x0000d3b0                NS_endpointChannelIsopen_request
                0x0000d670                NS_endpointChannelIsopen_response
                0x0000d75c                NS_sendDataToRemote_request
                0x0000d8d4                NS_sendDataToRemote_indication
                0x0000d9d4                NS_unlock_waiting_request
                0x0000daf4                NS_layer_receive
 .text          0x0000ddb4      0x9c8 obj/default/PH_FifoDriver_UCOSII/PH_layer.o
                0x0000ddb4                PH_FIFO2_RcvTask
                0x0000de84                PH_FIFO1_RcvTask
                0x0000df54                PH_FIFO2_ISR
                0x0000dfd4                PH_FIFO1_ISR
                0x0000e054                PH_send_request
                0x0000e254                cpu_fifo_bridge_init
                0x0000e27c                PH_init
 .text          0x0000e77c      0x934 obj/default/SysTestNode1.o
                0x0000e77c                sys_stop
                0x0000e780                check_status
                0x0000e7cc                init_task
                0x0000ea68                node1_sendMSG_to_node2_task
                0x0000ec0c                node1_recvMSG_from_node2_task
                0x0000ed84                node1_recvMSG_from_node0_task
                0x0000eefc                node1_sendMSG_to_node0_task
 .text.startup  0x0000f0b0       0xa8 obj/default/SysTestNode1.o
                0x0000f0b0                main
 .text          0x0000f158      0x33c obj/default/UTILS/util_packet_handling.o
                0x0000f158                pack_add_8
                0x0000f164                pack_add_u8
                0x0000f170                pack_add_16
                0x0000f184                pack_add_u16
                0x0000f198                pack_add_32
                0x0000f1bc                pack_add_u32
                0x0000f1e0                pack_add_64
                0x0000f220                pack_add_u64
                0x0000f260                pack_add_flt
                0x0000f294                pack_add_adr
                0x0000f2b8                pack_get_8
                0x0000f2c4                pack_get_u8
                0x0000f2d0                pack_get_16
                0x0000f2f4                pack_get_u16
                0x0000f318                pack_get_32
                0x0000f34c                pack_get_u32
                0x0000f380                pack_get_64
                0x0000f3d8                pack_get_u64
                0x0000f430                pack_get_flt
                0x0000f464                pack_get_adr
 .text          0x0000f494      0x130 c:/altera/13.1/nios2eds/bin/gnu/h-i686-mingw32/bin/../lib/gcc/nios2-elf/4.7.3\libgcc.a(lib2-divmod.o)
                0x0000f508                __divsi3
                0x0000f558                __modsi3
                0x0000f5b4                __udivsi3
                0x0000f5bc                __umodsi3
 .text          0x0000f5c4        0x0 c:/altera/13.1/nios2eds/bin/gnu/h-i686-mingw32/bin/../lib/gcc/nios2-elf/4.7.3\libgcc.a(lib2-divtable.o)
 .text          0x0000f5c4       0x38 c:/altera/13.1/nios2eds/bin/gnu/h-i686-mingw32/bin/../lib/gcc/nios2-elf/4.7.3/../../../../../H-i686-mingw32/nios2-elf/lib\libc.a(lib_a-exit.o)
                0x0000f5c4                exit
 .text          0x0000f5fc      0x218 c:/altera/13.1/nios2eds/bin/gnu/h-i686-mingw32/bin/../lib/gcc/nios2-elf/4.7.3/../../../../../H-i686-mingw32/nios2-elf/lib\libc.a(lib_a-fflush.o)
                0x0000f5fc                _fflush_r
                0x0000f7e4                fflush
 .text          0x0000f814      0x2d8 c:/altera/13.1/nios2eds/bin/gnu/h-i686-mingw32/bin/../lib/gcc/nios2-elf/4.7.3/../../../../../H-i686-mingw32/nios2-elf/lib\libc.a(lib_a-findfp.o)
                0x0000f824                _cleanup_r
                0x0000f830                __sfmoreglue
                0x0000f894                _cleanup
                0x0000f8a4                __sinit
                0x0000f9b0                __sfp
                0x0000faac                __sfp_lock_acquire
                0x0000fab0                __sfp_lock_release
                0x0000fab4                __sinit_lock_acquire
                0x0000fab8                __sinit_lock_release
                0x0000fabc                __fp_lock_all
                0x0000fad4                __fp_unlock_all
 .text          0x0000faec       0x4c c:/altera/13.1/nios2eds/bin/gnu/h-i686-mingw32/bin/../lib/gcc/nios2-elf/4.7.3/../../../../../H-i686-mingw32/nios2-elf/lib\libc.a(lib_a-fprintf.o)
                0x0000faec                _fprintf_r
                0x0000fb14                fprintf
 .text          0x0000fb38      0x160 c:/altera/13.1/nios2eds/bin/gnu/h-i686-mingw32/bin/../lib/gcc/nios2-elf/4.7.3/../../../../../H-i686-mingw32/nios2-elf/lib\libc.a(lib_a-fwalk.o)
                0x0000fb38                _fwalk
                0x0000fbe0                _fwalk_reent
 .text          0x0000fc98       0xe0 c:/altera/13.1/nios2eds/bin/gnu/h-i686-mingw32/bin/../lib/gcc/nios2-elf/4.7.3/../../../../../H-i686-mingw32/nios2-elf/lib\libc.a(lib_a-fwrite.o)
                0x0000fc98                _fwrite_r
                0x0000fd38                fwrite
 .text          0x0000fd78        0x0 c:/altera/13.1/nios2eds/bin/gnu/h-i686-mingw32/bin/../lib/gcc/nios2-elf/4.7.3/../../../../../H-i686-mingw32/nios2-elf/lib\libc.a(lib_a-impure.o)
 .text          0x0000fd78      0x784 c:/altera/13.1/nios2eds/bin/gnu/h-i686-mingw32/bin/../lib/gcc/nios2-elf/4.7.3/../../../../../H-i686-mingw32/nios2-elf/lib\libc.a(lib_a-mallocr.o)
                0x0000fd78                _malloc_r
 .text          0x000104fc       0xf8 c:/altera/13.1/nios2eds/bin/gnu/h-i686-mingw32/bin/../lib/gcc/nios2-elf/4.7.3/../../../../../H-i686-mingw32/nios2-elf/lib\libc.a(lib_a-memcpy.o)
                0x000104fc                memcpy
 .text          0x000105f4       0xdc c:/altera/13.1/nios2eds/bin/gnu/h-i686-mingw32/bin/../lib/gcc/nios2-elf/4.7.3/../../../../../H-i686-mingw32/nios2-elf/lib\libc.a(lib_a-memset.o)
                0x000105f4                memset
 .text          0x000106d0       0x68 c:/altera/13.1/nios2eds/bin/gnu/h-i686-mingw32/bin/../lib/gcc/nios2-elf/4.7.3/../../../../../H-i686-mingw32/nios2-elf/lib\libc.a(lib_a-printf.o)
                0x000106d0                _printf_r
                0x000106fc                printf
 .text          0x00010738       0x98 c:/altera/13.1/nios2eds/bin/gnu/h-i686-mingw32/bin/../lib/gcc/nios2-elf/4.7.3/../../../../../H-i686-mingw32/nios2-elf/lib\libc.a(lib_a-puts.o)
                0x00010738                _puts_r
                0x000107bc                puts
 .text          0x000107d0       0x7c c:/altera/13.1/nios2eds/bin/gnu/h-i686-mingw32/bin/../lib/gcc/nios2-elf/4.7.3/../../../../../H-i686-mingw32/nios2-elf/lib\libc.a(lib_a-rand.o)
                0x000107d0                srand
                0x000107e8                rand
 .text          0x0001084c       0x64 c:/altera/13.1/nios2eds/bin/gnu/h-i686-mingw32/bin/../lib/gcc/nios2-elf/4.7.3/../../../../../H-i686-mingw32/nios2-elf/lib\libc.a(lib_a-sbrkr.o)
                0x0001084c                _sbrk_r
 .text          0x000108b0      0x140 c:/altera/13.1/nios2eds/bin/gnu/h-i686-mingw32/bin/../lib/gcc/nios2-elf/4.7.3/../../../../../H-i686-mingw32/nios2-elf/lib\libc.a(lib_a-stdio.o)
                0x000108b0                __sread
                0x00010904                __swrite
                0x0001098c                __sseek
                0x000109e8                __sclose
 .text          0x000109f0       0x8c c:/altera/13.1/nios2eds/bin/gnu/h-i686-mingw32/bin/../lib/gcc/nios2-elf/4.7.3/../../../../../H-i686-mingw32/nios2-elf/lib\libc.a(lib_a-strlen.o)
                0x000109f0                strlen
 .text          0x00010a7c     0x1e50 c:/altera/13.1/nios2eds/bin/gnu/h-i686-mingw32/bin/../lib/gcc/nios2-elf/4.7.3/../../../../../H-i686-mingw32/nios2-elf/lib\libc.a(lib_a-vfprintf.o)
                0x00010ab0                ___vfprintf_internal_r
                0x000128a8                __vfprintf_internal
 .text          0x000128cc       0x6c c:/altera/13.1/nios2eds/bin/gnu/h-i686-mingw32/bin/../lib/gcc/nios2-elf/4.7.3/../../../../../H-i686-mingw32/nios2-elf/lib\libc.a(lib_a-writer.o)
                0x000128cc                _write_r
 .text          0x00012938      0x174 c:/altera/13.1/nios2eds/bin/gnu/h-i686-mingw32/bin/../lib/gcc/nios2-elf/4.7.3/../../../../../H-i686-mingw32/nios2-elf/lib\libc.a(lib_a-wsetup.o)
                0x00012938                __swsetup_r
 .text          0x00012aac      0x1a0 c:/altera/13.1/nios2eds/bin/gnu/h-i686-mingw32/bin/../lib/gcc/nios2-elf/4.7.3/../../../../../H-i686-mingw32/nios2-elf/lib\libc.a(lib_a-__call_atexit.o)
                0x00012aac                __call_exitprocs
 .text          0x00012c4c       0x64 c:/altera/13.1/nios2eds/bin/gnu/h-i686-mingw32/bin/../lib/gcc/nios2-elf/4.7.3/../../../../../H-i686-mingw32/nios2-elf/lib\libc.a(lib_a-closer.o)
                0x00012c4c                _close_r
 .text          0x00012cb0     0x1824 c:/altera/13.1/nios2eds/bin/gnu/h-i686-mingw32/bin/../lib/gcc/nios2-elf/4.7.3/../../../../../H-i686-mingw32/nios2-elf/lib\libc.a(lib_a-dtoa.o)
                0x00012eb8                _dtoa_r
 .text          0x000144d4      0x150 c:/altera/13.1/nios2eds/bin/gnu/h-i686-mingw32/bin/../lib/gcc/nios2-elf/4.7.3/../../../../../H-i686-mingw32/nios2-elf/lib\libc.a(lib_a-fclose.o)
                0x000144d4                _fclose_r
                0x00014610                fclose
 .text          0x00014624      0x40c c:/altera/13.1/nios2eds/bin/gnu/h-i686-mingw32/bin/../lib/gcc/nios2-elf/4.7.3/../../../../../H-i686-mingw32/nios2-elf/lib\libc.a(lib_a-freer.o)
                0x00014624                _malloc_trim_r
                0x00014760                _free_r
 .text          0x00014a30      0x4e4 c:/altera/13.1/nios2eds/bin/gnu/h-i686-mingw32/bin/../lib/gcc/nios2-elf/4.7.3/../../../../../H-i686-mingw32/nios2-elf/lib\libc.a(lib_a-fvwrite.o)
                0x00014a30                __sfvwrite_r
 .text          0x00014f14        0x0 c:/altera/13.1/nios2eds/bin/gnu/h-i686-mingw32/bin/../lib/gcc/nios2-elf/4.7.3/../../../../../H-i686-mingw32/nios2-elf/lib\libc.a(lib_a-int_errno.o)
 .text          0x00014f14       0xdc c:/altera/13.1/nios2eds/bin/gnu/h-i686-mingw32/bin/../lib/gcc/nios2-elf/4.7.3/../../../../../H-i686-mingw32/nios2-elf/lib\libc.a(lib_a-locale.o)
                0x00014f14                _setlocale_r
                0x00014fb0                __locale_charset
                0x00014fbc                _localeconv_r
                0x00014fc8                setlocale
                0x00014fe4                localeconv
 .text          0x00014ff0       0x6c c:/altera/13.1/nios2eds/bin/gnu/h-i686-mingw32/bin/../lib/gcc/nios2-elf/4.7.3/../../../../../H-i686-mingw32/nios2-elf/lib\libc.a(lib_a-lseekr.o)
                0x00014ff0                _lseek_r
 .text          0x0001505c      0x1a8 c:/altera/13.1/nios2eds/bin/gnu/h-i686-mingw32/bin/../lib/gcc/nios2-elf/4.7.3/../../../../../H-i686-mingw32/nios2-elf/lib\libc.a(lib_a-makebuf.o)
                0x0001505c                __smakebuf_r
 .text          0x00015204       0xf8 c:/altera/13.1/nios2eds/bin/gnu/h-i686-mingw32/bin/../lib/gcc/nios2-elf/4.7.3/../../../../../H-i686-mingw32/nios2-elf/lib\libc.a(lib_a-memchr.o)
                0x00015204                memchr
 .text          0x000152fc      0x128 c:/altera/13.1/nios2eds/bin/gnu/h-i686-mingw32/bin/../lib/gcc/nios2-elf/4.7.3/../../../../../H-i686-mingw32/nios2-elf/lib\libc.a(lib_a-memmove.o)
                0x000152fc                memmove
 .text          0x00015424      0xfa8 c:/altera/13.1/nios2eds/bin/gnu/h-i686-mingw32/bin/../lib/gcc/nios2-elf/4.7.3/../../../../../H-i686-mingw32/nios2-elf/lib\libc.a(lib_a-mprec.o)
                0x00015424                _Balloc
                0x000154cc                _Bfree
                0x000154f4                __multadd
                0x00015608                __s2b
                0x0001570c                __hi0bits
                0x00015774                __lo0bits
                0x00015824                __i2b
                0x00015860                __multiply
                0x00015a40                __pow5mult
                0x00015b6c                __lshift
                0x00015cc8                __mcmp
                0x00015d20                __mdiff
                0x00015ec8                __ulp
                0x00015f28                __b2d
                0x00016070                __d2b
                0x000161b4                __ratio
                0x00016258                _mprec_log10
                0x000162cc                __copybits
                0x00016348                __any_on
 .text          0x000163cc       0x6c c:/altera/13.1/nios2eds/bin/gnu/h-i686-mingw32/bin/../lib/gcc/nios2-elf/4.7.3/../../../../../H-i686-mingw32/nios2-elf/lib\libc.a(lib_a-readr.o)
                0x000163cc                _read_r
 .text          0x00016438      0x5fc c:/altera/13.1/nios2eds/bin/gnu/h-i686-mingw32/bin/../lib/gcc/nios2-elf/4.7.3/../../../../../H-i686-mingw32/nios2-elf/lib\libc.a(lib_a-reallocr.o)
                0x00016438                _realloc_r
 .text          0x00016a34       0x38 c:/altera/13.1/nios2eds/bin/gnu/h-i686-mingw32/bin/../lib/gcc/nios2-elf/4.7.3/../../../../../H-i686-mingw32/nios2-elf/lib\libc.a(lib_a-s_isinfd.o)
                0x00016a34                __isinfd
 .text          0x00016a6c       0x2c c:/altera/13.1/nios2eds/bin/gnu/h-i686-mingw32/bin/../lib/gcc/nios2-elf/4.7.3/../../../../../H-i686-mingw32/nios2-elf/lib\libc.a(lib_a-s_isnand.o)
                0x00016a6c                __isnand
 .text          0x00016a98       0xa4 c:/altera/13.1/nios2eds/bin/gnu/h-i686-mingw32/bin/../lib/gcc/nios2-elf/4.7.3/../../../../../H-i686-mingw32/nios2-elf/lib\libc.a(lib_a-strcmp.o)
                0x00016a98                strcmp
 .text          0x00016b3c       0xbc c:/altera/13.1/nios2eds/bin/gnu/h-i686-mingw32/bin/../lib/gcc/nios2-elf/4.7.3/../../../../../H-i686-mingw32/nios2-elf/lib\libc.a(lib_a-callocr.o)
                0x00016b3c                _calloc_r
 .text          0x00016bf8       0x68 c:/altera/13.1/nios2eds/bin/gnu/h-i686-mingw32/bin/../lib/gcc/nios2-elf/4.7.3/../../../../../H-i686-mingw32/nios2-elf/lib\libc.a(lib_a-fstatr.o)
                0x00016bf8                _fstat_r
 .text          0x00016c60       0x64 c:/altera/13.1/nios2eds/bin/gnu/h-i686-mingw32/bin/../lib/gcc/nios2-elf/4.7.3/../../../../../H-i686-mingw32/nios2-elf/lib\libc.a(lib_a-isattyr.o)
                0x00016c60                _isatty_r
 .text          0x00016cc4       0x60 c:/altera/13.1/nios2eds/bin/gnu/h-i686-mingw32/bin/../lib/gcc/nios2-elf/4.7.3\libgcc.a(_muldi3.o)
                0x00016cc4                __muldi3
 .text          0x00016d24      0x5c8 c:/altera/13.1/nios2eds/bin/gnu/h-i686-mingw32/bin/../lib/gcc/nios2-elf/4.7.3\libgcc.a(_udivdi3.o)
                0x00016d24                __udivdi3
 .text          0x000172ec      0x58c c:/altera/13.1/nios2eds/bin/gnu/h-i686-mingw32/bin/../lib/gcc/nios2-elf/4.7.3\libgcc.a(_umoddi3.o)
                0x000172ec                __umoddi3
 .text          0x00017878      0x408 c:/altera/13.1/nios2eds/bin/gnu/h-i686-mingw32/bin/../lib/gcc/nios2-elf/4.7.3\libgcc.a(_addsub_df.o)
                0x00017bcc                __adddf3
                0x00017c20                __subdf3
 .text          0x00017c80      0x2e4 c:/altera/13.1/nios2eds/bin/gnu/h-i686-mingw32/bin/../lib/gcc/nios2-elf/4.7.3\libgcc.a(_mul_df.o)
                0x00017c80                __muldf3
 .text          0x00017f64      0x1b4 c:/altera/13.1/nios2eds/bin/gnu/h-i686-mingw32/bin/../lib/gcc/nios2-elf/4.7.3\libgcc.a(_div_df.o)
                0x00017f64                __divdf3
 .text          0x00018118       0x5c c:/altera/13.1/nios2eds/bin/gnu/h-i686-mingw32/bin/../lib/gcc/nios2-elf/4.7.3\libgcc.a(_eq_df.o)
                0x00018118                __eqdf2
 .text          0x00018174       0x5c c:/altera/13.1/nios2eds/bin/gnu/h-i686-mingw32/bin/../lib/gcc/nios2-elf/4.7.3\libgcc.a(_ne_df.o)
                0x00018174                __nedf2
 .text          0x000181d0       0x64 c:/altera/13.1/nios2eds/bin/gnu/h-i686-mingw32/bin/../lib/gcc/nios2-elf/4.7.3\libgcc.a(_gt_df.o)
                0x000181d0                __gtdf2
 .text          0x00018234       0x64 c:/altera/13.1/nios2eds/bin/gnu/h-i686-mingw32/bin/../lib/gcc/nios2-elf/4.7.3\libgcc.a(_ge_df.o)
                0x00018234                __gedf2
 .text          0x00018298       0x5c c:/altera/13.1/nios2eds/bin/gnu/h-i686-mingw32/bin/../lib/gcc/nios2-elf/4.7.3\libgcc.a(_lt_df.o)
                0x00018298                __ltdf2
 .text          0x000182f4       0xd4 c:/altera/13.1/nios2eds/bin/gnu/h-i686-mingw32/bin/../lib/gcc/nios2-elf/4.7.3\libgcc.a(_si_to_df.o)
                0x000182f4                __floatsidf
 .text          0x000183c8       0xd4 c:/altera/13.1/nios2eds/bin/gnu/h-i686-mingw32/bin/../lib/gcc/nios2-elf/4.7.3\libgcc.a(_df_to_si.o)
                0x000183c8                __fixdfsi
 .text          0x0001849c        0x0 c:/altera/13.1/nios2eds/bin/gnu/h-i686-mingw32/bin/../lib/gcc/nios2-elf/4.7.3\libgcc.a(_thenan_df.o)
 .text          0x0001849c      0x11c c:/altera/13.1/nios2eds/bin/gnu/h-i686-mingw32/bin/../lib/gcc/nios2-elf/4.7.3\libgcc.a(_usi_to_df.o)
                0x0001849c                __floatunsidf
 .text          0x000185b8        0x0 c:/altera/13.1/nios2eds/bin/gnu/h-i686-mingw32/bin/../lib/gcc/nios2-elf/4.7.3\libgcc.a(_clz.o)
 .text          0x000185b8       0xac c:/altera/13.1/nios2eds/bin/gnu/h-i686-mingw32/bin/../lib/gcc/nios2-elf/4.7.3\libgcc.a(_clzsi2.o)
                0x000185b8                __clzsi2
 .text          0x00018664      0x224 c:/altera/13.1/nios2eds/bin/gnu/h-i686-mingw32/bin/../lib/gcc/nios2-elf/4.7.3\libgcc.a(_pack_df.o)
                0x00018664                __pack_d
 .text          0x00018888      0x104 c:/altera/13.1/nios2eds/bin/gnu/h-i686-mingw32/bin/../lib/gcc/nios2-elf/4.7.3\libgcc.a(_unpack_df.o)
                0x00018888                __unpack_d
 .text          0x0001898c       0xd0 c:/altera/13.1/nios2eds/bin/gnu/h-i686-mingw32/bin/../lib/gcc/nios2-elf/4.7.3\libgcc.a(_fpcmp_parts_df.o)
                0x0001898c                __fpcmp_parts_d
 .text          0x00018a5c       0x44 c:/altera/13.1/nios2eds/bin/gnu/h-i686-mingw32/bin/../lib/gcc/nios2-elf/4.7.3\libgcc.a(_lshrdi3.o)
                0x00018a5c                __lshrdi3
 .text          0x00018aa0       0x44 c:/altera/13.1/nios2eds/bin/gnu/h-i686-mingw32/bin/../lib/gcc/nios2-elf/4.7.3\libgcc.a(_ashldi3.o)
                0x00018aa0                __ashldi3
 .text          0x00018ae4       0xe0 ../UcosiiBSP_for_cpu_s0/\libucosii_bsp.a(alt_close.o)
                0x00018ae4                close
 .text          0x00018bc4        0x8 ../UcosiiBSP_for_cpu_s0/\libucosii_bsp.a(alt_dev.o)
 .text          0x00018bcc        0x0 ../UcosiiBSP_for_cpu_s0/\libucosii_bsp.a(alt_errno.o)
 .text          0x00018bcc       0x20 ../UcosiiBSP_for_cpu_s0/\libucosii_bsp.a(alt_exit.o)
                0x00018bcc                _exit
 .text          0x00018bec       0x7c ../UcosiiBSP_for_cpu_s0/\libucosii_bsp.a(alt_fstat.o)
                0x00018bec                fstat
 .text          0x00018c68       0xa8 ../UcosiiBSP_for_cpu_s0/\libucosii_bsp.a(alt_irq_register.o)
                0x00018c68                alt_irq_register
 .text          0x00018d10        0x0 ../UcosiiBSP_for_cpu_s0/\libucosii_bsp.a(alt_irq_vars.o)
 .text          0x00018d10       0x8c ../UcosiiBSP_for_cpu_s0/\libucosii_bsp.a(alt_isatty.o)
                0x00018d10                isatty
 .text          0x00018d9c      0x114 ../UcosiiBSP_for_cpu_s0/\libucosii_bsp.a(alt_load.o)
                0x00018d9c                alt_load
 .text          0x00018eb0       0x84 ../UcosiiBSP_for_cpu_s0/\libucosii_bsp.a(alt_lseek.o)
                0x00018eb0                lseek
 .text          0x00018f34       0xa8 ../UcosiiBSP_for_cpu_s0/\libucosii_bsp.a(alt_main.o)
                0x00018f34                alt_main
 .text          0x00018fdc       0xec ../UcosiiBSP_for_cpu_s0/\libucosii_bsp.a(alt_read.o)
                0x00018fdc                read
 .text          0x000190c8       0x24 ../UcosiiBSP_for_cpu_s0/\libucosii_bsp.a(alt_release_fd.o)
                0x000190c8                alt_release_fd
 .text          0x000190ec       0x4c ../UcosiiBSP_for_cpu_s0/\libucosii_bsp.a(alt_sbrk.o)
                0x000190ec                sbrk
 .text          0x00019138       0xf0 ../UcosiiBSP_for_cpu_s0/\libucosii_bsp.a(alt_usleep.o)
                0x00019138                usleep
 .text          0x00019228       0xe8 ../UcosiiBSP_for_cpu_s0/\libucosii_bsp.a(alt_write.o)
                0x00019228                write
 .text          0x00019310       0xb8 ../UcosiiBSP_for_cpu_s0/\libucosii_bsp.a(alt_env_lock.o)
                0x00019310                __env_lock
                0x000193a0                __env_unlock
 .text          0x000193c8      0x108 ../UcosiiBSP_for_cpu_s0/\libucosii_bsp.a(alt_malloc_lock.o)
                0x000193c8                __malloc_lock
                0x00019478                __malloc_unlock
 .text          0x000194d0     0x1698 ../UcosiiBSP_for_cpu_s0/\libucosii_bsp.a(os_core.o)
                0x000194d0                OS_TaskIdle
                0x00019504                OS_TaskStat
                0x00019600                OSEventNameGet
                0x000196c4                OSEventNameSet
                0x0001979c                OSInit
                0x000199c8                OSIntEnter
                0x00019a08                OSIntExit
                0x00019afc                OSSchedLock
                0x00019b44                OSSchedUnlock
                0x00019c44                OSStart
                0x00019cb4                OSStatInit
                0x00019d18                OSTimeTick
                0x00019e34                OSVersion
                0x00019e3c                OS_Dummy
                0x00019e40                OS_EventTaskRdy
                0x00019f80                OS_EventTaskWait
                0x00019ff0                OS_EventTaskWaitMulti
                0x0001a080                OS_EventTaskRemove
                0x0001a0bc                OS_EventTaskRemoveMulti
                0x0001a110                OSEventPendMulti
                0x0001a64c                OS_EventWaitListInit
                0x0001a698                OS_MemClr
                0x0001a768                OS_MemCopy
                0x0001a828                OS_Sched
                0x0001a8e4                OS_StrCopy
                0x0001a920                OS_StrLen
                0x0001a948                OS_TaskStatStkChk
                0x0001a9dc                OS_TCBInit
 .text          0x0001ab68        0x4 ../UcosiiBSP_for_cpu_s0/\libucosii_bsp.a(os_dbg.o)
                0x0001ab68                OSDebugInit
 .text          0x0001ab6c      0xd6c ../UcosiiBSP_for_cpu_s0/\libucosii_bsp.a(os_flag.o)
                0x0001ab6c                OSFlagAccept
                0x0001accc                OSFlagCreate
                0x0001ad58                OSFlagDel
                0x0001af38                OSFlagNameGet
                0x0001b01c                OSFlagNameSet
                0x0001b10c                OSFlagPend
                0x0001b4c0                OSFlagPendGetFlagsRdy
                0x0001b4e8                OSFlagPost
                0x0001b7b4                OSFlagQuery
                0x0001b810                OS_FlagInit
                0x0001b898                OS_FlagUnlink
 .text          0x0001b8d8      0x44c ../UcosiiBSP_for_cpu_s0/\libucosii_bsp.a(os_mem.o)
                0x0001b8d8                OSMemCreate
                0x0001b9c8                OSMemGet
                0x0001ba34                OSMemNameGet
                0x0001baec                OSMemNameSet
                0x0001bbd0                OSMemPut
                0x0001bc30                OSMemQuery
                0x0001bc94                OS_MemInit
 .text          0x0001bd24      0xac0 ../UcosiiBSP_for_cpu_s0/\libucosii_bsp.a(os_mutex.o)
                0x0001bd24                OSMutexAccept
                0x0001be08                OSMutexCreate
                0x0001bf30                OSMutexDel
                0x0001c1c8                OSMutexPend
                0x0001c500                OSMutexPost
                0x0001c71c                OSMutexQuery
 .text          0x0001c7e4      0xb00 ../UcosiiBSP_for_cpu_s0/\libucosii_bsp.a(os_q.o)
                0x0001c7e4                OSQAccept
                0x0001c890                OSQCreate
                0x0001c990                OSQDel
                0x0001cb50                OSQFlush
                0x0001cba0                OSQPend
                0x0001cda8                OSQPendAbort
                0x0001ced4                OSQPost
                0x0001cfa8                OSQPostFront
                0x0001d078                OSQPostOpt
                0x0001d1e0                OSQQuery
                0x0001d290                OS_QInit
 .text          0x0001d2e4      0x6d8 ../UcosiiBSP_for_cpu_s0/\libucosii_bsp.a(os_sem.o)
                0x0001d2e4                OSSemAccept
                0x0001d328                OSSemCreate
                0x0001d3c4                OSSemDel
                0x0001d554                OSSemPend
                0x0001d6e8                OSSemPendAbort
                0x0001d818                OSSemPost
                0x0001d8c8                OSSemQuery
                0x0001d950                OSSemSet
 .text          0x0001d9bc      0xee0 ../UcosiiBSP_for_cpu_s0/\libucosii_bsp.a(os_task.o)
                0x0001d9bc                OSTaskChangePrio
                0x0001dc2c                OSTaskCreate
                0x0001dd30                OSTaskCreateExt
                0x0001de90                OSTaskDel
                0x0001e12c                OSTaskDelReq
                0x0001e1e0                OSTaskNameGet
                0x0001e304                OSTaskNameSet
                0x0001e444                OSTaskResume
                0x0001e558                OSTaskStkChk
                0x0001e654                OSTaskSuspend
                0x0001e79c                OSTaskQuery
                0x0001e878                OS_TaskStkClr
 .text          0x0001e89c      0x4a8 ../UcosiiBSP_for_cpu_s0/\libucosii_bsp.a(os_time.o)
                0x0001e89c                OSTimeDly
                0x0001e928                OSTimeDlyHMSM
                0x0001ebf8                OSTimeDlyResume
                0x0001ecfc                OSTimeGet
                0x0001ed20                OSTimeSet
 .text          0x0001ed44       0x74 ../UcosiiBSP_for_cpu_s0/\libucosii_bsp.a(alt_sys_init.o)
                0x0001ed44                alt_irq_init
                0x0001ed64                alt_sys_init
 .text          0x0001edb8       0x3c ../UcosiiBSP_for_cpu_s0/\libucosii_bsp.a(altera_avalon_jtag_uart_fd.o)
                0x0001edb8                altera_avalon_jtag_uart_read_fd
                0x0001edc8                altera_avalon_jtag_uart_write_fd
                0x0001edd8                altera_avalon_jtag_uart_close_fd
                0x0001ede8                altera_avalon_jtag_uart_ioctl_fd
 .text          0x0001edf4      0x350 ../UcosiiBSP_for_cpu_s0/\libucosii_bsp.a(altera_avalon_jtag_uart_init.o)
                0x0001f048                altera_avalon_jtag_uart_init
                0x0001f0fc                altera_avalon_jtag_uart_close
 .text          0x0001f144       0x74 ../UcosiiBSP_for_cpu_s0/\libucosii_bsp.a(altera_avalon_jtag_uart_ioctl.o)
                0x0001f144                altera_avalon_jtag_uart_ioctl
 .text          0x0001f1b8      0x188 ../UcosiiBSP_for_cpu_s0/\libucosii_bsp.a(altera_avalon_jtag_uart_read.o)
                0x0001f1b8                altera_avalon_jtag_uart_read
 .text          0x0001f340      0x1e4 ../UcosiiBSP_for_cpu_s0/\libucosii_bsp.a(altera_avalon_jtag_uart_write.o)
                0x0001f340                altera_avalon_jtag_uart_write
 .text          0x0001f524       0x6c ../UcosiiBSP_for_cpu_s0/\libucosii_bsp.a(altera_avalon_timer_sc.o)
                0x0001f560                alt_avalon_timer_sc_init
 .text          0x0001f590       0x94 ../UcosiiBSP_for_cpu_s0/\libucosii_bsp.a(alt_alarm_start.o)
                0x0001f590                alt_alarm_start
 .text          0x0001f624       0x88 ../UcosiiBSP_for_cpu_s0/\libucosii_bsp.a(alt_busy_sleep.o)
                0x0001f624                alt_busy_sleep
 .text          0x0001f6ac        0x4 ../UcosiiBSP_for_cpu_s0/\libucosii_bsp.a(alt_dcache_flush_all.o)
                0x0001f6ac                alt_dcache_flush_all
 .text          0x0001f6b0       0x6c ../UcosiiBSP_for_cpu_s0/\libucosii_bsp.a(alt_dev_llist_insert.o)
                0x0001f6b0                alt_dev_llist_insert
 .text          0x0001f71c       0x64 ../UcosiiBSP_for_cpu_s0/\libucosii_bsp.a(alt_do_ctors.o)
                0x0001f71c                _do_ctors
 .text          0x0001f780       0x64 ../UcosiiBSP_for_cpu_s0/\libucosii_bsp.a(alt_do_dtors.o)
                0x0001f780                _do_dtors
 .text          0x0001f7e4        0xc ../UcosiiBSP_for_cpu_s0/\libucosii_bsp.a(alt_icache_flush_all.o)
                0x0001f7e4                alt_icache_flush_all
 .text          0x0001f7f0      0x104 ../UcosiiBSP_for_cpu_s0/\libucosii_bsp.a(alt_io_redirect.o)
                0x0001f7f0                alt_io_redirect
 .text          0x0001f8f4        0x0 ../UcosiiBSP_for_cpu_s0/\libucosii_bsp.a(alt_irq_entry.o)
 .text          0x0001f8f4        0x0 ../UcosiiBSP_for_cpu_s0/\libucosii_bsp.a(alt_irq_handler.o)
 .text          0x0001f8f4      0x17c ../UcosiiBSP_for_cpu_s0/\libucosii_bsp.a(alt_open.o)
                0x0001f8f4                open
 .text          0x0001fa70      0x128 ../UcosiiBSP_for_cpu_s0/\libucosii_bsp.a(alt_tick.o)
                0x0001fa70                alt_alarm_stop
                0x0001faa4                alt_tick
 .text          0x0001fb98        0x8 ../UcosiiBSP_for_cpu_s0/\libucosii_bsp.a(altera_nios2_qsys_irq.o)
                0x0001fb98                altera_nios2_qsys_irq_init
 .text          0x0001fba0       0xd0 ../UcosiiBSP_for_cpu_s0/\libucosii_bsp.a(os_cpu_a.o)
                0x0001fba0                OSCtxSw
                0x0001fba0                OSIntCtxSw
                0x0001fc2c                OSStartHighRdy
                0x0001fc4c                OSStartTsk
 .text          0x0001fc70      0x1f0 ../UcosiiBSP_for_cpu_s0/\libucosii_bsp.a(os_cpu_c.o)
                0x0001fc70                OSTaskStkInit
                0x0001fe3c                OSTaskCreateHook
                0x0001fe40                OSTaskDelHook
                0x0001fe44                OSTaskSwHook
                0x0001fe48                OSTaskStatHook
                0x0001fe4c                OSTimeTickHook
                0x0001fe50                OSInitHookBegin
                0x0001fe54                OSInitHookEnd
                0x0001fe58                OSTaskIdleHook
                0x0001fe5c                OSTCBInitHook
 .text          0x0001fe60        0x0 ../UcosiiBSP_for_cpu_s0/\libucosii_bsp.a(alt_exception_entry.o)
 .text          0x0001fe60       0x94 ../UcosiiBSP_for_cpu_s0/\libucosii_bsp.a(alt_find_dev.o)
                0x0001fe60                alt_find_dev
 .text          0x0001fef4       0xac ../UcosiiBSP_for_cpu_s0/\libucosii_bsp.a(alt_find_file.o)
                0x0001fef4                alt_find_file
 .text          0x0001ffa0       0xe4 ../UcosiiBSP_for_cpu_s0/\libucosii_bsp.a(alt_get_fd.o)
                0x0001ffa0                alt_get_fd
 .text          0x00020084       0x50 ../UcosiiBSP_for_cpu_s0/\libucosii_bsp.a(alt_icache_flush.o)
                0x00020084                alt_icache_flush
 .text          0x000200d4       0x14 c:/altera/13.1/nios2eds/bin/gnu/h-i686-mingw32/bin/../lib/gcc/nios2-elf/4.7.3/../../../../../H-i686-mingw32/nios2-elf/lib\libc.a(lib_a-atexit.o)
                0x000200d4                atexit
 .text          0x000200e8       0x7c c:/altera/13.1/nios2eds/bin/gnu/h-i686-mingw32/bin/../lib/gcc/nios2-elf/4.7.3/../../../../../H-i686-mingw32/nios2-elf/lib\libc.a(lib_a-memcmp.o)
                0x000200e8                memcmp
 .text          0x00020164      0x130 c:/altera/13.1/nios2eds/bin/gnu/h-i686-mingw32/bin/../lib/gcc/nios2-elf/4.7.3/../../../../../H-i686-mingw32/nios2-elf/lib\libc.a(lib_a-__atexit.o)
                0x00020164                __register_exitproc
 .text          0x00020294       0x84 c:/altera/13.1/nios2eds/bin/gnu/h-i686-mingw32/bin/../lib/gcc/nios2-elf/4.7.3\libgcc.a(_fixunsdfsi.o)
                0x00020294                __fixunsdfsi
 *(.gnu.warning.*)
 *(.fini)
                0x00020318                PROVIDE (__etext, ABSOLUTE (.))
                0x00020318                PROVIDE (_etext, ABSOLUTE (.))
                0x00020318                PROVIDE (etext, ABSOLUTE (.))
 *(.eh_frame_hdr)
                0x00020318                . = ALIGN (0x4)
                0x00020318                PROVIDE (__preinit_array_start, ABSOLUTE (.))
 *(.preinit_array)
                0x00020318                PROVIDE (__preinit_array_end, ABSOLUTE (.))
                0x00020318                PROVIDE (__init_array_start, ABSOLUTE (.))
 *(.init_array)
                0x00020318                PROVIDE (__init_array_end, ABSOLUTE (.))
                0x00020318                PROVIDE (__fini_array_start, ABSOLUTE (.))
 *(.fini_array)
                0x00020318                PROVIDE (__fini_array_end, ABSOLUTE (.))
 *(.eh_frame)
 *(.gcc_except_table .gcc_except_table.*)
 *(.dynamic)
                0x00020318                PROVIDE (__CTOR_LIST__, ABSOLUTE (.))
 *(.ctors)
 *(SORT(.ctors.*))
                0x00020318                PROVIDE (__CTOR_END__, ABSOLUTE (.))
                0x00020318                PROVIDE (__DTOR_LIST__, ABSOLUTE (.))
 *(.dtors)
 *(SORT(.dtors.*))
                0x00020318                PROVIDE (__DTOR_END__, ABSOLUTE (.))
 *(.jcr)
                0x00020318                . = ALIGN (0x4)

.rodata         0x00020318     0x1dd4
                0x00020318                PROVIDE (__ram_rodata_start, ABSOLUTE (.))
                0x00020318                . = ALIGN (0x4)
 *(.rodata .rodata.* .gnu.linkonce.r.*)
 .rodata.str1.4
                0x00020318      0x421 obj/default/MCAPI_Top/mcapi.o
                                0x424 (size before relaxing)
 *fill*         0x00020739        0x3 
 .rodata.str1.4
                0x0002073c      0x838 obj/default/MCAPI_Transport/mcapi_trans_nios.o
 .rodata.str1.4
                0x00020f74      0x359 obj/default/NS_Layer/NS_layer.o
                                0x35c (size before relaxing)
 *fill*         0x000212cd        0x3 
 .rodata        0x000212d0       0x6c obj/default/NS_Layer/NS_layer.o
 .rodata.str1.4
                0x0002133c      0x27a obj/default/PH_FifoDriver_UCOSII/PH_layer.o
                                0x27c (size before relaxing)
 *fill*         0x000215b6        0x2 
 .rodata        0x000215b8       0x6c obj/default/PH_FifoDriver_UCOSII/PH_layer.o
 .rodata.str1.4
                0x00021624      0x695 obj/default/SysTestNode1.o
                                0x698 (size before relaxing)
 *fill*         0x00021cb9        0x3 
 .rodata.str1.4
                0x00021cbc        0x2 c:/altera/13.1/nios2eds/bin/gnu/h-i686-mingw32/bin/../lib/gcc/nios2-elf/4.7.3/../../../../../H-i686-mingw32/nios2-elf/lib\libc.a(lib_a-impure.o)
                                  0x4 (size before relaxing)
 .rodata.str1.4
                0x00000000        0x2 c:/altera/13.1/nios2eds/bin/gnu/h-i686-mingw32/bin/../lib/gcc/nios2-elf/4.7.3/../../../../../H-i686-mingw32/nios2-elf/lib\libc.a(lib_a-puts.o)
                                  0x4 (size before relaxing)
 *fill*         0x00021cbe        0x2 
 .rodata.str1.4
                0x00021cc0       0x3f c:/altera/13.1/nios2eds/bin/gnu/h-i686-mingw32/bin/../lib/gcc/nios2-elf/4.7.3/../../../../../H-i686-mingw32/nios2-elf/lib\libc.a(lib_a-vfprintf.o)
                                 0x44 (size before relaxing)
 .rodata        0x00021cff       0x20 c:/altera/13.1/nios2eds/bin/gnu/h-i686-mingw32/bin/../lib/gcc/nios2-elf/4.7.3/../../../../../H-i686-mingw32/nios2-elf/lib\libc.a(lib_a-vfprintf.o)
 *fill*         0x00021d1f        0x1 
 .rodata.str1.4
                0x00021d20       0x10 c:/altera/13.1/nios2eds/bin/gnu/h-i686-mingw32/bin/../lib/gcc/nios2-elf/4.7.3/../../../../../H-i686-mingw32/nios2-elf/lib\libc.a(lib_a-dtoa.o)
                                 0x14 (size before relaxing)
 .rodata.str1.4
                0x00021d30        0xe c:/altera/13.1/nios2eds/bin/gnu/h-i686-mingw32/bin/../lib/gcc/nios2-elf/4.7.3/../../../../../H-i686-mingw32/nios2-elf/lib\libc.a(lib_a-locale.o)
                                 0x18 (size before relaxing)
 *fill*         0x00021d3e        0x2 
 .rodata        0x00021d40       0x30 c:/altera/13.1/nios2eds/bin/gnu/h-i686-mingw32/bin/../lib/gcc/nios2-elf/4.7.3/../../../../../H-i686-mingw32/nios2-elf/lib\libc.a(lib_a-locale.o)
 .rodata        0x00021d70      0x124 c:/altera/13.1/nios2eds/bin/gnu/h-i686-mingw32/bin/../lib/gcc/nios2-elf/4.7.3/../../../../../H-i686-mingw32/nios2-elf/lib\libc.a(lib_a-mprec.o)
                0x00021d70                __mprec_tinytens
                0x00021d98                __mprec_bigtens
                0x00021dc0                __mprec_tens
 .rodata        0x00021e94       0x14 c:/altera/13.1/nios2eds/bin/gnu/h-i686-mingw32/bin/../lib/gcc/nios2-elf/4.7.3\libgcc.a(_thenan_df.o)
                0x00021e94                __thenan_df
 .rodata        0x00021ea8      0x100 c:/altera/13.1/nios2eds/bin/gnu/h-i686-mingw32/bin/../lib/gcc/nios2-elf/4.7.3\libgcc.a(_clz.o)
                0x00021ea8                __clz_tab
 .rodata.str1.4
                0x00021fa8        0xa ../UcosiiBSP_for_cpu_s0/\libucosii_bsp.a(alt_dev.o)
                                  0xc (size before relaxing)
 *fill*         0x00021fb2        0x2 
 .rodata.str1.4
                0x00021fb4       0x16 ../UcosiiBSP_for_cpu_s0/\libucosii_bsp.a(alt_main.o)
                                 0x18 (size before relaxing)
 *fill*         0x00021fca        0x2 
 .rodata.str1.4
                0x00021fcc       0x20 ../UcosiiBSP_for_cpu_s0/\libucosii_bsp.a(os_core.o)
 .rodata        0x00021fec      0x100 ../UcosiiBSP_for_cpu_s0/\libucosii_bsp.a(os_core.o)
                0x00021fec                OSUnMapTbl
 .rodata.str1.4
                0x00000000       0x18 ../UcosiiBSP_for_cpu_s0/\libucosii_bsp.a(alt_sys_init.o)
 .rodata.str1.4
                0x00000000        0x4 ../UcosiiBSP_for_cpu_s0/\libucosii_bsp.a(os_cpu_c.o)
 *(.rodata1)
                0x000220ec                . = ALIGN (0x4)
                0x000220ec                PROVIDE (__ram_rodata_end, ABSOLUTE (.))
                0x00020318                PROVIDE (__flash_rodata_start, LOADADDR (.rodata))

.rwdata         0x000220ec     0x1bec load address 0x00023cd8
                0x000220ec                PROVIDE (__ram_rwdata_start, ABSOLUTE (.))
                0x000220ec                . = ALIGN (0x4)
 *(.got.plt)
 *(.got)
 *(.data1)
 *(.data .data.* .gnu.linkonce.d.*)
 .data          0x000220ec        0x0 ../UcosiiBSP_for_cpu_s0//obj/HAL/src/crt0.o
 .data          0x000220ec        0x0 obj/default/MCAPI_Top/mcapi.o
 .data          0x000220ec        0x0 obj/default/MCAPI_Transport/mcapi_trans_nios.o
 .data          0x000220ec        0x0 obj/default/NS_Layer/NS_layer.o
 .data          0x000220ec        0x0 obj/default/PH_FifoDriver_UCOSII/PH_layer.o
 .data          0x000220ec        0x0 obj/default/SysTestNode1.o
 .data          0x000220ec        0x0 obj/default/UTILS/util_packet_handling.o
 .data          0x000220ec        0x0 c:/altera/13.1/nios2eds/bin/gnu/h-i686-mingw32/bin/../lib/gcc/nios2-elf/4.7.3\libgcc.a(lib2-divmod.o)
 .data          0x000220ec      0x100 c:/altera/13.1/nios2eds/bin/gnu/h-i686-mingw32/bin/../lib/gcc/nios2-elf/4.7.3\libgcc.a(lib2-divtable.o)
                0x000220ec                __divsi3_table
 .data          0x000221ec        0x0 c:/altera/13.1/nios2eds/bin/gnu/h-i686-mingw32/bin/../lib/gcc/nios2-elf/4.7.3/../../../../../H-i686-mingw32/nios2-elf/lib\libc.a(lib_a-exit.o)
 .data          0x000221ec        0x0 c:/altera/13.1/nios2eds/bin/gnu/h-i686-mingw32/bin/../lib/gcc/nios2-elf/4.7.3/../../../../../H-i686-mingw32/nios2-elf/lib\libc.a(lib_a-fflush.o)
 .data          0x000221ec        0x0 c:/altera/13.1/nios2eds/bin/gnu/h-i686-mingw32/bin/../lib/gcc/nios2-elf/4.7.3/../../../../../H-i686-mingw32/nios2-elf/lib\libc.a(lib_a-findfp.o)
 .data          0x000221ec        0x0 c:/altera/13.1/nios2eds/bin/gnu/h-i686-mingw32/bin/../lib/gcc/nios2-elf/4.7.3/../../../../../H-i686-mingw32/nios2-elf/lib\libc.a(lib_a-fprintf.o)
 .data          0x000221ec        0x0 c:/altera/13.1/nios2eds/bin/gnu/h-i686-mingw32/bin/../lib/gcc/nios2-elf/4.7.3/../../../../../H-i686-mingw32/nios2-elf/lib\libc.a(lib_a-fwalk.o)
 .data          0x000221ec        0x0 c:/altera/13.1/nios2eds/bin/gnu/h-i686-mingw32/bin/../lib/gcc/nios2-elf/4.7.3/../../../../../H-i686-mingw32/nios2-elf/lib\libc.a(lib_a-fwrite.o)
 .data          0x000221ec      0x400 c:/altera/13.1/nios2eds/bin/gnu/h-i686-mingw32/bin/../lib/gcc/nios2-elf/4.7.3/../../../../../H-i686-mingw32/nios2-elf/lib\libc.a(lib_a-impure.o)
 .data          0x000225ec      0x408 c:/altera/13.1/nios2eds/bin/gnu/h-i686-mingw32/bin/../lib/gcc/nios2-elf/4.7.3/../../../../../H-i686-mingw32/nios2-elf/lib\libc.a(lib_a-mallocr.o)
                0x000225ec                __malloc_av_
 .data          0x000229f4        0x0 c:/altera/13.1/nios2eds/bin/gnu/h-i686-mingw32/bin/../lib/gcc/nios2-elf/4.7.3/../../../../../H-i686-mingw32/nios2-elf/lib\libc.a(lib_a-memcpy.o)
 .data          0x000229f4        0x0 c:/altera/13.1/nios2eds/bin/gnu/h-i686-mingw32/bin/../lib/gcc/nios2-elf/4.7.3/../../../../../H-i686-mingw32/nios2-elf/lib\libc.a(lib_a-memset.o)
 .data          0x000229f4        0x0 c:/altera/13.1/nios2eds/bin/gnu/h-i686-mingw32/bin/../lib/gcc/nios2-elf/4.7.3/../../../../../H-i686-mingw32/nios2-elf/lib\libc.a(lib_a-printf.o)
 .data          0x000229f4        0x0 c:/altera/13.1/nios2eds/bin/gnu/h-i686-mingw32/bin/../lib/gcc/nios2-elf/4.7.3/../../../../../H-i686-mingw32/nios2-elf/lib\libc.a(lib_a-puts.o)
 .data          0x000229f4        0x0 c:/altera/13.1/nios2eds/bin/gnu/h-i686-mingw32/bin/../lib/gcc/nios2-elf/4.7.3/../../../../../H-i686-mingw32/nios2-elf/lib\libc.a(lib_a-rand.o)
 .data          0x000229f4        0x0 c:/altera/13.1/nios2eds/bin/gnu/h-i686-mingw32/bin/../lib/gcc/nios2-elf/4.7.3/../../../../../H-i686-mingw32/nios2-elf/lib\libc.a(lib_a-sbrkr.o)
 .data          0x000229f4        0x0 c:/altera/13.1/nios2eds/bin/gnu/h-i686-mingw32/bin/../lib/gcc/nios2-elf/4.7.3/../../../../../H-i686-mingw32/nios2-elf/lib\libc.a(lib_a-stdio.o)
 .data          0x000229f4        0x0 c:/altera/13.1/nios2eds/bin/gnu/h-i686-mingw32/bin/../lib/gcc/nios2-elf/4.7.3/../../../../../H-i686-mingw32/nios2-elf/lib\libc.a(lib_a-strlen.o)
 .data          0x000229f4        0x0 c:/altera/13.1/nios2eds/bin/gnu/h-i686-mingw32/bin/../lib/gcc/nios2-elf/4.7.3/../../../../../H-i686-mingw32/nios2-elf/lib\libc.a(lib_a-vfprintf.o)
 .data          0x000229f4        0x0 c:/altera/13.1/nios2eds/bin/gnu/h-i686-mingw32/bin/../lib/gcc/nios2-elf/4.7.3/../../../../../H-i686-mingw32/nios2-elf/lib\libc.a(lib_a-writer.o)
 .data          0x000229f4        0x0 c:/altera/13.1/nios2eds/bin/gnu/h-i686-mingw32/bin/../lib/gcc/nios2-elf/4.7.3/../../../../../H-i686-mingw32/nios2-elf/lib\libc.a(lib_a-wsetup.o)
 .data          0x000229f4        0x0 c:/altera/13.1/nios2eds/bin/gnu/h-i686-mingw32/bin/../lib/gcc/nios2-elf/4.7.3/../../../../../H-i686-mingw32/nios2-elf/lib\libc.a(lib_a-__call_atexit.o)
 .data          0x000229f4        0x0 c:/altera/13.1/nios2eds/bin/gnu/h-i686-mingw32/bin/../lib/gcc/nios2-elf/4.7.3/../../../../../H-i686-mingw32/nios2-elf/lib\libc.a(lib_a-closer.o)
 .data          0x000229f4        0x0 c:/altera/13.1/nios2eds/bin/gnu/h-i686-mingw32/bin/../lib/gcc/nios2-elf/4.7.3/../../../../../H-i686-mingw32/nios2-elf/lib\libc.a(lib_a-dtoa.o)
 .data          0x000229f4        0x0 c:/altera/13.1/nios2eds/bin/gnu/h-i686-mingw32/bin/../lib/gcc/nios2-elf/4.7.3/../../../../../H-i686-mingw32/nios2-elf/lib\libc.a(lib_a-fclose.o)
 .data          0x000229f4        0x0 c:/altera/13.1/nios2eds/bin/gnu/h-i686-mingw32/bin/../lib/gcc/nios2-elf/4.7.3/../../../../../H-i686-mingw32/nios2-elf/lib\libc.a(lib_a-freer.o)
 .data          0x000229f4        0x0 c:/altera/13.1/nios2eds/bin/gnu/h-i686-mingw32/bin/../lib/gcc/nios2-elf/4.7.3/../../../../../H-i686-mingw32/nios2-elf/lib\libc.a(lib_a-fvwrite.o)
 .data          0x000229f4        0x0 c:/altera/13.1/nios2eds/bin/gnu/h-i686-mingw32/bin/../lib/gcc/nios2-elf/4.7.3/../../../../../H-i686-mingw32/nios2-elf/lib\libc.a(lib_a-int_errno.o)
 .data          0x000229f4        0xc c:/altera/13.1/nios2eds/bin/gnu/h-i686-mingw32/bin/../lib/gcc/nios2-elf/4.7.3/../../../../../H-i686-mingw32/nios2-elf/lib\libc.a(lib_a-locale.o)
                0x000229f4                __lc_ctype
 .data          0x00022a00        0x0 c:/altera/13.1/nios2eds/bin/gnu/h-i686-mingw32/bin/../lib/gcc/nios2-elf/4.7.3/../../../../../H-i686-mingw32/nios2-elf/lib\libc.a(lib_a-lseekr.o)
 .data          0x00022a00        0x0 c:/altera/13.1/nios2eds/bin/gnu/h-i686-mingw32/bin/../lib/gcc/nios2-elf/4.7.3/../../../../../H-i686-mingw32/nios2-elf/lib\libc.a(lib_a-makebuf.o)
 .data          0x00022a00        0x0 c:/altera/13.1/nios2eds/bin/gnu/h-i686-mingw32/bin/../lib/gcc/nios2-elf/4.7.3/../../../../../H-i686-mingw32/nios2-elf/lib\libc.a(lib_a-memchr.o)
 .data          0x00022a00        0x0 c:/altera/13.1/nios2eds/bin/gnu/h-i686-mingw32/bin/../lib/gcc/nios2-elf/4.7.3/../../../../../H-i686-mingw32/nios2-elf/lib\libc.a(lib_a-memmove.o)
 .data          0x00022a00        0x0 c:/altera/13.1/nios2eds/bin/gnu/h-i686-mingw32/bin/../lib/gcc/nios2-elf/4.7.3/../../../../../H-i686-mingw32/nios2-elf/lib\libc.a(lib_a-mprec.o)
 .data          0x00022a00        0x0 c:/altera/13.1/nios2eds/bin/gnu/h-i686-mingw32/bin/../lib/gcc/nios2-elf/4.7.3/../../../../../H-i686-mingw32/nios2-elf/lib\libc.a(lib_a-readr.o)
 .data          0x00022a00        0x0 c:/altera/13.1/nios2eds/bin/gnu/h-i686-mingw32/bin/../lib/gcc/nios2-elf/4.7.3/../../../../../H-i686-mingw32/nios2-elf/lib\libc.a(lib_a-reallocr.o)
 .data          0x00022a00        0x0 c:/altera/13.1/nios2eds/bin/gnu/h-i686-mingw32/bin/../lib/gcc/nios2-elf/4.7.3/../../../../../H-i686-mingw32/nios2-elf/lib\libc.a(lib_a-s_isinfd.o)
 .data          0x00022a00        0x0 c:/altera/13.1/nios2eds/bin/gnu/h-i686-mingw32/bin/../lib/gcc/nios2-elf/4.7.3/../../../../../H-i686-mingw32/nios2-elf/lib\libc.a(lib_a-s_isnand.o)
 .data          0x00022a00        0x0 c:/altera/13.1/nios2eds/bin/gnu/h-i686-mingw32/bin/../lib/gcc/nios2-elf/4.7.3/../../../../../H-i686-mingw32/nios2-elf/lib\libc.a(lib_a-strcmp.o)
 .data          0x00022a00        0x0 c:/altera/13.1/nios2eds/bin/gnu/h-i686-mingw32/bin/../lib/gcc/nios2-elf/4.7.3/../../../../../H-i686-mingw32/nios2-elf/lib\libc.a(lib_a-callocr.o)
 .data          0x00022a00        0x0 c:/altera/13.1/nios2eds/bin/gnu/h-i686-mingw32/bin/../lib/gcc/nios2-elf/4.7.3/../../../../../H-i686-mingw32/nios2-elf/lib\libc.a(lib_a-fstatr.o)
 .data          0x00022a00        0x0 c:/altera/13.1/nios2eds/bin/gnu/h-i686-mingw32/bin/../lib/gcc/nios2-elf/4.7.3/../../../../../H-i686-mingw32/nios2-elf/lib\libc.a(lib_a-isattyr.o)
 .data          0x00022a00        0x0 c:/altera/13.1/nios2eds/bin/gnu/h-i686-mingw32/bin/../lib/gcc/nios2-elf/4.7.3\libgcc.a(_muldi3.o)
 .data          0x00022a00        0x0 c:/altera/13.1/nios2eds/bin/gnu/h-i686-mingw32/bin/../lib/gcc/nios2-elf/4.7.3\libgcc.a(_udivdi3.o)
 .data          0x00022a00        0x0 c:/altera/13.1/nios2eds/bin/gnu/h-i686-mingw32/bin/../lib/gcc/nios2-elf/4.7.3\libgcc.a(_umoddi3.o)
 .data          0x00022a00        0x0 c:/altera/13.1/nios2eds/bin/gnu/h-i686-mingw32/bin/../lib/gcc/nios2-elf/4.7.3\libgcc.a(_addsub_df.o)
 .data          0x00022a00        0x0 c:/altera/13.1/nios2eds/bin/gnu/h-i686-mingw32/bin/../lib/gcc/nios2-elf/4.7.3\libgcc.a(_mul_df.o)
 .data          0x00022a00        0x0 c:/altera/13.1/nios2eds/bin/gnu/h-i686-mingw32/bin/../lib/gcc/nios2-elf/4.7.3\libgcc.a(_div_df.o)
 .data          0x00022a00        0x0 c:/altera/13.1/nios2eds/bin/gnu/h-i686-mingw32/bin/../lib/gcc/nios2-elf/4.7.3\libgcc.a(_eq_df.o)
 .data          0x00022a00        0x0 c:/altera/13.1/nios2eds/bin/gnu/h-i686-mingw32/bin/../lib/gcc/nios2-elf/4.7.3\libgcc.a(_ne_df.o)
 .data          0x00022a00        0x0 c:/altera/13.1/nios2eds/bin/gnu/h-i686-mingw32/bin/../lib/gcc/nios2-elf/4.7.3\libgcc.a(_gt_df.o)
 .data          0x00022a00        0x0 c:/altera/13.1/nios2eds/bin/gnu/h-i686-mingw32/bin/../lib/gcc/nios2-elf/4.7.3\libgcc.a(_ge_df.o)
 .data          0x00022a00        0x0 c:/altera/13.1/nios2eds/bin/gnu/h-i686-mingw32/bin/../lib/gcc/nios2-elf/4.7.3\libgcc.a(_lt_df.o)
 .data          0x00022a00        0x0 c:/altera/13.1/nios2eds/bin/gnu/h-i686-mingw32/bin/../lib/gcc/nios2-elf/4.7.3\libgcc.a(_si_to_df.o)
 .data          0x00022a00        0x0 c:/altera/13.1/nios2eds/bin/gnu/h-i686-mingw32/bin/../lib/gcc/nios2-elf/4.7.3\libgcc.a(_df_to_si.o)
 .data          0x00022a00        0x0 c:/altera/13.1/nios2eds/bin/gnu/h-i686-mingw32/bin/../lib/gcc/nios2-elf/4.7.3\libgcc.a(_thenan_df.o)
 .data          0x00022a00        0x0 c:/altera/13.1/nios2eds/bin/gnu/h-i686-mingw32/bin/../lib/gcc/nios2-elf/4.7.3\libgcc.a(_usi_to_df.o)
 .data          0x00022a00        0x0 c:/altera/13.1/nios2eds/bin/gnu/h-i686-mingw32/bin/../lib/gcc/nios2-elf/4.7.3\libgcc.a(_clz.o)
 .data          0x00022a00        0x0 c:/altera/13.1/nios2eds/bin/gnu/h-i686-mingw32/bin/../lib/gcc/nios2-elf/4.7.3\libgcc.a(_clzsi2.o)
 .data          0x00022a00        0x0 c:/altera/13.1/nios2eds/bin/gnu/h-i686-mingw32/bin/../lib/gcc/nios2-elf/4.7.3\libgcc.a(_pack_df.o)
 .data          0x00022a00        0x0 c:/altera/13.1/nios2eds/bin/gnu/h-i686-mingw32/bin/../lib/gcc/nios2-elf/4.7.3\libgcc.a(_unpack_df.o)
 .data          0x00022a00        0x0 c:/altera/13.1/nios2eds/bin/gnu/h-i686-mingw32/bin/../lib/gcc/nios2-elf/4.7.3\libgcc.a(_fpcmp_parts_df.o)
 .data          0x00022a00        0x0 c:/altera/13.1/nios2eds/bin/gnu/h-i686-mingw32/bin/../lib/gcc/nios2-elf/4.7.3\libgcc.a(_lshrdi3.o)
 .data          0x00022a00        0x0 c:/altera/13.1/nios2eds/bin/gnu/h-i686-mingw32/bin/../lib/gcc/nios2-elf/4.7.3\libgcc.a(_ashldi3.o)
 .data          0x00022a00        0x0 ../UcosiiBSP_for_cpu_s0/\libucosii_bsp.a(alt_close.o)
 .data          0x00022a00      0x1a8 ../UcosiiBSP_for_cpu_s0/\libucosii_bsp.a(alt_dev.o)
                0x00022a00                alt_fd_list
                0x00022b80                alt_dev_null
 .data          0x00022ba8        0x0 ../UcosiiBSP_for_cpu_s0/\libucosii_bsp.a(alt_errno.o)
 .data          0x00022ba8        0x0 ../UcosiiBSP_for_cpu_s0/\libucosii_bsp.a(alt_exit.o)
 .data          0x00022ba8        0x0 ../UcosiiBSP_for_cpu_s0/\libucosii_bsp.a(alt_fstat.o)
 .data          0x00022ba8        0x0 ../UcosiiBSP_for_cpu_s0/\libucosii_bsp.a(alt_irq_register.o)
 .data          0x00022ba8        0x0 ../UcosiiBSP_for_cpu_s0/\libucosii_bsp.a(alt_irq_vars.o)
 .data          0x00022ba8        0x0 ../UcosiiBSP_for_cpu_s0/\libucosii_bsp.a(alt_isatty.o)
 .data          0x00022ba8        0x0 ../UcosiiBSP_for_cpu_s0/\libucosii_bsp.a(alt_load.o)
 .data          0x00022ba8        0x0 ../UcosiiBSP_for_cpu_s0/\libucosii_bsp.a(alt_lseek.o)
 .data          0x00022ba8        0x0 ../UcosiiBSP_for_cpu_s0/\libucosii_bsp.a(alt_main.o)
 .data          0x00022ba8        0x0 ../UcosiiBSP_for_cpu_s0/\libucosii_bsp.a(alt_read.o)
 .data          0x00022ba8        0x0 ../UcosiiBSP_for_cpu_s0/\libucosii_bsp.a(alt_release_fd.o)
 .data          0x00022ba8        0x0 ../UcosiiBSP_for_cpu_s0/\libucosii_bsp.a(alt_sbrk.o)
 .data          0x00022ba8        0x0 ../UcosiiBSP_for_cpu_s0/\libucosii_bsp.a(alt_usleep.o)
 .data          0x00022ba8        0x0 ../UcosiiBSP_for_cpu_s0/\libucosii_bsp.a(alt_write.o)
 .data          0x00022ba8        0x0 ../UcosiiBSP_for_cpu_s0/\libucosii_bsp.a(alt_env_lock.o)
 .data          0x00022ba8        0x0 ../UcosiiBSP_for_cpu_s0/\libucosii_bsp.a(alt_malloc_lock.o)
 .data          0x00022ba8        0x0 ../UcosiiBSP_for_cpu_s0/\libucosii_bsp.a(os_core.o)
 .data          0x00022ba8        0x0 ../UcosiiBSP_for_cpu_s0/\libucosii_bsp.a(os_dbg.o)
 .data          0x00022ba8        0x0 ../UcosiiBSP_for_cpu_s0/\libucosii_bsp.a(os_flag.o)
 .data          0x00022ba8        0x0 ../UcosiiBSP_for_cpu_s0/\libucosii_bsp.a(os_mem.o)
 .data          0x00022ba8        0x0 ../UcosiiBSP_for_cpu_s0/\libucosii_bsp.a(os_mutex.o)
 .data          0x00022ba8        0x0 ../UcosiiBSP_for_cpu_s0/\libucosii_bsp.a(os_q.o)
 .data          0x00022ba8        0x0 ../UcosiiBSP_for_cpu_s0/\libucosii_bsp.a(os_sem.o)
 .data          0x00022ba8        0x0 ../UcosiiBSP_for_cpu_s0/\libucosii_bsp.a(os_task.o)
 .data          0x00022ba8        0x0 ../UcosiiBSP_for_cpu_s0/\libucosii_bsp.a(os_time.o)
 .data          0x00022ba8     0x106c ../UcosiiBSP_for_cpu_s0/\libucosii_bsp.a(alt_sys_init.o)
 .data          0x00023c14        0x0 ../UcosiiBSP_for_cpu_s0/\libucosii_bsp.a(altera_avalon_jtag_uart_fd.o)
 .data          0x00023c14        0x0 ../UcosiiBSP_for_cpu_s0/\libucosii_bsp.a(altera_avalon_jtag_uart_init.o)
 .data          0x00023c14        0x0 ../UcosiiBSP_for_cpu_s0/\libucosii_bsp.a(altera_avalon_jtag_uart_ioctl.o)
 .data          0x00023c14        0x0 ../UcosiiBSP_for_cpu_s0/\libucosii_bsp.a(altera_avalon_jtag_uart_read.o)
 .data          0x00023c14        0x0 ../UcosiiBSP_for_cpu_s0/\libucosii_bsp.a(altera_avalon_jtag_uart_write.o)
 .data          0x00023c14        0x0 ../UcosiiBSP_for_cpu_s0/\libucosii_bsp.a(altera_avalon_timer_sc.o)
 .data          0x00023c14        0x0 ../UcosiiBSP_for_cpu_s0/\libucosii_bsp.a(alt_alarm_start.o)
 .data          0x00023c14        0x0 ../UcosiiBSP_for_cpu_s0/\libucosii_bsp.a(alt_busy_sleep.o)
 .data          0x00023c14        0x0 ../UcosiiBSP_for_cpu_s0/\libucosii_bsp.a(alt_dcache_flush_all.o)
 .data          0x00023c14        0x0 ../UcosiiBSP_for_cpu_s0/\libucosii_bsp.a(alt_dev_llist_insert.o)
 .data          0x00023c14        0x0 ../UcosiiBSP_for_cpu_s0/\libucosii_bsp.a(alt_do_ctors.o)
 .data          0x00023c14        0x0 ../UcosiiBSP_for_cpu_s0/\libucosii_bsp.a(alt_do_dtors.o)
 .data          0x00023c14        0x0 ../UcosiiBSP_for_cpu_s0/\libucosii_bsp.a(alt_icache_flush_all.o)
 .data          0x00023c14        0x0 ../UcosiiBSP_for_cpu_s0/\libucosii_bsp.a(alt_io_redirect.o)
 .data          0x00023c14        0x0 ../UcosiiBSP_for_cpu_s0/\libucosii_bsp.a(alt_irq_entry.o)
 .data          0x00023c14        0x0 ../UcosiiBSP_for_cpu_s0/\libucosii_bsp.a(alt_irq_handler.o)
 .data          0x00023c14        0x0 ../UcosiiBSP_for_cpu_s0/\libucosii_bsp.a(alt_open.o)
 .data          0x00023c14        0x0 ../UcosiiBSP_for_cpu_s0/\libucosii_bsp.a(alt_tick.o)
 .data          0x00023c14        0x0 ../UcosiiBSP_for_cpu_s0/\libucosii_bsp.a(altera_nios2_qsys_irq.o)
 .data          0x00023c14        0x0 ../UcosiiBSP_for_cpu_s0/\libucosii_bsp.a(os_cpu_a.o)
 .data          0x00023c14        0x0 ../UcosiiBSP_for_cpu_s0/\libucosii_bsp.a(os_cpu_c.o)
 .data          0x00023c14        0x0 ../UcosiiBSP_for_cpu_s0/\libucosii_bsp.a(alt_exception_entry.o)
 .data          0x00023c14        0x0 ../UcosiiBSP_for_cpu_s0/\libucosii_bsp.a(alt_find_dev.o)
 .data          0x00023c14        0x0 ../UcosiiBSP_for_cpu_s0/\libucosii_bsp.a(alt_find_file.o)
 .data          0x00023c14        0x0 ../UcosiiBSP_for_cpu_s0/\libucosii_bsp.a(alt_get_fd.o)
 .data          0x00023c14        0x0 ../UcosiiBSP_for_cpu_s0/\libucosii_bsp.a(alt_icache_flush.o)
 .data          0x00023c14        0x0 c:/altera/13.1/nios2eds/bin/gnu/h-i686-mingw32/bin/../lib/gcc/nios2-elf/4.7.3/../../../../../H-i686-mingw32/nios2-elf/lib\libc.a(lib_a-atexit.o)
 .data          0x00023c14        0x0 c:/altera/13.1/nios2eds/bin/gnu/h-i686-mingw32/bin/../lib/gcc/nios2-elf/4.7.3/../../../../../H-i686-mingw32/nios2-elf/lib\libc.a(lib_a-memcmp.o)
 .data          0x00023c14        0x0 c:/altera/13.1/nios2eds/bin/gnu/h-i686-mingw32/bin/../lib/gcc/nios2-elf/4.7.3/../../../../../H-i686-mingw32/nios2-elf/lib\libc.a(lib_a-__atexit.o)
 .data          0x00023c14        0x0 c:/altera/13.1/nios2eds/bin/gnu/h-i686-mingw32/bin/../lib/gcc/nios2-elf/4.7.3\libgcc.a(_fixunsdfsi.o)
                0x0002bc14                _gp = ABSOLUTE ((. + 0x8000))
                0x0002bc14                PROVIDE (gp, _gp)
 *(.rwdata .rwdata.*)
 *(.sdata .sdata.* .gnu.linkonce.s.*)
 .sdata         0x00023c14        0xc obj/default/MCAPI_Transport/mcapi_trans_nios.o
                0x00023c14                my_domain_id
                0x00023c18                my_node_id
                0x00023c1c                mcapi_debug
 .sdata         0x00023c20        0x8 c:/altera/13.1/nios2eds/bin/gnu/h-i686-mingw32/bin/../lib/gcc/nios2-elf/4.7.3/../../../../../H-i686-mingw32/nios2-elf/lib\libc.a(lib_a-impure.o)
                0x00023c20                _global_impure_ptr
                0x00023c24                _impure_ptr
 .sdata         0x00023c28        0x8 c:/altera/13.1/nios2eds/bin/gnu/h-i686-mingw32/bin/../lib/gcc/nios2-elf/4.7.3/../../../../../H-i686-mingw32/nios2-elf/lib\libc.a(lib_a-mallocr.o)
                0x00023c28                __malloc_sbrk_base
                0x00023c2c                __malloc_trim_threshold
 .sdata         0x00023c30        0x4 c:/altera/13.1/nios2eds/bin/gnu/h-i686-mingw32/bin/../lib/gcc/nios2-elf/4.7.3/../../../../../H-i686-mingw32/nios2-elf/lib\libc.a(lib_a-locale.o)
                0x00023c30                __mb_cur_max
 .sdata         0x00023c34       0x14 ../UcosiiBSP_for_cpu_s0/\libucosii_bsp.a(alt_dev.o)
                0x00023c34                alt_max_fd
                0x00023c38                alt_dev_list
                0x00023c40                alt_fs_list
 .sdata         0x00023c48        0x4 ../UcosiiBSP_for_cpu_s0/\libucosii_bsp.a(alt_errno.o)
                0x00023c48                alt_errno
 .sdata         0x00023c4c        0x4 ../UcosiiBSP_for_cpu_s0/\libucosii_bsp.a(alt_irq_vars.o)
                0x00023c4c                alt_priority_mask
 .sdata         0x00023c50        0x4 ../UcosiiBSP_for_cpu_s0/\libucosii_bsp.a(alt_sbrk.o)
 .sdata         0x00023c54        0x4 ../UcosiiBSP_for_cpu_s0/\libucosii_bsp.a(alt_env_lock.o)
 .sdata         0x00023c58        0x4 ../UcosiiBSP_for_cpu_s0/\libucosii_bsp.a(alt_malloc_lock.o)
 .sdata         0x00023c5c       0x74 ../UcosiiBSP_for_cpu_s0/\libucosii_bsp.a(os_dbg.o)
                0x00023c5c                OSDataSize
                0x00023c5e                OSTmrWheelTblSize
                0x00023c60                OSTmrWheelSize
                0x00023c62                OSTmrTblSize
                0x00023c64                OSTmrSize
                0x00023c66                OSTmrCfgTicksPerSec
                0x00023c68                OSTmrCfgWheelSize
                0x00023c6a                OSTmrCfgNameSize
                0x00023c6c                OSTmrCfgMax
                0x00023c6e                OSTmrEn
                0x00023c70                OSVersionNbr
                0x00023c72                OSTimeTickHookEn
                0x00023c74                OSTicksPerSec
                0x00023c76                OSTCBSize
                0x00023c78                OSTCBPrioTblMax
                0x00023c7a                OSTaskSwHookEn
                0x00023c7c                OSTaskStatStkChkEn
                0x00023c7e                OSTaskStatStkSize
                0x00023c80                OSTaskStatEn
                0x00023c82                OSTaskNameSize
                0x00023c84                OSTaskMax
                0x00023c86                OSTaskProfileEn
                0x00023c88                OSTaskIdleStkSize
                0x00023c8a                OSTaskDelEn
                0x00023c8c                OSTaskCreateExtEn
                0x00023c8e                OSTaskCreateEn
                0x00023c90                OSStkWidth
                0x00023c92                OSSemEn
                0x00023c94                OSRdyTblSize
                0x00023c96                OSQSize
                0x00023c98                OSQMax
                0x00023c9a                OSQEn
                0x00023c9c                OSPtrSize
                0x00023c9e                OSMutexEn
                0x00023ca0                OSMemTblSize
                0x00023ca2                OSMemSize
                0x00023ca4                OSMemNameSize
                0x00023ca6                OSMemMax
                0x00023ca8                OSMemEn
                0x00023caa                OSMboxEn
                0x00023cac                OSLowestPrio
                0x00023cae                OSFlagNameSize
                0x00023cb0                OSFlagMax
                0x00023cb2                OSFlagWidth
                0x00023cb4                OSFlagNodeSize
                0x00023cb6                OSFlagGrpSize
                0x00023cb8                OSFlagEn
                0x00023cba                OSEventMultiEn
                0x00023cbc                OSEventTblSize
                0x00023cbe                OSEventSize
                0x00023cc0                OSEventNameSize
                0x00023cc2                OSEventMax
                0x00023cc4                OSEventEn
                0x00023cc8                OSEndiannessTest
                0x00023ccc                OSDebugEn
 .sdata         0x00023cd0        0x8 ../UcosiiBSP_for_cpu_s0/\libucosii_bsp.a(alt_tick.o)
                0x00023cd0                alt_alarm_list
 *(.sdata2 .sdata2.* .gnu.linkonce.s2.*)
                0x00023cd8                . = ALIGN (0x4)
                0x00023cd8                _edata = ABSOLUTE (.)
                0x00023cd8                PROVIDE (edata, ABSOLUTE (.))
                0x00023cd8                PROVIDE (__ram_rwdata_end, ABSOLUTE (.))
                0x00023cd8                PROVIDE (__flash_rwdata_start, LOADADDR (.rwdata))

.bss            0x000258c4    0x26078
                0x000258c4                __bss_start = ABSOLUTE (.)
                0x000258c4                PROVIDE (__sbss_start, ABSOLUTE (.))
                0x000258c4                PROVIDE (___sbss_start, ABSOLUTE (.))
 *(.dynsbss)
 *(.sbss .sbss.* .gnu.linkonce.sb.*)
 .sbss          0x000258c4       0x10 obj/default/MCAPI_Transport/mcapi_trans_nios.o
                0x000258c4                my_mcapi_dindex
                0x000258c8                my_mcapi_nindex
                0x000258cc                locked
                0x000258d0                global_rwl
 .sbss          0x000258d4        0x8 obj/default/MCAPI_Transport/mcapi_trans_nios.o
                0x000258d4                DatabaseMutex
                0x000258d8                mcapi_db
 .sbss          0x000258dc        0xc obj/default/NS_Layer/NS_layer.o
                0x000258dc                callIDcount
                0x000258e0                nextCallID
                0x000258e4                reentMutex
 .sbss          0x000258e8       0x1c obj/default/PH_FifoDriver_UCOSII/PH_layer.o
                0x000258e8                semAlmostFull_fifo_1
                0x000258ec                bridge_base_fifo_2
                0x000258f0                mutexSend
                0x000258f4                semAlmostFull_fifo_2
                0x000258f8                bridge_base_fifo_1
                0x000258fc                bridge_irq_fifo_1
                0x00025900                bridge_irq_fifo_2
 .sbss          0x00025904       0x48 obj/default/SysTestNode1.o
                0x00025904                init_thread_flag
                0x00025908                node1_recvMSG_from_node2_thread_flag
                0x0002590c                node1_recvMSG_from_node0_thread_flag
                0x00025910                node1_sendMSG_to_node2_thread_flag
                0x00025914                node1_sendMSG_to_node0_thread_flag
                0x00025918                prio
                0x0002591c                node2_recvEP_from_node0
                0x00025920                node0_sendEP_to_node1
                0x00025924                node0_recvEP_from_node2
                0x00025928                node1_sendEP_to_node0
                0x0002592c                node2_sendEP_to_node1
                0x00025930                node1_recvEP_from_node2
                0x00025934                node1_recvEP_from_node0
                0x00025938                node1_sendEP_to_node2
                0x0002593c                node2_recvEP_from_node1
                0x00025940                node2_sendEP_to_node0
                0x00025944                node0_recvEP_from_node1
                0x00025948                node0_sendEP_to_node2
 .sbss          0x0002594c        0xc c:/altera/13.1/nios2eds/bin/gnu/h-i686-mingw32/bin/../lib/gcc/nios2-elf/4.7.3/../../../../../H-i686-mingw32/nios2-elf/lib\libc.a(lib_a-mallocr.o)
                0x0002594c                __malloc_max_total_mem
                0x00025950                __malloc_max_sbrked_mem
                0x00025954                __malloc_top_pad
 .sbss          0x00025958        0x4 c:/altera/13.1/nios2eds/bin/gnu/h-i686-mingw32/bin/../lib/gcc/nios2-elf/4.7.3/../../../../../H-i686-mingw32/nios2-elf/lib\libc.a(lib_a-int_errno.o)
                0x00025958                errno
 .sbss          0x0002595c        0xc c:/altera/13.1/nios2eds/bin/gnu/h-i686-mingw32/bin/../lib/gcc/nios2-elf/4.7.3/../../../../../H-i686-mingw32/nios2-elf/lib\libc.a(lib_a-locale.o)
                0x0002595c                _PathLocale
                0x00025960                __mlocale_changed
                0x00025964                __nlocale_changed
 .sbss          0x00025968        0x4 ../UcosiiBSP_for_cpu_s0/\libucosii_bsp.a(alt_dev.o)
                0x00025968                alt_fd_list_lock
 .sbss          0x0002596c        0x4 ../UcosiiBSP_for_cpu_s0/\libucosii_bsp.a(alt_irq_vars.o)
                0x0002596c                alt_irq_active
 .sbss          0x00025970        0xc ../UcosiiBSP_for_cpu_s0/\libucosii_bsp.a(alt_main.o)
                0x00025970                alt_envp
                0x00025974                alt_argv
                0x00025978                alt_argc
 .sbss          0x0002597c        0x8 ../UcosiiBSP_for_cpu_s0/\libucosii_bsp.a(alt_env_lock.o)
                0x00025980                alt_envsem
 .sbss          0x00025984        0x8 ../UcosiiBSP_for_cpu_s0/\libucosii_bsp.a(alt_malloc_lock.o)
                0x00025988                alt_heapsem
 .sbss          0x0002598c       0x5c ../UcosiiBSP_for_cpu_s0/\libucosii_bsp.a(os_core.o)
                0x0002598c                OSLockNesting
                0x00025990                OSRunning
                0x00025994                OSIdleCtr
                0x00025998                OSPrioHighRdy
                0x0002599c                OSPrioCur
                0x000259a0                OSTCBList
                0x000259a4                OSTickStepState
                0x000259a8                OSCtxSwCtr
                0x000259ac                OSIdleCtrMax
                0x000259b0                OSTCBFreeList
                0x000259b4                OSCPUUsage
                0x000259b5                OSTaskCtr
                0x000259b8                OSMemFreeList
                0x000259bc                OSTCBHighRdy
                0x000259c0                OSQFreeList
                0x000259c4                OSRdyGrp
                0x000259c5                OSRdyTbl
                0x000259cc                OSEventFreeList
                0x000259d0                OSIntNesting
                0x000259d4                OSTCBCur
                0x000259d8                OSTime
                0x000259dc                OSFlagFreeList
                0x000259e0                OSStatRdy
                0x000259e4                OSIdleCtrRun
 .sbss          0x000259e8        0x8 ../UcosiiBSP_for_cpu_s0/\libucosii_bsp.a(alt_tick.o)
                0x000259e8                _alt_nticks
                0x000259ec                _alt_tick_rate
 *(.sbss2 .sbss2.* .gnu.linkonce.sb2.*)
 *(.scommon)
                0x000259f0                PROVIDE (__sbss_end, ABSOLUTE (.))
                0x000259f0                PROVIDE (___sbss_end, ABSOLUTE (.))
 *(.dynbss)
 *(.bss .bss.* .gnu.linkonce.b.*)
 .bss           0x000259f0        0x0 ../UcosiiBSP_for_cpu_s0//obj/HAL/src/crt0.o
 .bss           0x000259f0        0x0 obj/default/MCAPI_Top/mcapi.o
 .bss           0x000259f0        0x0 obj/default/MCAPI_Transport/mcapi_trans_nios.o
 .bss           0x000259f0        0x0 obj/default/NS_Layer/NS_layer.o
 .bss           0x000259f0        0x0 obj/default/PH_FifoDriver_UCOSII/PH_layer.o
 .bss           0x000259f0        0x0 obj/default/SysTestNode1.o
 .bss           0x000259f0        0x0 obj/default/UTILS/util_packet_handling.o
 .bss           0x000259f0        0x0 c:/altera/13.1/nios2eds/bin/gnu/h-i686-mingw32/bin/../lib/gcc/nios2-elf/4.7.3\libgcc.a(lib2-divmod.o)
 .bss           0x000259f0        0x0 c:/altera/13.1/nios2eds/bin/gnu/h-i686-mingw32/bin/../lib/gcc/nios2-elf/4.7.3\libgcc.a(lib2-divtable.o)
 .bss           0x000259f0        0x0 c:/altera/13.1/nios2eds/bin/gnu/h-i686-mingw32/bin/../lib/gcc/nios2-elf/4.7.3/../../../../../H-i686-mingw32/nios2-elf/lib\libc.a(lib_a-exit.o)
 .bss           0x000259f0        0x0 c:/altera/13.1/nios2eds/bin/gnu/h-i686-mingw32/bin/../lib/gcc/nios2-elf/4.7.3/../../../../../H-i686-mingw32/nios2-elf/lib\libc.a(lib_a-fflush.o)
 .bss           0x000259f0        0x0 c:/altera/13.1/nios2eds/bin/gnu/h-i686-mingw32/bin/../lib/gcc/nios2-elf/4.7.3/../../../../../H-i686-mingw32/nios2-elf/lib\libc.a(lib_a-findfp.o)
 .bss           0x000259f0        0x0 c:/altera/13.1/nios2eds/bin/gnu/h-i686-mingw32/bin/../lib/gcc/nios2-elf/4.7.3/../../../../../H-i686-mingw32/nios2-elf/lib\libc.a(lib_a-fprintf.o)
 .bss           0x000259f0        0x0 c:/altera/13.1/nios2eds/bin/gnu/h-i686-mingw32/bin/../lib/gcc/nios2-elf/4.7.3/../../../../../H-i686-mingw32/nios2-elf/lib\libc.a(lib_a-fwalk.o)
 .bss           0x000259f0        0x0 c:/altera/13.1/nios2eds/bin/gnu/h-i686-mingw32/bin/../lib/gcc/nios2-elf/4.7.3/../../../../../H-i686-mingw32/nios2-elf/lib\libc.a(lib_a-fwrite.o)
 .bss           0x000259f0        0x0 c:/altera/13.1/nios2eds/bin/gnu/h-i686-mingw32/bin/../lib/gcc/nios2-elf/4.7.3/../../../../../H-i686-mingw32/nios2-elf/lib\libc.a(lib_a-impure.o)
 .bss           0x000259f0       0x28 c:/altera/13.1/nios2eds/bin/gnu/h-i686-mingw32/bin/../lib/gcc/nios2-elf/4.7.3/../../../../../H-i686-mingw32/nios2-elf/lib\libc.a(lib_a-mallocr.o)
                0x000259f0                __malloc_current_mallinfo
 .bss           0x00025a18        0x0 c:/altera/13.1/nios2eds/bin/gnu/h-i686-mingw32/bin/../lib/gcc/nios2-elf/4.7.3/../../../../../H-i686-mingw32/nios2-elf/lib\libc.a(lib_a-memcpy.o)
 .bss           0x00025a18        0x0 c:/altera/13.1/nios2eds/bin/gnu/h-i686-mingw32/bin/../lib/gcc/nios2-elf/4.7.3/../../../../../H-i686-mingw32/nios2-elf/lib\libc.a(lib_a-memset.o)
 .bss           0x00025a18        0x0 c:/altera/13.1/nios2eds/bin/gnu/h-i686-mingw32/bin/../lib/gcc/nios2-elf/4.7.3/../../../../../H-i686-mingw32/nios2-elf/lib\libc.a(lib_a-printf.o)
 .bss           0x00025a18        0x0 c:/altera/13.1/nios2eds/bin/gnu/h-i686-mingw32/bin/../lib/gcc/nios2-elf/4.7.3/../../../../../H-i686-mingw32/nios2-elf/lib\libc.a(lib_a-puts.o)
 .bss           0x00025a18        0x0 c:/altera/13.1/nios2eds/bin/gnu/h-i686-mingw32/bin/../lib/gcc/nios2-elf/4.7.3/../../../../../H-i686-mingw32/nios2-elf/lib\libc.a(lib_a-rand.o)
 .bss           0x00025a18        0x0 c:/altera/13.1/nios2eds/bin/gnu/h-i686-mingw32/bin/../lib/gcc/nios2-elf/4.7.3/../../../../../H-i686-mingw32/nios2-elf/lib\libc.a(lib_a-sbrkr.o)
 .bss           0x00025a18        0x0 c:/altera/13.1/nios2eds/bin/gnu/h-i686-mingw32/bin/../lib/gcc/nios2-elf/4.7.3/../../../../../H-i686-mingw32/nios2-elf/lib\libc.a(lib_a-stdio.o)
 .bss           0x00025a18        0x0 c:/altera/13.1/nios2eds/bin/gnu/h-i686-mingw32/bin/../lib/gcc/nios2-elf/4.7.3/../../../../../H-i686-mingw32/nios2-elf/lib\libc.a(lib_a-strlen.o)
 .bss           0x00025a18        0x0 c:/altera/13.1/nios2eds/bin/gnu/h-i686-mingw32/bin/../lib/gcc/nios2-elf/4.7.3/../../../../../H-i686-mingw32/nios2-elf/lib\libc.a(lib_a-vfprintf.o)
 .bss           0x00025a18        0x0 c:/altera/13.1/nios2eds/bin/gnu/h-i686-mingw32/bin/../lib/gcc/nios2-elf/4.7.3/../../../../../H-i686-mingw32/nios2-elf/lib\libc.a(lib_a-writer.o)
 .bss           0x00025a18        0x0 c:/altera/13.1/nios2eds/bin/gnu/h-i686-mingw32/bin/../lib/gcc/nios2-elf/4.7.3/../../../../../H-i686-mingw32/nios2-elf/lib\libc.a(lib_a-wsetup.o)
 .bss           0x00025a18        0x0 c:/altera/13.1/nios2eds/bin/gnu/h-i686-mingw32/bin/../lib/gcc/nios2-elf/4.7.3/../../../../../H-i686-mingw32/nios2-elf/lib\libc.a(lib_a-__call_atexit.o)
 .bss           0x00025a18        0x0 c:/altera/13.1/nios2eds/bin/gnu/h-i686-mingw32/bin/../lib/gcc/nios2-elf/4.7.3/../../../../../H-i686-mingw32/nios2-elf/lib\libc.a(lib_a-closer.o)
 .bss           0x00025a18        0x0 c:/altera/13.1/nios2eds/bin/gnu/h-i686-mingw32/bin/../lib/gcc/nios2-elf/4.7.3/../../../../../H-i686-mingw32/nios2-elf/lib\libc.a(lib_a-dtoa.o)
 .bss           0x00025a18        0x0 c:/altera/13.1/nios2eds/bin/gnu/h-i686-mingw32/bin/../lib/gcc/nios2-elf/4.7.3/../../../../../H-i686-mingw32/nios2-elf/lib\libc.a(lib_a-fclose.o)
 .bss           0x00025a18        0x0 c:/altera/13.1/nios2eds/bin/gnu/h-i686-mingw32/bin/../lib/gcc/nios2-elf/4.7.3/../../../../../H-i686-mingw32/nios2-elf/lib\libc.a(lib_a-freer.o)
 .bss           0x00025a18        0x0 c:/altera/13.1/nios2eds/bin/gnu/h-i686-mingw32/bin/../lib/gcc/nios2-elf/4.7.3/../../../../../H-i686-mingw32/nios2-elf/lib\libc.a(lib_a-fvwrite.o)
 .bss           0x00025a18        0x0 c:/altera/13.1/nios2eds/bin/gnu/h-i686-mingw32/bin/../lib/gcc/nios2-elf/4.7.3/../../../../../H-i686-mingw32/nios2-elf/lib\libc.a(lib_a-int_errno.o)
 .bss           0x00025a18        0x0 c:/altera/13.1/nios2eds/bin/gnu/h-i686-mingw32/bin/../lib/gcc/nios2-elf/4.7.3/../../../../../H-i686-mingw32/nios2-elf/lib\libc.a(lib_a-locale.o)
 .bss           0x00025a18        0x0 c:/altera/13.1/nios2eds/bin/gnu/h-i686-mingw32/bin/../lib/gcc/nios2-elf/4.7.3/../../../../../H-i686-mingw32/nios2-elf/lib\libc.a(lib_a-lseekr.o)
 .bss           0x00025a18        0x0 c:/altera/13.1/nios2eds/bin/gnu/h-i686-mingw32/bin/../lib/gcc/nios2-elf/4.7.3/../../../../../H-i686-mingw32/nios2-elf/lib\libc.a(lib_a-makebuf.o)
 .bss           0x00025a18        0x0 c:/altera/13.1/nios2eds/bin/gnu/h-i686-mingw32/bin/../lib/gcc/nios2-elf/4.7.3/../../../../../H-i686-mingw32/nios2-elf/lib\libc.a(lib_a-memchr.o)
 .bss           0x00025a18        0x0 c:/altera/13.1/nios2eds/bin/gnu/h-i686-mingw32/bin/../lib/gcc/nios2-elf/4.7.3/../../../../../H-i686-mingw32/nios2-elf/lib\libc.a(lib_a-memmove.o)
 .bss           0x00025a18        0x0 c:/altera/13.1/nios2eds/bin/gnu/h-i686-mingw32/bin/../lib/gcc/nios2-elf/4.7.3/../../../../../H-i686-mingw32/nios2-elf/lib\libc.a(lib_a-mprec.o)
 .bss           0x00025a18        0x0 c:/altera/13.1/nios2eds/bin/gnu/h-i686-mingw32/bin/../lib/gcc/nios2-elf/4.7.3/../../../../../H-i686-mingw32/nios2-elf/lib\libc.a(lib_a-readr.o)
 .bss           0x00025a18        0x0 c:/altera/13.1/nios2eds/bin/gnu/h-i686-mingw32/bin/../lib/gcc/nios2-elf/4.7.3/../../../../../H-i686-mingw32/nios2-elf/lib\libc.a(lib_a-reallocr.o)
 .bss           0x00025a18        0x0 c:/altera/13.1/nios2eds/bin/gnu/h-i686-mingw32/bin/../lib/gcc/nios2-elf/4.7.3/../../../../../H-i686-mingw32/nios2-elf/lib\libc.a(lib_a-s_isinfd.o)
 .bss           0x00025a18        0x0 c:/altera/13.1/nios2eds/bin/gnu/h-i686-mingw32/bin/../lib/gcc/nios2-elf/4.7.3/../../../../../H-i686-mingw32/nios2-elf/lib\libc.a(lib_a-s_isnand.o)
 .bss           0x00025a18        0x0 c:/altera/13.1/nios2eds/bin/gnu/h-i686-mingw32/bin/../lib/gcc/nios2-elf/4.7.3/../../../../../H-i686-mingw32/nios2-elf/lib\libc.a(lib_a-strcmp.o)
 .bss           0x00025a18        0x0 c:/altera/13.1/nios2eds/bin/gnu/h-i686-mingw32/bin/../lib/gcc/nios2-elf/4.7.3/../../../../../H-i686-mingw32/nios2-elf/lib\libc.a(lib_a-callocr.o)
 .bss           0x00025a18        0x0 c:/altera/13.1/nios2eds/bin/gnu/h-i686-mingw32/bin/../lib/gcc/nios2-elf/4.7.3/../../../../../H-i686-mingw32/nios2-elf/lib\libc.a(lib_a-fstatr.o)
 .bss           0x00025a18        0x0 c:/altera/13.1/nios2eds/bin/gnu/h-i686-mingw32/bin/../lib/gcc/nios2-elf/4.7.3/../../../../../H-i686-mingw32/nios2-elf/lib\libc.a(lib_a-isattyr.o)
 .bss           0x00025a18        0x0 c:/altera/13.1/nios2eds/bin/gnu/h-i686-mingw32/bin/../lib/gcc/nios2-elf/4.7.3\libgcc.a(_muldi3.o)
 .bss           0x00025a18        0x0 c:/altera/13.1/nios2eds/bin/gnu/h-i686-mingw32/bin/../lib/gcc/nios2-elf/4.7.3\libgcc.a(_udivdi3.o)
 .bss           0x00025a18        0x0 c:/altera/13.1/nios2eds/bin/gnu/h-i686-mingw32/bin/../lib/gcc/nios2-elf/4.7.3\libgcc.a(_umoddi3.o)
 .bss           0x00025a18        0x0 c:/altera/13.1/nios2eds/bin/gnu/h-i686-mingw32/bin/../lib/gcc/nios2-elf/4.7.3\libgcc.a(_addsub_df.o)
 .bss           0x00025a18        0x0 c:/altera/13.1/nios2eds/bin/gnu/h-i686-mingw32/bin/../lib/gcc/nios2-elf/4.7.3\libgcc.a(_mul_df.o)
 .bss           0x00025a18        0x0 c:/altera/13.1/nios2eds/bin/gnu/h-i686-mingw32/bin/../lib/gcc/nios2-elf/4.7.3\libgcc.a(_div_df.o)
 .bss           0x00025a18        0x0 c:/altera/13.1/nios2eds/bin/gnu/h-i686-mingw32/bin/../lib/gcc/nios2-elf/4.7.3\libgcc.a(_eq_df.o)
 .bss           0x00025a18        0x0 c:/altera/13.1/nios2eds/bin/gnu/h-i686-mingw32/bin/../lib/gcc/nios2-elf/4.7.3\libgcc.a(_ne_df.o)
 .bss           0x00025a18        0x0 c:/altera/13.1/nios2eds/bin/gnu/h-i686-mingw32/bin/../lib/gcc/nios2-elf/4.7.3\libgcc.a(_gt_df.o)
 .bss           0x00025a18        0x0 c:/altera/13.1/nios2eds/bin/gnu/h-i686-mingw32/bin/../lib/gcc/nios2-elf/4.7.3\libgcc.a(_ge_df.o)
 .bss           0x00025a18        0x0 c:/altera/13.1/nios2eds/bin/gnu/h-i686-mingw32/bin/../lib/gcc/nios2-elf/4.7.3\libgcc.a(_lt_df.o)
 .bss           0x00025a18        0x0 c:/altera/13.1/nios2eds/bin/gnu/h-i686-mingw32/bin/../lib/gcc/nios2-elf/4.7.3\libgcc.a(_si_to_df.o)
 .bss           0x00025a18        0x0 c:/altera/13.1/nios2eds/bin/gnu/h-i686-mingw32/bin/../lib/gcc/nios2-elf/4.7.3\libgcc.a(_df_to_si.o)
 .bss           0x00025a18        0x0 c:/altera/13.1/nios2eds/bin/gnu/h-i686-mingw32/bin/../lib/gcc/nios2-elf/4.7.3\libgcc.a(_thenan_df.o)
 .bss           0x00025a18        0x0 c:/altera/13.1/nios2eds/bin/gnu/h-i686-mingw32/bin/../lib/gcc/nios2-elf/4.7.3\libgcc.a(_usi_to_df.o)
 .bss           0x00025a18        0x0 c:/altera/13.1/nios2eds/bin/gnu/h-i686-mingw32/bin/../lib/gcc/nios2-elf/4.7.3\libgcc.a(_clz.o)
 .bss           0x00025a18        0x0 c:/altera/13.1/nios2eds/bin/gnu/h-i686-mingw32/bin/../lib/gcc/nios2-elf/4.7.3\libgcc.a(_clzsi2.o)
 .bss           0x00025a18        0x0 c:/altera/13.1/nios2eds/bin/gnu/h-i686-mingw32/bin/../lib/gcc/nios2-elf/4.7.3\libgcc.a(_pack_df.o)
 .bss           0x00025a18        0x0 c:/altera/13.1/nios2eds/bin/gnu/h-i686-mingw32/bin/../lib/gcc/nios2-elf/4.7.3\libgcc.a(_unpack_df.o)
 .bss           0x00025a18        0x0 c:/altera/13.1/nios2eds/bin/gnu/h-i686-mingw32/bin/../lib/gcc/nios2-elf/4.7.3\libgcc.a(_fpcmp_parts_df.o)
 .bss           0x00025a18        0x0 c:/altera/13.1/nios2eds/bin/gnu/h-i686-mingw32/bin/../lib/gcc/nios2-elf/4.7.3\libgcc.a(_lshrdi3.o)
 .bss           0x00025a18        0x0 c:/altera/13.1/nios2eds/bin/gnu/h-i686-mingw32/bin/../lib/gcc/nios2-elf/4.7.3\libgcc.a(_ashldi3.o)
 .bss           0x00025a18        0x0 ../UcosiiBSP_for_cpu_s0/\libucosii_bsp.a(alt_close.o)
 .bss           0x00025a18        0x0 ../UcosiiBSP_for_cpu_s0/\libucosii_bsp.a(alt_dev.o)
 .bss           0x00025a18        0x0 ../UcosiiBSP_for_cpu_s0/\libucosii_bsp.a(alt_errno.o)
 .bss           0x00025a18        0x0 ../UcosiiBSP_for_cpu_s0/\libucosii_bsp.a(alt_exit.o)
 .bss           0x00025a18        0x0 ../UcosiiBSP_for_cpu_s0/\libucosii_bsp.a(alt_fstat.o)
 .bss           0x00025a18        0x0 ../UcosiiBSP_for_cpu_s0/\libucosii_bsp.a(alt_irq_register.o)
 .bss           0x00025a18        0x0 ../UcosiiBSP_for_cpu_s0/\libucosii_bsp.a(alt_irq_vars.o)
 .bss           0x00025a18        0x0 ../UcosiiBSP_for_cpu_s0/\libucosii_bsp.a(alt_isatty.o)
 .bss           0x00025a18        0x0 ../UcosiiBSP_for_cpu_s0/\libucosii_bsp.a(alt_load.o)
 .bss           0x00025a18        0x0 ../UcosiiBSP_for_cpu_s0/\libucosii_bsp.a(alt_lseek.o)
 .bss           0x00025a18        0x0 ../UcosiiBSP_for_cpu_s0/\libucosii_bsp.a(alt_main.o)
 .bss           0x00025a18        0x0 ../UcosiiBSP_for_cpu_s0/\libucosii_bsp.a(alt_read.o)
 .bss           0x00025a18        0x0 ../UcosiiBSP_for_cpu_s0/\libucosii_bsp.a(alt_release_fd.o)
 .bss           0x00025a18        0x0 ../UcosiiBSP_for_cpu_s0/\libucosii_bsp.a(alt_sbrk.o)
 .bss           0x00025a18        0x0 ../UcosiiBSP_for_cpu_s0/\libucosii_bsp.a(alt_usleep.o)
 .bss           0x00025a18        0x0 ../UcosiiBSP_for_cpu_s0/\libucosii_bsp.a(alt_write.o)
 .bss           0x00025a18        0x0 ../UcosiiBSP_for_cpu_s0/\libucosii_bsp.a(alt_env_lock.o)
 .bss           0x00025a18        0x0 ../UcosiiBSP_for_cpu_s0/\libucosii_bsp.a(alt_malloc_lock.o)
 .bss           0x00025a18        0x0 ../UcosiiBSP_for_cpu_s0/\libucosii_bsp.a(os_core.o)
 .bss           0x00025a18        0x0 ../UcosiiBSP_for_cpu_s0/\libucosii_bsp.a(os_dbg.o)
 .bss           0x00025a18        0x0 ../UcosiiBSP_for_cpu_s0/\libucosii_bsp.a(os_flag.o)
 .bss           0x00025a18        0x0 ../UcosiiBSP_for_cpu_s0/\libucosii_bsp.a(os_mem.o)
 .bss           0x00025a18        0x0 ../UcosiiBSP_for_cpu_s0/\libucosii_bsp.a(os_mutex.o)
 .bss           0x00025a18        0x0 ../UcosiiBSP_for_cpu_s0/\libucosii_bsp.a(os_q.o)
 .bss           0x00025a18        0x0 ../UcosiiBSP_for_cpu_s0/\libucosii_bsp.a(os_sem.o)
 .bss           0x00025a18        0x0 ../UcosiiBSP_for_cpu_s0/\libucosii_bsp.a(os_task.o)
 .bss           0x00025a18        0x0 ../UcosiiBSP_for_cpu_s0/\libucosii_bsp.a(os_time.o)
 .bss           0x00025a18        0x0 ../UcosiiBSP_for_cpu_s0/\libucosii_bsp.a(alt_sys_init.o)
 .bss           0x00025a18        0x0 ../UcosiiBSP_for_cpu_s0/\libucosii_bsp.a(altera_avalon_jtag_uart_fd.o)
 .bss           0x00025a18        0x0 ../UcosiiBSP_for_cpu_s0/\libucosii_bsp.a(altera_avalon_jtag_uart_init.o)
 .bss           0x00025a18        0x0 ../UcosiiBSP_for_cpu_s0/\libucosii_bsp.a(altera_avalon_jtag_uart_ioctl.o)
 .bss           0x00025a18        0x0 ../UcosiiBSP_for_cpu_s0/\libucosii_bsp.a(altera_avalon_jtag_uart_read.o)
 .bss           0x00025a18        0x0 ../UcosiiBSP_for_cpu_s0/\libucosii_bsp.a(altera_avalon_jtag_uart_write.o)
 .bss           0x00025a18        0x0 ../UcosiiBSP_for_cpu_s0/\libucosii_bsp.a(altera_avalon_timer_sc.o)
 .bss           0x00025a18        0x0 ../UcosiiBSP_for_cpu_s0/\libucosii_bsp.a(alt_alarm_start.o)
 .bss           0x00025a18        0x0 ../UcosiiBSP_for_cpu_s0/\libucosii_bsp.a(alt_busy_sleep.o)
 .bss           0x00025a18        0x0 ../UcosiiBSP_for_cpu_s0/\libucosii_bsp.a(alt_dcache_flush_all.o)
 .bss           0x00025a18        0x0 ../UcosiiBSP_for_cpu_s0/\libucosii_bsp.a(alt_dev_llist_insert.o)
 .bss           0x00025a18        0x0 ../UcosiiBSP_for_cpu_s0/\libucosii_bsp.a(alt_do_ctors.o)
 .bss           0x00025a18        0x0 ../UcosiiBSP_for_cpu_s0/\libucosii_bsp.a(alt_do_dtors.o)
 .bss           0x00025a18        0x0 ../UcosiiBSP_for_cpu_s0/\libucosii_bsp.a(alt_icache_flush_all.o)
 .bss           0x00025a18        0x0 ../UcosiiBSP_for_cpu_s0/\libucosii_bsp.a(alt_io_redirect.o)
 .bss           0x00025a18        0x0 ../UcosiiBSP_for_cpu_s0/\libucosii_bsp.a(alt_irq_entry.o)
 .bss           0x00025a18        0x0 ../UcosiiBSP_for_cpu_s0/\libucosii_bsp.a(alt_irq_handler.o)
 .bss           0x00025a18        0x0 ../UcosiiBSP_for_cpu_s0/\libucosii_bsp.a(alt_open.o)
 .bss           0x00025a18        0x0 ../UcosiiBSP_for_cpu_s0/\libucosii_bsp.a(alt_tick.o)
 .bss           0x00025a18        0x0 ../UcosiiBSP_for_cpu_s0/\libucosii_bsp.a(altera_nios2_qsys_irq.o)
 .bss           0x00025a18        0x0 ../UcosiiBSP_for_cpu_s0/\libucosii_bsp.a(os_cpu_a.o)
 .bss           0x00025a18        0x0 ../UcosiiBSP_for_cpu_s0/\libucosii_bsp.a(os_cpu_c.o)
 .bss           0x00025a18        0x0 ../UcosiiBSP_for_cpu_s0/\libucosii_bsp.a(alt_exception_entry.o)
 .bss           0x00025a18        0x0 ../UcosiiBSP_for_cpu_s0/\libucosii_bsp.a(alt_find_dev.o)
 .bss           0x00025a18        0x0 ../UcosiiBSP_for_cpu_s0/\libucosii_bsp.a(alt_find_file.o)
 .bss           0x00025a18        0x0 ../UcosiiBSP_for_cpu_s0/\libucosii_bsp.a(alt_get_fd.o)
 .bss           0x00025a18        0x0 ../UcosiiBSP_for_cpu_s0/\libucosii_bsp.a(alt_icache_flush.o)
 .bss           0x00025a18        0x0 c:/altera/13.1/nios2eds/bin/gnu/h-i686-mingw32/bin/../lib/gcc/nios2-elf/4.7.3/../../../../../H-i686-mingw32/nios2-elf/lib\libc.a(lib_a-atexit.o)
 .bss           0x00025a18        0x0 c:/altera/13.1/nios2eds/bin/gnu/h-i686-mingw32/bin/../lib/gcc/nios2-elf/4.7.3/../../../../../H-i686-mingw32/nios2-elf/lib\libc.a(lib_a-memcmp.o)
 .bss           0x00025a18        0x0 c:/altera/13.1/nios2eds/bin/gnu/h-i686-mingw32/bin/../lib/gcc/nios2-elf/4.7.3/../../../../../H-i686-mingw32/nios2-elf/lib\libc.a(lib_a-__atexit.o)
 .bss           0x00025a18        0x0 c:/altera/13.1/nios2eds/bin/gnu/h-i686-mingw32/bin/../lib/gcc/nios2-elf/4.7.3\libgcc.a(_fixunsdfsi.o)
 *(COMMON)
 COMMON         0x00025a18    0x13ea0 obj/default/MCAPI_Transport/mcapi_trans_nios.o
                0x00025a18                mcapi_db_impl
 COMMON         0x000398b8      0x220 obj/default/NS_Layer/NS_layer.o
                0x000398b8                callIDs
                0x000398d8                sem_serviceRequest
                0x000398f8                serviceRequest
 COMMON         0x00039ad8     0x4000 obj/default/PH_FifoDriver_UCOSII/PH_layer.o
                0x00039ad8                PH_FIFO2_RcvTask_stk
                0x0003bad8                PH_FIFO1_RcvTask_stk
 COMMON         0x0003dad8     0xa000 obj/default/SysTestNode1.o
                0x0003dad8                node1_sendMSG_to_node2_task_stk
                0x0003fad8                init_task_stk
                0x00041ad8                node1_sendMSG_to_node0_task_stk
                0x00043ad8                node1_recvMSG_from_node0_task_stk
                0x00045ad8                node1_recvMSG_from_node2_task_stk
 COMMON         0x00047ad8     0x3bd4 ../UcosiiBSP_for_cpu_s0/\libucosii_bsp.a(os_core.o)
                0x00047ad8                OSFlagTbl
                0x00047e48                OSMemTbl
                0x00048a78                OSTaskStatStk
                0x00049278                OSQTbl
                0x00049458                OSTaskIdleStk
                0x00049c58                OSEventTbl
                0x0004a888                OSTCBTbl
                0x0004b608                OSTCBPrioTbl
 COMMON         0x0004b6ac      0x100 ../UcosiiBSP_for_cpu_s0/\libucosii_bsp.a(alt_irq_handler.o)
                0x0004b6ac                alt_irq
 COMMON         0x0004b7ac      0x190 c:/altera/13.1/nios2eds/bin/gnu/h-i686-mingw32/bin/../lib/gcc/nios2-elf/4.7.3/../../../../../H-i686-mingw32/nios2-elf/lib\libc.a(lib_a-atexit.o)
                0x0004b7ac                _atexit0
                0x0004b93c                . = ALIGN (0x4)
                0x0004b93c                __bss_end = ABSOLUTE (.)

.sdram          0x0004b93c        0x0
                0x0004b93c                PROVIDE (_alt_partition_sdram_start, ABSOLUTE (.))
 *(.sdram .sdram. sdram.*)
                0x0004b93c                . = ALIGN (0x4)
                0x0004b93c                PROVIDE (_alt_partition_sdram_end, ABSOLUTE (.))
                0x0004b93c                _end = ABSOLUTE (.)
                0x0004b93c                end = ABSOLUTE (.)
                0x0004b93c                __alt_stack_base = ABSOLUTE (.)
                0x0004b93c                PROVIDE (_alt_partition_sdram_load_addr, LOADADDR (.sdram))

.stab
 *(.stab)

.stabstr
 *(.stabstr)

.stab.excl
 *(.stab.excl)

.stab.exclstr
 *(.stab.exclstr)

.stab.index
 *(.stab.index)

.stab.indexstr
 *(.stab.indexstr)

.comment        0x00000000       0x23
 *(.comment)
 .comment       0x00000000       0x23 obj/default/MCAPI_Top/mcapi.o
                                 0x24 (size before relaxing)
 .comment       0x00000000       0x24 obj/default/MCAPI_Transport/mcapi_trans_nios.o
 .comment       0x00000000       0x24 obj/default/NS_Layer/NS_layer.o
 .comment       0x00000000       0x24 obj/default/PH_FifoDriver_UCOSII/PH_layer.o
 .comment       0x00000000       0x24 obj/default/SysTestNode1.o
 .comment       0x00000000       0x24 obj/default/UTILS/util_packet_handling.o
 .comment       0x00000000       0x24 c:/altera/13.1/nios2eds/bin/gnu/h-i686-mingw32/bin/../lib/gcc/nios2-elf/4.7.3\libgcc.a(lib2-divmod.o)
 .comment       0x00000000       0x24 c:/altera/13.1/nios2eds/bin/gnu/h-i686-mingw32/bin/../lib/gcc/nios2-elf/4.7.3\libgcc.a(lib2-divtable.o)
 .comment       0x00000000       0x24 c:/altera/13.1/nios2eds/bin/gnu/h-i686-mingw32/bin/../lib/gcc/nios2-elf/4.7.3/../../../../../H-i686-mingw32/nios2-elf/lib\libc.a(lib_a-exit.o)
 .comment       0x00000000       0x24 c:/altera/13.1/nios2eds/bin/gnu/h-i686-mingw32/bin/../lib/gcc/nios2-elf/4.7.3/../../../../../H-i686-mingw32/nios2-elf/lib\libc.a(lib_a-fflush.o)
 .comment       0x00000000       0x24 c:/altera/13.1/nios2eds/bin/gnu/h-i686-mingw32/bin/../lib/gcc/nios2-elf/4.7.3/../../../../../H-i686-mingw32/nios2-elf/lib\libc.a(lib_a-findfp.o)
 .comment       0x00000000       0x24 c:/altera/13.1/nios2eds/bin/gnu/h-i686-mingw32/bin/../lib/gcc/nios2-elf/4.7.3/../../../../../H-i686-mingw32/nios2-elf/lib\libc.a(lib_a-fprintf.o)
 .comment       0x00000000       0x24 c:/altera/13.1/nios2eds/bin/gnu/h-i686-mingw32/bin/../lib/gcc/nios2-elf/4.7.3/../../../../../H-i686-mingw32/nios2-elf/lib\libc.a(lib_a-fwalk.o)
 .comment       0x00000000       0x24 c:/altera/13.1/nios2eds/bin/gnu/h-i686-mingw32/bin/../lib/gcc/nios2-elf/4.7.3/../../../../../H-i686-mingw32/nios2-elf/lib\libc.a(lib_a-fwrite.o)
 .comment       0x00000000       0x24 c:/altera/13.1/nios2eds/bin/gnu/h-i686-mingw32/bin/../lib/gcc/nios2-elf/4.7.3/../../../../../H-i686-mingw32/nios2-elf/lib\libc.a(lib_a-impure.o)
 .comment       0x00000000       0x24 c:/altera/13.1/nios2eds/bin/gnu/h-i686-mingw32/bin/../lib/gcc/nios2-elf/4.7.3/../../../../../H-i686-mingw32/nios2-elf/lib\libc.a(lib_a-mallocr.o)
 .comment       0x00000000       0x24 c:/altera/13.1/nios2eds/bin/gnu/h-i686-mingw32/bin/../lib/gcc/nios2-elf/4.7.3/../../../../../H-i686-mingw32/nios2-elf/lib\libc.a(lib_a-memcpy.o)
 .comment       0x00000000       0x24 c:/altera/13.1/nios2eds/bin/gnu/h-i686-mingw32/bin/../lib/gcc/nios2-elf/4.7.3/../../../../../H-i686-mingw32/nios2-elf/lib\libc.a(lib_a-memset.o)
 .comment       0x00000000       0x24 c:/altera/13.1/nios2eds/bin/gnu/h-i686-mingw32/bin/../lib/gcc/nios2-elf/4.7.3/../../../../../H-i686-mingw32/nios2-elf/lib\libc.a(lib_a-printf.o)
 .comment       0x00000000       0x24 c:/altera/13.1/nios2eds/bin/gnu/h-i686-mingw32/bin/../lib/gcc/nios2-elf/4.7.3/../../../../../H-i686-mingw32/nios2-elf/lib\libc.a(lib_a-puts.o)
 .comment       0x00000000       0x24 c:/altera/13.1/nios2eds/bin/gnu/h-i686-mingw32/bin/../lib/gcc/nios2-elf/4.7.3/../../../../../H-i686-mingw32/nios2-elf/lib\libc.a(lib_a-rand.o)
 .comment       0x00000000       0x24 c:/altera/13.1/nios2eds/bin/gnu/h-i686-mingw32/bin/../lib/gcc/nios2-elf/4.7.3/../../../../../H-i686-mingw32/nios2-elf/lib\libc.a(lib_a-sbrkr.o)
 .comment       0x00000000       0x24 c:/altera/13.1/nios2eds/bin/gnu/h-i686-mingw32/bin/../lib/gcc/nios2-elf/4.7.3/../../../../../H-i686-mingw32/nios2-elf/lib\libc.a(lib_a-stdio.o)
 .comment       0x00000000       0x24 c:/altera/13.1/nios2eds/bin/gnu/h-i686-mingw32/bin/../lib/gcc/nios2-elf/4.7.3/../../../../../H-i686-mingw32/nios2-elf/lib\libc.a(lib_a-strlen.o)
 .comment       0x00000000       0x24 c:/altera/13.1/nios2eds/bin/gnu/h-i686-mingw32/bin/../lib/gcc/nios2-elf/4.7.3/../../../../../H-i686-mingw32/nios2-elf/lib\libc.a(lib_a-vfprintf.o)
 .comment       0x00000000       0x24 c:/altera/13.1/nios2eds/bin/gnu/h-i686-mingw32/bin/../lib/gcc/nios2-elf/4.7.3/../../../../../H-i686-mingw32/nios2-elf/lib\libc.a(lib_a-writer.o)
 .comment       0x00000000       0x24 c:/altera/13.1/nios2eds/bin/gnu/h-i686-mingw32/bin/../lib/gcc/nios2-elf/4.7.3/../../../../../H-i686-mingw32/nios2-elf/lib\libc.a(lib_a-wsetup.o)
 .comment       0x00000000       0x24 c:/altera/13.1/nios2eds/bin/gnu/h-i686-mingw32/bin/../lib/gcc/nios2-elf/4.7.3/../../../../../H-i686-mingw32/nios2-elf/lib\libc.a(lib_a-__call_atexit.o)
 .comment       0x00000000       0x24 c:/altera/13.1/nios2eds/bin/gnu/h-i686-mingw32/bin/../lib/gcc/nios2-elf/4.7.3/../../../../../H-i686-mingw32/nios2-elf/lib\libc.a(lib_a-closer.o)
 .comment       0x00000000       0x24 c:/altera/13.1/nios2eds/bin/gnu/h-i686-mingw32/bin/../lib/gcc/nios2-elf/4.7.3/../../../../../H-i686-mingw32/nios2-elf/lib\libc.a(lib_a-dtoa.o)
 .comment       0x00000000       0x24 c:/altera/13.1/nios2eds/bin/gnu/h-i686-mingw32/bin/../lib/gcc/nios2-elf/4.7.3/../../../../../H-i686-mingw32/nios2-elf/lib\libc.a(lib_a-fclose.o)
 .comment       0x00000000       0x24 c:/altera/13.1/nios2eds/bin/gnu/h-i686-mingw32/bin/../lib/gcc/nios2-elf/4.7.3/../../../../../H-i686-mingw32/nios2-elf/lib\libc.a(lib_a-freer.o)
 .comment       0x00000000       0x24 c:/altera/13.1/nios2eds/bin/gnu/h-i686-mingw32/bin/../lib/gcc/nios2-elf/4.7.3/../../../../../H-i686-mingw32/nios2-elf/lib\libc.a(lib_a-fvwrite.o)
 .comment       0x00000000       0x24 c:/altera/13.1/nios2eds/bin/gnu/h-i686-mingw32/bin/../lib/gcc/nios2-elf/4.7.3/../../../../../H-i686-mingw32/nios2-elf/lib\libc.a(lib_a-int_errno.o)
 .comment       0x00000000       0x24 c:/altera/13.1/nios2eds/bin/gnu/h-i686-mingw32/bin/../lib/gcc/nios2-elf/4.7.3/../../../../../H-i686-mingw32/nios2-elf/lib\libc.a(lib_a-locale.o)
 .comment       0x00000000       0x24 c:/altera/13.1/nios2eds/bin/gnu/h-i686-mingw32/bin/../lib/gcc/nios2-elf/4.7.3/../../../../../H-i686-mingw32/nios2-elf/lib\libc.a(lib_a-lseekr.o)
 .comment       0x00000000       0x24 c:/altera/13.1/nios2eds/bin/gnu/h-i686-mingw32/bin/../lib/gcc/nios2-elf/4.7.3/../../../../../H-i686-mingw32/nios2-elf/lib\libc.a(lib_a-makebuf.o)
 .comment       0x00000000       0x24 c:/altera/13.1/nios2eds/bin/gnu/h-i686-mingw32/bin/../lib/gcc/nios2-elf/4.7.3/../../../../../H-i686-mingw32/nios2-elf/lib\libc.a(lib_a-memchr.o)
 .comment       0x00000000       0x24 c:/altera/13.1/nios2eds/bin/gnu/h-i686-mingw32/bin/../lib/gcc/nios2-elf/4.7.3/../../../../../H-i686-mingw32/nios2-elf/lib\libc.a(lib_a-memmove.o)
 .comment       0x00000000       0x24 c:/altera/13.1/nios2eds/bin/gnu/h-i686-mingw32/bin/../lib/gcc/nios2-elf/4.7.3/../../../../../H-i686-mingw32/nios2-elf/lib\libc.a(lib_a-mprec.o)
 .comment       0x00000000       0x24 c:/altera/13.1/nios2eds/bin/gnu/h-i686-mingw32/bin/../lib/gcc/nios2-elf/4.7.3/../../../../../H-i686-mingw32/nios2-elf/lib\libc.a(lib_a-readr.o)
 .comment       0x00000000       0x24 c:/altera/13.1/nios2eds/bin/gnu/h-i686-mingw32/bin/../lib/gcc/nios2-elf/4.7.3/../../../../../H-i686-mingw32/nios2-elf/lib\libc.a(lib_a-reallocr.o)
 .comment       0x00000000       0x24 c:/altera/13.1/nios2eds/bin/gnu/h-i686-mingw32/bin/../lib/gcc/nios2-elf/4.7.3/../../../../../H-i686-mingw32/nios2-elf/lib\libc.a(lib_a-s_isinfd.o)
 .comment       0x00000000       0x24 c:/altera/13.1/nios2eds/bin/gnu/h-i686-mingw32/bin/../lib/gcc/nios2-elf/4.7.3/../../../../../H-i686-mingw32/nios2-elf/lib\libc.a(lib_a-s_isnand.o)
 .comment       0x00000000       0x24 c:/altera/13.1/nios2eds/bin/gnu/h-i686-mingw32/bin/../lib/gcc/nios2-elf/4.7.3/../../../../../H-i686-mingw32/nios2-elf/lib\libc.a(lib_a-strcmp.o)
 .comment       0x00000000       0x24 c:/altera/13.1/nios2eds/bin/gnu/h-i686-mingw32/bin/../lib/gcc/nios2-elf/4.7.3/../../../../../H-i686-mingw32/nios2-elf/lib\libc.a(lib_a-callocr.o)
 .comment       0x00000000       0x24 c:/altera/13.1/nios2eds/bin/gnu/h-i686-mingw32/bin/../lib/gcc/nios2-elf/4.7.3/../../../../../H-i686-mingw32/nios2-elf/lib\libc.a(lib_a-fstatr.o)
 .comment       0x00000000       0x24 c:/altera/13.1/nios2eds/bin/gnu/h-i686-mingw32/bin/../lib/gcc/nios2-elf/4.7.3/../../../../../H-i686-mingw32/nios2-elf/lib\libc.a(lib_a-isattyr.o)
 .comment       0x00000000       0x24 c:/altera/13.1/nios2eds/bin/gnu/h-i686-mingw32/bin/../lib/gcc/nios2-elf/4.7.3\libgcc.a(_muldi3.o)
 .comment       0x00000000       0x24 c:/altera/13.1/nios2eds/bin/gnu/h-i686-mingw32/bin/../lib/gcc/nios2-elf/4.7.3\libgcc.a(_udivdi3.o)
 .comment       0x00000000       0x24 c:/altera/13.1/nios2eds/bin/gnu/h-i686-mingw32/bin/../lib/gcc/nios2-elf/4.7.3\libgcc.a(_umoddi3.o)
 .comment       0x00000000       0x24 c:/altera/13.1/nios2eds/bin/gnu/h-i686-mingw32/bin/../lib/gcc/nios2-elf/4.7.3\libgcc.a(_addsub_df.o)
 .comment       0x00000000       0x24 c:/altera/13.1/nios2eds/bin/gnu/h-i686-mingw32/bin/../lib/gcc/nios2-elf/4.7.3\libgcc.a(_mul_df.o)
 .comment       0x00000000       0x24 c:/altera/13.1/nios2eds/bin/gnu/h-i686-mingw32/bin/../lib/gcc/nios2-elf/4.7.3\libgcc.a(_div_df.o)
 .comment       0x00000000       0x24 c:/altera/13.1/nios2eds/bin/gnu/h-i686-mingw32/bin/../lib/gcc/nios2-elf/4.7.3\libgcc.a(_eq_df.o)
 .comment       0x00000000       0x24 c:/altera/13.1/nios2eds/bin/gnu/h-i686-mingw32/bin/../lib/gcc/nios2-elf/4.7.3\libgcc.a(_ne_df.o)
 .comment       0x00000000       0x24 c:/altera/13.1/nios2eds/bin/gnu/h-i686-mingw32/bin/../lib/gcc/nios2-elf/4.7.3\libgcc.a(_gt_df.o)
 .comment       0x00000000       0x24 c:/altera/13.1/nios2eds/bin/gnu/h-i686-mingw32/bin/../lib/gcc/nios2-elf/4.7.3\libgcc.a(_ge_df.o)
 .comment       0x00000000       0x24 c:/altera/13.1/nios2eds/bin/gnu/h-i686-mingw32/bin/../lib/gcc/nios2-elf/4.7.3\libgcc.a(_lt_df.o)
 .comment       0x00000000       0x24 c:/altera/13.1/nios2eds/bin/gnu/h-i686-mingw32/bin/../lib/gcc/nios2-elf/4.7.3\libgcc.a(_si_to_df.o)
 .comment       0x00000000       0x24 c:/altera/13.1/nios2eds/bin/gnu/h-i686-mingw32/bin/../lib/gcc/nios2-elf/4.7.3\libgcc.a(_df_to_si.o)
 .comment       0x00000000       0x24 c:/altera/13.1/nios2eds/bin/gnu/h-i686-mingw32/bin/../lib/gcc/nios2-elf/4.7.3\libgcc.a(_thenan_df.o)
 .comment       0x00000000       0x24 c:/altera/13.1/nios2eds/bin/gnu/h-i686-mingw32/bin/../lib/gcc/nios2-elf/4.7.3\libgcc.a(_usi_to_df.o)
 .comment       0x00000000       0x24 c:/altera/13.1/nios2eds/bin/gnu/h-i686-mingw32/bin/../lib/gcc/nios2-elf/4.7.3\libgcc.a(_clz.o)
 .comment       0x00000000       0x24 c:/altera/13.1/nios2eds/bin/gnu/h-i686-mingw32/bin/../lib/gcc/nios2-elf/4.7.3\libgcc.a(_clzsi2.o)
 .comment       0x00000000       0x24 c:/altera/13.1/nios2eds/bin/gnu/h-i686-mingw32/bin/../lib/gcc/nios2-elf/4.7.3\libgcc.a(_pack_df.o)
 .comment       0x00000000       0x24 c:/altera/13.1/nios2eds/bin/gnu/h-i686-mingw32/bin/../lib/gcc/nios2-elf/4.7.3\libgcc.a(_unpack_df.o)
 .comment       0x00000000       0x24 c:/altera/13.1/nios2eds/bin/gnu/h-i686-mingw32/bin/../lib/gcc/nios2-elf/4.7.3\libgcc.a(_fpcmp_parts_df.o)
 .comment       0x00000000       0x24 c:/altera/13.1/nios2eds/bin/gnu/h-i686-mingw32/bin/../lib/gcc/nios2-elf/4.7.3\libgcc.a(_lshrdi3.o)
 .comment       0x00000000       0x24 c:/altera/13.1/nios2eds/bin/gnu/h-i686-mingw32/bin/../lib/gcc/nios2-elf/4.7.3\libgcc.a(_ashldi3.o)
 .comment       0x00000000       0x24 ../UcosiiBSP_for_cpu_s0/\libucosii_bsp.a(alt_close.o)
 .comment       0x00000000       0x24 ../UcosiiBSP_for_cpu_s0/\libucosii_bsp.a(alt_dev.o)
 .comment       0x00000000       0x24 ../UcosiiBSP_for_cpu_s0/\libucosii_bsp.a(alt_errno.o)
 .comment       0x00000000       0x24 ../UcosiiBSP_for_cpu_s0/\libucosii_bsp.a(alt_exit.o)
 .comment       0x00000000       0x24 ../UcosiiBSP_for_cpu_s0/\libucosii_bsp.a(alt_fstat.o)
 .comment       0x00000000       0x24 ../UcosiiBSP_for_cpu_s0/\libucosii_bsp.a(alt_irq_register.o)
 .comment       0x00000000       0x24 ../UcosiiBSP_for_cpu_s0/\libucosii_bsp.a(alt_irq_vars.o)
 .comment       0x00000000       0x24 ../UcosiiBSP_for_cpu_s0/\libucosii_bsp.a(alt_isatty.o)
 .comment       0x00000000       0x24 ../UcosiiBSP_for_cpu_s0/\libucosii_bsp.a(alt_load.o)
 .comment       0x00000000       0x24 ../UcosiiBSP_for_cpu_s0/\libucosii_bsp.a(alt_lseek.o)
 .comment       0x00000000       0x24 ../UcosiiBSP_for_cpu_s0/\libucosii_bsp.a(alt_main.o)
 .comment       0x00000000       0x24 ../UcosiiBSP_for_cpu_s0/\libucosii_bsp.a(alt_read.o)
 .comment       0x00000000       0x24 ../UcosiiBSP_for_cpu_s0/\libucosii_bsp.a(alt_release_fd.o)
 .comment       0x00000000       0x24 ../UcosiiBSP_for_cpu_s0/\libucosii_bsp.a(alt_sbrk.o)
 .comment       0x00000000       0x24 ../UcosiiBSP_for_cpu_s0/\libucosii_bsp.a(alt_usleep.o)
 .comment       0x00000000       0x24 ../UcosiiBSP_for_cpu_s0/\libucosii_bsp.a(alt_write.o)
 .comment       0x00000000       0x24 ../UcosiiBSP_for_cpu_s0/\libucosii_bsp.a(alt_env_lock.o)
 .comment       0x00000000       0x24 ../UcosiiBSP_for_cpu_s0/\libucosii_bsp.a(alt_malloc_lock.o)
 .comment       0x00000000       0x24 ../UcosiiBSP_for_cpu_s0/\libucosii_bsp.a(os_core.o)
 .comment       0x00000000       0x24 ../UcosiiBSP_for_cpu_s0/\libucosii_bsp.a(os_dbg.o)
 .comment       0x00000000       0x24 ../UcosiiBSP_for_cpu_s0/\libucosii_bsp.a(os_flag.o)
 .comment       0x00000000       0x24 ../UcosiiBSP_for_cpu_s0/\libucosii_bsp.a(os_mem.o)
 .comment       0x00000000       0x24 ../UcosiiBSP_for_cpu_s0/\libucosii_bsp.a(os_mutex.o)
 .comment       0x00000000       0x24 ../UcosiiBSP_for_cpu_s0/\libucosii_bsp.a(os_q.o)
 .comment       0x00000000       0x24 ../UcosiiBSP_for_cpu_s0/\libucosii_bsp.a(os_sem.o)
 .comment       0x00000000       0x24 ../UcosiiBSP_for_cpu_s0/\libucosii_bsp.a(os_task.o)
 .comment       0x00000000       0x24 ../UcosiiBSP_for_cpu_s0/\libucosii_bsp.a(os_time.o)
 .comment       0x00000000       0x24 ../UcosiiBSP_for_cpu_s0/\libucosii_bsp.a(alt_sys_init.o)
 .comment       0x00000000       0x24 ../UcosiiBSP_for_cpu_s0/\libucosii_bsp.a(altera_avalon_jtag_uart_fd.o)
 .comment       0x00000000       0x24 ../UcosiiBSP_for_cpu_s0/\libucosii_bsp.a(altera_avalon_jtag_uart_init.o)
 .comment       0x00000000       0x24 ../UcosiiBSP_for_cpu_s0/\libucosii_bsp.a(altera_avalon_jtag_uart_ioctl.o)
 .comment       0x00000000       0x24 ../UcosiiBSP_for_cpu_s0/\libucosii_bsp.a(altera_avalon_jtag_uart_read.o)
 .comment       0x00000000       0x24 ../UcosiiBSP_for_cpu_s0/\libucosii_bsp.a(altera_avalon_jtag_uart_write.o)
 .comment       0x00000000       0x24 ../UcosiiBSP_for_cpu_s0/\libucosii_bsp.a(altera_avalon_timer_sc.o)
 .comment       0x00000000       0x24 ../UcosiiBSP_for_cpu_s0/\libucosii_bsp.a(alt_alarm_start.o)
 .comment       0x00000000       0x24 ../UcosiiBSP_for_cpu_s0/\libucosii_bsp.a(alt_busy_sleep.o)
 .comment       0x00000000       0x24 ../UcosiiBSP_for_cpu_s0/\libucosii_bsp.a(alt_dcache_flush_all.o)
 .comment       0x00000000       0x24 ../UcosiiBSP_for_cpu_s0/\libucosii_bsp.a(alt_dev_llist_insert.o)
 .comment       0x00000000       0x24 ../UcosiiBSP_for_cpu_s0/\libucosii_bsp.a(alt_do_ctors.o)
 .comment       0x00000000       0x24 ../UcosiiBSP_for_cpu_s0/\libucosii_bsp.a(alt_do_dtors.o)
 .comment       0x00000000       0x24 ../UcosiiBSP_for_cpu_s0/\libucosii_bsp.a(alt_icache_flush_all.o)
 .comment       0x00000000       0x24 ../UcosiiBSP_for_cpu_s0/\libucosii_bsp.a(alt_io_redirect.o)
 .comment       0x00000000       0x24 ../UcosiiBSP_for_cpu_s0/\libucosii_bsp.a(alt_irq_handler.o)
 .comment       0x00000000       0x24 ../UcosiiBSP_for_cpu_s0/\libucosii_bsp.a(alt_open.o)
 .comment       0x00000000       0x24 ../UcosiiBSP_for_cpu_s0/\libucosii_bsp.a(alt_tick.o)
 .comment       0x00000000       0x24 ../UcosiiBSP_for_cpu_s0/\libucosii_bsp.a(altera_nios2_qsys_irq.o)
 .comment       0x00000000       0x24 ../UcosiiBSP_for_cpu_s0/\libucosii_bsp.a(os_cpu_c.o)
 .comment       0x00000000       0x24 ../UcosiiBSP_for_cpu_s0/\libucosii_bsp.a(alt_find_dev.o)
 .comment       0x00000000       0x24 ../UcosiiBSP_for_cpu_s0/\libucosii_bsp.a(alt_find_file.o)
 .comment       0x00000000       0x24 ../UcosiiBSP_for_cpu_s0/\libucosii_bsp.a(alt_get_fd.o)
 .comment       0x00000000       0x24 ../UcosiiBSP_for_cpu_s0/\libucosii_bsp.a(alt_icache_flush.o)
 .comment       0x00000000       0x24 c:/altera/13.1/nios2eds/bin/gnu/h-i686-mingw32/bin/../lib/gcc/nios2-elf/4.7.3/../../../../../H-i686-mingw32/nios2-elf/lib\libc.a(lib_a-atexit.o)
 .comment       0x00000000       0x24 c:/altera/13.1/nios2eds/bin/gnu/h-i686-mingw32/bin/../lib/gcc/nios2-elf/4.7.3/../../../../../H-i686-mingw32/nios2-elf/lib\libc.a(lib_a-memcmp.o)
 .comment       0x00000000       0x24 c:/altera/13.1/nios2eds/bin/gnu/h-i686-mingw32/bin/../lib/gcc/nios2-elf/4.7.3/../../../../../H-i686-mingw32/nios2-elf/lib\libc.a(lib_a-__atexit.o)
 .comment       0x00000000       0x24 c:/altera/13.1/nios2eds/bin/gnu/h-i686-mingw32/bin/../lib/gcc/nios2-elf/4.7.3\libgcc.a(_fixunsdfsi.o)

.debug
 *(.debug)

.line
 *(.line)

.debug_srcinfo
 *(.debug_srcinfo)

.debug_sfnames
 *(.debug_sfnames)

.debug_aranges  0x00000000     0x1028
 *(.debug_aranges)
 .debug_aranges
                0x00000000       0x28 ../UcosiiBSP_for_cpu_s0//obj/HAL/src/crt0.o
 .debug_aranges
                0x00000028       0x20 obj/default/MCAPI_Top/mcapi.o
 .debug_aranges
                0x00000048       0x28 obj/default/MCAPI_Transport/mcapi_trans_nios.o
 .debug_aranges
                0x00000070       0x20 obj/default/NS_Layer/NS_layer.o
 .debug_aranges
                0x00000090       0x20 obj/default/PH_FifoDriver_UCOSII/PH_layer.o
 .debug_aranges
                0x000000b0       0x28 obj/default/SysTestNode1.o
 .debug_aranges
                0x000000d8       0x20 obj/default/UTILS/util_packet_handling.o
 .debug_aranges
                0x000000f8       0x20 c:/altera/13.1/nios2eds/bin/gnu/h-i686-mingw32/bin/../lib/gcc/nios2-elf/4.7.3\libgcc.a(lib2-divmod.o)
 .debug_aranges
                0x00000118       0x18 c:/altera/13.1/nios2eds/bin/gnu/h-i686-mingw32/bin/../lib/gcc/nios2-elf/4.7.3\libgcc.a(lib2-divtable.o)
 .debug_aranges
                0x00000130       0x20 c:/altera/13.1/nios2eds/bin/gnu/h-i686-mingw32/bin/../lib/gcc/nios2-elf/4.7.3/../../../../../H-i686-mingw32/nios2-elf/lib\libc.a(lib_a-exit.o)
 .debug_aranges
                0x00000150       0x20 c:/altera/13.1/nios2eds/bin/gnu/h-i686-mingw32/bin/../lib/gcc/nios2-elf/4.7.3/../../../../../H-i686-mingw32/nios2-elf/lib\libc.a(lib_a-fflush.o)
 .debug_aranges
                0x00000170       0x20 c:/altera/13.1/nios2eds/bin/gnu/h-i686-mingw32/bin/../lib/gcc/nios2-elf/4.7.3/../../../../../H-i686-mingw32/nios2-elf/lib\libc.a(lib_a-findfp.o)
 .debug_aranges
                0x00000190       0x20 c:/altera/13.1/nios2eds/bin/gnu/h-i686-mingw32/bin/../lib/gcc/nios2-elf/4.7.3/../../../../../H-i686-mingw32/nios2-elf/lib\libc.a(lib_a-fprintf.o)
 .debug_aranges
                0x000001b0       0x20 c:/altera/13.1/nios2eds/bin/gnu/h-i686-mingw32/bin/../lib/gcc/nios2-elf/4.7.3/../../../../../H-i686-mingw32/nios2-elf/lib\libc.a(lib_a-fwalk.o)
 .debug_aranges
                0x000001d0       0x20 c:/altera/13.1/nios2eds/bin/gnu/h-i686-mingw32/bin/../lib/gcc/nios2-elf/4.7.3/../../../../../H-i686-mingw32/nios2-elf/lib\libc.a(lib_a-fwrite.o)
 .debug_aranges
                0x000001f0       0x18 c:/altera/13.1/nios2eds/bin/gnu/h-i686-mingw32/bin/../lib/gcc/nios2-elf/4.7.3/../../../../../H-i686-mingw32/nios2-elf/lib\libc.a(lib_a-impure.o)
 .debug_aranges
                0x00000208       0x20 c:/altera/13.1/nios2eds/bin/gnu/h-i686-mingw32/bin/../lib/gcc/nios2-elf/4.7.3/../../../../../H-i686-mingw32/nios2-elf/lib\libc.a(lib_a-mallocr.o)
 .debug_aranges
                0x00000228       0x20 c:/altera/13.1/nios2eds/bin/gnu/h-i686-mingw32/bin/../lib/gcc/nios2-elf/4.7.3/../../../../../H-i686-mingw32/nios2-elf/lib\libc.a(lib_a-memcpy.o)
 .debug_aranges
                0x00000248       0x20 c:/altera/13.1/nios2eds/bin/gnu/h-i686-mingw32/bin/../lib/gcc/nios2-elf/4.7.3/../../../../../H-i686-mingw32/nios2-elf/lib\libc.a(lib_a-memset.o)
 .debug_aranges
                0x00000268       0x20 c:/altera/13.1/nios2eds/bin/gnu/h-i686-mingw32/bin/../lib/gcc/nios2-elf/4.7.3/../../../../../H-i686-mingw32/nios2-elf/lib\libc.a(lib_a-printf.o)
 .debug_aranges
                0x00000288       0x20 c:/altera/13.1/nios2eds/bin/gnu/h-i686-mingw32/bin/../lib/gcc/nios2-elf/4.7.3/../../../../../H-i686-mingw32/nios2-elf/lib\libc.a(lib_a-puts.o)
 .debug_aranges
                0x000002a8       0x20 c:/altera/13.1/nios2eds/bin/gnu/h-i686-mingw32/bin/../lib/gcc/nios2-elf/4.7.3/../../../../../H-i686-mingw32/nios2-elf/lib\libc.a(lib_a-rand.o)
 .debug_aranges
                0x000002c8       0x20 c:/altera/13.1/nios2eds/bin/gnu/h-i686-mingw32/bin/../lib/gcc/nios2-elf/4.7.3/../../../../../H-i686-mingw32/nios2-elf/lib\libc.a(lib_a-sbrkr.o)
 .debug_aranges
                0x000002e8       0x20 c:/altera/13.1/nios2eds/bin/gnu/h-i686-mingw32/bin/../lib/gcc/nios2-elf/4.7.3/../../../../../H-i686-mingw32/nios2-elf/lib\libc.a(lib_a-stdio.o)
 .debug_aranges
                0x00000308       0x20 c:/altera/13.1/nios2eds/bin/gnu/h-i686-mingw32/bin/../lib/gcc/nios2-elf/4.7.3/../../../../../H-i686-mingw32/nios2-elf/lib\libc.a(lib_a-strlen.o)
 .debug_aranges
                0x00000328       0x20 c:/altera/13.1/nios2eds/bin/gnu/h-i686-mingw32/bin/../lib/gcc/nios2-elf/4.7.3/../../../../../H-i686-mingw32/nios2-elf/lib\libc.a(lib_a-vfprintf.o)
 .debug_aranges
                0x00000348       0x20 c:/altera/13.1/nios2eds/bin/gnu/h-i686-mingw32/bin/../lib/gcc/nios2-elf/4.7.3/../../../../../H-i686-mingw32/nios2-elf/lib\libc.a(lib_a-writer.o)
 .debug_aranges
                0x00000368       0x20 c:/altera/13.1/nios2eds/bin/gnu/h-i686-mingw32/bin/../lib/gcc/nios2-elf/4.7.3/../../../../../H-i686-mingw32/nios2-elf/lib\libc.a(lib_a-wsetup.o)
 .debug_aranges
                0x00000388       0x20 c:/altera/13.1/nios2eds/bin/gnu/h-i686-mingw32/bin/../lib/gcc/nios2-elf/4.7.3/../../../../../H-i686-mingw32/nios2-elf/lib\libc.a(lib_a-__call_atexit.o)
 .debug_aranges
                0x000003a8       0x20 c:/altera/13.1/nios2eds/bin/gnu/h-i686-mingw32/bin/../lib/gcc/nios2-elf/4.7.3/../../../../../H-i686-mingw32/nios2-elf/lib\libc.a(lib_a-closer.o)
 .debug_aranges
                0x000003c8       0x20 c:/altera/13.1/nios2eds/bin/gnu/h-i686-mingw32/bin/../lib/gcc/nios2-elf/4.7.3/../../../../../H-i686-mingw32/nios2-elf/lib\libc.a(lib_a-dtoa.o)
 .debug_aranges
                0x000003e8       0x20 c:/altera/13.1/nios2eds/bin/gnu/h-i686-mingw32/bin/../lib/gcc/nios2-elf/4.7.3/../../../../../H-i686-mingw32/nios2-elf/lib\libc.a(lib_a-fclose.o)
 .debug_aranges
                0x00000408       0x20 c:/altera/13.1/nios2eds/bin/gnu/h-i686-mingw32/bin/../lib/gcc/nios2-elf/4.7.3/../../../../../H-i686-mingw32/nios2-elf/lib\libc.a(lib_a-freer.o)
 .debug_aranges
                0x00000428       0x20 c:/altera/13.1/nios2eds/bin/gnu/h-i686-mingw32/bin/../lib/gcc/nios2-elf/4.7.3/../../../../../H-i686-mingw32/nios2-elf/lib\libc.a(lib_a-fvwrite.o)
 .debug_aranges
                0x00000448       0x18 c:/altera/13.1/nios2eds/bin/gnu/h-i686-mingw32/bin/../lib/gcc/nios2-elf/4.7.3/../../../../../H-i686-mingw32/nios2-elf/lib\libc.a(lib_a-int_errno.o)
 .debug_aranges
                0x00000460       0x20 c:/altera/13.1/nios2eds/bin/gnu/h-i686-mingw32/bin/../lib/gcc/nios2-elf/4.7.3/../../../../../H-i686-mingw32/nios2-elf/lib\libc.a(lib_a-locale.o)
 .debug_aranges
                0x00000480       0x20 c:/altera/13.1/nios2eds/bin/gnu/h-i686-mingw32/bin/../lib/gcc/nios2-elf/4.7.3/../../../../../H-i686-mingw32/nios2-elf/lib\libc.a(lib_a-lseekr.o)
 .debug_aranges
                0x000004a0       0x20 c:/altera/13.1/nios2eds/bin/gnu/h-i686-mingw32/bin/../lib/gcc/nios2-elf/4.7.3/../../../../../H-i686-mingw32/nios2-elf/lib\libc.a(lib_a-makebuf.o)
 .debug_aranges
                0x000004c0       0x20 c:/altera/13.1/nios2eds/bin/gnu/h-i686-mingw32/bin/../lib/gcc/nios2-elf/4.7.3/../../../../../H-i686-mingw32/nios2-elf/lib\libc.a(lib_a-memchr.o)
 .debug_aranges
                0x000004e0       0x20 c:/altera/13.1/nios2eds/bin/gnu/h-i686-mingw32/bin/../lib/gcc/nios2-elf/4.7.3/../../../../../H-i686-mingw32/nios2-elf/lib\libc.a(lib_a-memmove.o)
 .debug_aranges
                0x00000500       0x20 c:/altera/13.1/nios2eds/bin/gnu/h-i686-mingw32/bin/../lib/gcc/nios2-elf/4.7.3/../../../../../H-i686-mingw32/nios2-elf/lib\libc.a(lib_a-mprec.o)
 .debug_aranges
                0x00000520       0x20 c:/altera/13.1/nios2eds/bin/gnu/h-i686-mingw32/bin/../lib/gcc/nios2-elf/4.7.3/../../../../../H-i686-mingw32/nios2-elf/lib\libc.a(lib_a-readr.o)
 .debug_aranges
                0x00000540       0x20 c:/altera/13.1/nios2eds/bin/gnu/h-i686-mingw32/bin/../lib/gcc/nios2-elf/4.7.3/../../../../../H-i686-mingw32/nios2-elf/lib\libc.a(lib_a-reallocr.o)
 .debug_aranges
                0x00000560       0x20 c:/altera/13.1/nios2eds/bin/gnu/h-i686-mingw32/bin/../lib/gcc/nios2-elf/4.7.3/../../../../../H-i686-mingw32/nios2-elf/lib\libc.a(lib_a-s_isinfd.o)
 .debug_aranges
                0x00000580       0x20 c:/altera/13.1/nios2eds/bin/gnu/h-i686-mingw32/bin/../lib/gcc/nios2-elf/4.7.3/../../../../../H-i686-mingw32/nios2-elf/lib\libc.a(lib_a-s_isnand.o)
 .debug_aranges
                0x000005a0       0x20 c:/altera/13.1/nios2eds/bin/gnu/h-i686-mingw32/bin/../lib/gcc/nios2-elf/4.7.3/../../../../../H-i686-mingw32/nios2-elf/lib\libc.a(lib_a-strcmp.o)
 .debug_aranges
                0x000005c0       0x20 c:/altera/13.1/nios2eds/bin/gnu/h-i686-mingw32/bin/../lib/gcc/nios2-elf/4.7.3/../../../../../H-i686-mingw32/nios2-elf/lib\libc.a(lib_a-callocr.o)
 .debug_aranges
                0x000005e0       0x20 c:/altera/13.1/nios2eds/bin/gnu/h-i686-mingw32/bin/../lib/gcc/nios2-elf/4.7.3/../../../../../H-i686-mingw32/nios2-elf/lib\libc.a(lib_a-fstatr.o)
 .debug_aranges
                0x00000600       0x20 c:/altera/13.1/nios2eds/bin/gnu/h-i686-mingw32/bin/../lib/gcc/nios2-elf/4.7.3/../../../../../H-i686-mingw32/nios2-elf/lib\libc.a(lib_a-isattyr.o)
 .debug_aranges
                0x00000620       0x20 c:/altera/13.1/nios2eds/bin/gnu/h-i686-mingw32/bin/../lib/gcc/nios2-elf/4.7.3\libgcc.a(_muldi3.o)
 .debug_aranges
                0x00000640       0x20 c:/altera/13.1/nios2eds/bin/gnu/h-i686-mingw32/bin/../lib/gcc/nios2-elf/4.7.3\libgcc.a(_udivdi3.o)
 .debug_aranges
                0x00000660       0x20 c:/altera/13.1/nios2eds/bin/gnu/h-i686-mingw32/bin/../lib/gcc/nios2-elf/4.7.3\libgcc.a(_umoddi3.o)
 .debug_aranges
                0x00000680       0x20 c:/altera/13.1/nios2eds/bin/gnu/h-i686-mingw32/bin/../lib/gcc/nios2-elf/4.7.3\libgcc.a(_addsub_df.o)
 .debug_aranges
                0x000006a0       0x20 c:/altera/13.1/nios2eds/bin/gnu/h-i686-mingw32/bin/../lib/gcc/nios2-elf/4.7.3\libgcc.a(_mul_df.o)
 .debug_aranges
                0x000006c0       0x20 c:/altera/13.1/nios2eds/bin/gnu/h-i686-mingw32/bin/../lib/gcc/nios2-elf/4.7.3\libgcc.a(_div_df.o)
 .debug_aranges
                0x000006e0       0x20 c:/altera/13.1/nios2eds/bin/gnu/h-i686-mingw32/bin/../lib/gcc/nios2-elf/4.7.3\libgcc.a(_eq_df.o)
 .debug_aranges
                0x00000700       0x20 c:/altera/13.1/nios2eds/bin/gnu/h-i686-mingw32/bin/../lib/gcc/nios2-elf/4.7.3\libgcc.a(_ne_df.o)
 .debug_aranges
                0x00000720       0x20 c:/altera/13.1/nios2eds/bin/gnu/h-i686-mingw32/bin/../lib/gcc/nios2-elf/4.7.3\libgcc.a(_gt_df.o)
 .debug_aranges
                0x00000740       0x20 c:/altera/13.1/nios2eds/bin/gnu/h-i686-mingw32/bin/../lib/gcc/nios2-elf/4.7.3\libgcc.a(_ge_df.o)
 .debug_aranges
                0x00000760       0x20 c:/altera/13.1/nios2eds/bin/gnu/h-i686-mingw32/bin/../lib/gcc/nios2-elf/4.7.3\libgcc.a(_lt_df.o)
 .debug_aranges
                0x00000780       0x20 c:/altera/13.1/nios2eds/bin/gnu/h-i686-mingw32/bin/../lib/gcc/nios2-elf/4.7.3\libgcc.a(_si_to_df.o)
 .debug_aranges
                0x000007a0       0x20 c:/altera/13.1/nios2eds/bin/gnu/h-i686-mingw32/bin/../lib/gcc/nios2-elf/4.7.3\libgcc.a(_df_to_si.o)
 .debug_aranges
                0x000007c0       0x18 c:/altera/13.1/nios2eds/bin/gnu/h-i686-mingw32/bin/../lib/gcc/nios2-elf/4.7.3\libgcc.a(_thenan_df.o)
 .debug_aranges
                0x000007d8       0x20 c:/altera/13.1/nios2eds/bin/gnu/h-i686-mingw32/bin/../lib/gcc/nios2-elf/4.7.3\libgcc.a(_usi_to_df.o)
 .debug_aranges
                0x000007f8       0x18 c:/altera/13.1/nios2eds/bin/gnu/h-i686-mingw32/bin/../lib/gcc/nios2-elf/4.7.3\libgcc.a(_clz.o)
 .debug_aranges
                0x00000810       0x20 c:/altera/13.1/nios2eds/bin/gnu/h-i686-mingw32/bin/../lib/gcc/nios2-elf/4.7.3\libgcc.a(_clzsi2.o)
 .debug_aranges
                0x00000830       0x20 c:/altera/13.1/nios2eds/bin/gnu/h-i686-mingw32/bin/../lib/gcc/nios2-elf/4.7.3\libgcc.a(_pack_df.o)
 .debug_aranges
                0x00000850       0x20 c:/altera/13.1/nios2eds/bin/gnu/h-i686-mingw32/bin/../lib/gcc/nios2-elf/4.7.3\libgcc.a(_unpack_df.o)
 .debug_aranges
                0x00000870       0x20 c:/altera/13.1/nios2eds/bin/gnu/h-i686-mingw32/bin/../lib/gcc/nios2-elf/4.7.3\libgcc.a(_fpcmp_parts_df.o)
 .debug_aranges
                0x00000890       0x20 c:/altera/13.1/nios2eds/bin/gnu/h-i686-mingw32/bin/../lib/gcc/nios2-elf/4.7.3\libgcc.a(_lshrdi3.o)
 .debug_aranges
                0x000008b0       0x20 c:/altera/13.1/nios2eds/bin/gnu/h-i686-mingw32/bin/../lib/gcc/nios2-elf/4.7.3\libgcc.a(_ashldi3.o)
 .debug_aranges
                0x000008d0       0x20 ../UcosiiBSP_for_cpu_s0/\libucosii_bsp.a(alt_close.o)
 .debug_aranges
                0x000008f0       0x20 ../UcosiiBSP_for_cpu_s0/\libucosii_bsp.a(alt_dev.o)
 .debug_aranges
                0x00000910       0x18 ../UcosiiBSP_for_cpu_s0/\libucosii_bsp.a(alt_errno.o)
 .debug_aranges
                0x00000928       0x20 ../UcosiiBSP_for_cpu_s0/\libucosii_bsp.a(alt_exit.o)
 .debug_aranges
                0x00000948       0x20 ../UcosiiBSP_for_cpu_s0/\libucosii_bsp.a(alt_fstat.o)
 .debug_aranges
                0x00000968       0x20 ../UcosiiBSP_for_cpu_s0/\libucosii_bsp.a(alt_irq_register.o)
 .debug_aranges
                0x00000988       0x18 ../UcosiiBSP_for_cpu_s0/\libucosii_bsp.a(alt_irq_vars.o)
 .debug_aranges
                0x000009a0       0x20 ../UcosiiBSP_for_cpu_s0/\libucosii_bsp.a(alt_isatty.o)
 .debug_aranges
                0x000009c0       0x20 ../UcosiiBSP_for_cpu_s0/\libucosii_bsp.a(alt_load.o)
 .debug_aranges
                0x000009e0       0x20 ../UcosiiBSP_for_cpu_s0/\libucosii_bsp.a(alt_lseek.o)
 .debug_aranges
                0x00000a00       0x20 ../UcosiiBSP_for_cpu_s0/\libucosii_bsp.a(alt_main.o)
 .debug_aranges
                0x00000a20       0x20 ../UcosiiBSP_for_cpu_s0/\libucosii_bsp.a(alt_read.o)
 .debug_aranges
                0x00000a40       0x20 ../UcosiiBSP_for_cpu_s0/\libucosii_bsp.a(alt_release_fd.o)
 .debug_aranges
                0x00000a60       0x20 ../UcosiiBSP_for_cpu_s0/\libucosii_bsp.a(alt_sbrk.o)
 .debug_aranges
                0x00000a80       0x20 ../UcosiiBSP_for_cpu_s0/\libucosii_bsp.a(alt_usleep.o)
 .debug_aranges
                0x00000aa0       0x20 ../UcosiiBSP_for_cpu_s0/\libucosii_bsp.a(alt_write.o)
 .debug_aranges
                0x00000ac0       0x20 ../UcosiiBSP_for_cpu_s0/\libucosii_bsp.a(alt_env_lock.o)
 .debug_aranges
                0x00000ae0       0x20 ../UcosiiBSP_for_cpu_s0/\libucosii_bsp.a(alt_malloc_lock.o)
 .debug_aranges
                0x00000b00       0x20 ../UcosiiBSP_for_cpu_s0/\libucosii_bsp.a(os_core.o)
 .debug_aranges
                0x00000b20       0x20 ../UcosiiBSP_for_cpu_s0/\libucosii_bsp.a(os_dbg.o)
 .debug_aranges
                0x00000b40       0x20 ../UcosiiBSP_for_cpu_s0/\libucosii_bsp.a(os_flag.o)
 .debug_aranges
                0x00000b60       0x20 ../UcosiiBSP_for_cpu_s0/\libucosii_bsp.a(os_mem.o)
 .debug_aranges
                0x00000b80       0x20 ../UcosiiBSP_for_cpu_s0/\libucosii_bsp.a(os_mutex.o)
 .debug_aranges
                0x00000ba0       0x20 ../UcosiiBSP_for_cpu_s0/\libucosii_bsp.a(os_q.o)
 .debug_aranges
                0x00000bc0       0x20 ../UcosiiBSP_for_cpu_s0/\libucosii_bsp.a(os_sem.o)
 .debug_aranges
                0x00000be0       0x20 ../UcosiiBSP_for_cpu_s0/\libucosii_bsp.a(os_task.o)
 .debug_aranges
                0x00000c00       0x20 ../UcosiiBSP_for_cpu_s0/\libucosii_bsp.a(os_time.o)
 .debug_aranges
                0x00000c20       0x20 ../UcosiiBSP_for_cpu_s0/\libucosii_bsp.a(alt_sys_init.o)
 .debug_aranges
                0x00000c40       0x20 ../UcosiiBSP_for_cpu_s0/\libucosii_bsp.a(altera_avalon_jtag_uart_fd.o)
 .debug_aranges
                0x00000c60       0x20 ../UcosiiBSP_for_cpu_s0/\libucosii_bsp.a(altera_avalon_jtag_uart_init.o)
 .debug_aranges
                0x00000c80       0x20 ../UcosiiBSP_for_cpu_s0/\libucosii_bsp.a(altera_avalon_jtag_uart_ioctl.o)
 .debug_aranges
                0x00000ca0       0x20 ../UcosiiBSP_for_cpu_s0/\libucosii_bsp.a(altera_avalon_jtag_uart_read.o)
 .debug_aranges
                0x00000cc0       0x20 ../UcosiiBSP_for_cpu_s0/\libucosii_bsp.a(altera_avalon_jtag_uart_write.o)
 .debug_aranges
                0x00000ce0       0x20 ../UcosiiBSP_for_cpu_s0/\libucosii_bsp.a(altera_avalon_timer_sc.o)
 .debug_aranges
                0x00000d00       0x20 ../UcosiiBSP_for_cpu_s0/\libucosii_bsp.a(alt_alarm_start.o)
 .debug_aranges
                0x00000d20       0x20 ../UcosiiBSP_for_cpu_s0/\libucosii_bsp.a(alt_busy_sleep.o)
 .debug_aranges
                0x00000d40       0x20 ../UcosiiBSP_for_cpu_s0/\libucosii_bsp.a(alt_dcache_flush_all.o)
 .debug_aranges
                0x00000d60       0x20 ../UcosiiBSP_for_cpu_s0/\libucosii_bsp.a(alt_dev_llist_insert.o)
 .debug_aranges
                0x00000d80       0x20 ../UcosiiBSP_for_cpu_s0/\libucosii_bsp.a(alt_do_ctors.o)
 .debug_aranges
                0x00000da0       0x20 ../UcosiiBSP_for_cpu_s0/\libucosii_bsp.a(alt_do_dtors.o)
 .debug_aranges
                0x00000dc0       0x20 ../UcosiiBSP_for_cpu_s0/\libucosii_bsp.a(alt_icache_flush_all.o)
 .debug_aranges
                0x00000de0       0x20 ../UcosiiBSP_for_cpu_s0/\libucosii_bsp.a(alt_io_redirect.o)
 .debug_aranges
                0x00000e00       0x30 ../UcosiiBSP_for_cpu_s0/\libucosii_bsp.a(alt_irq_entry.o)
 .debug_aranges
                0x00000e30       0x20 ../UcosiiBSP_for_cpu_s0/\libucosii_bsp.a(alt_irq_handler.o)
 .debug_aranges
                0x00000e50       0x20 ../UcosiiBSP_for_cpu_s0/\libucosii_bsp.a(alt_open.o)
 .debug_aranges
                0x00000e70       0x20 ../UcosiiBSP_for_cpu_s0/\libucosii_bsp.a(alt_tick.o)
 .debug_aranges
                0x00000e90       0x20 ../UcosiiBSP_for_cpu_s0/\libucosii_bsp.a(altera_nios2_qsys_irq.o)
 .debug_aranges
                0x00000eb0       0x20 ../UcosiiBSP_for_cpu_s0/\libucosii_bsp.a(os_cpu_a.o)
 .debug_aranges
                0x00000ed0       0x20 ../UcosiiBSP_for_cpu_s0/\libucosii_bsp.a(os_cpu_c.o)
 .debug_aranges
                0x00000ef0       0x38 ../UcosiiBSP_for_cpu_s0/\libucosii_bsp.a(alt_exception_entry.o)
 .debug_aranges
                0x00000f28       0x20 ../UcosiiBSP_for_cpu_s0/\libucosii_bsp.a(alt_find_dev.o)
 .debug_aranges
                0x00000f48       0x20 ../UcosiiBSP_for_cpu_s0/\libucosii_bsp.a(alt_find_file.o)
 .debug_aranges
                0x00000f68       0x20 ../UcosiiBSP_for_cpu_s0/\libucosii_bsp.a(alt_get_fd.o)
 .debug_aranges
                0x00000f88       0x20 ../UcosiiBSP_for_cpu_s0/\libucosii_bsp.a(alt_icache_flush.o)
 .debug_aranges
                0x00000fa8       0x20 c:/altera/13.1/nios2eds/bin/gnu/h-i686-mingw32/bin/../lib/gcc/nios2-elf/4.7.3/../../../../../H-i686-mingw32/nios2-elf/lib\libc.a(lib_a-atexit.o)
 .debug_aranges
                0x00000fc8       0x20 c:/altera/13.1/nios2eds/bin/gnu/h-i686-mingw32/bin/../lib/gcc/nios2-elf/4.7.3/../../../../../H-i686-mingw32/nios2-elf/lib\libc.a(lib_a-memcmp.o)
 .debug_aranges
                0x00000fe8       0x20 c:/altera/13.1/nios2eds/bin/gnu/h-i686-mingw32/bin/../lib/gcc/nios2-elf/4.7.3/../../../../../H-i686-mingw32/nios2-elf/lib\libc.a(lib_a-__atexit.o)
 .debug_aranges
                0x00001008       0x20 c:/altera/13.1/nios2eds/bin/gnu/h-i686-mingw32/bin/../lib/gcc/nios2-elf/4.7.3\libgcc.a(_fixunsdfsi.o)

.debug_pubnames
 *(.debug_pubnames)

.debug_info     0x00000000    0x497aa
 *(.debug_info .gnu.linkonce.wi.*)
 .debug_info    0x00000000       0x95 ../UcosiiBSP_for_cpu_s0//obj/HAL/src/crt0.o
 .debug_info    0x00000095     0x338a obj/default/MCAPI_Top/mcapi.o
 .debug_info    0x0000341f     0xed0c obj/default/MCAPI_Transport/mcapi_trans_nios.o
 .debug_info    0x0001212b     0x1bf6 obj/default/NS_Layer/NS_layer.o
 .debug_info    0x00013d21     0x172f obj/default/PH_FifoDriver_UCOSII/PH_layer.o
 .debug_info    0x00015450     0x20ff obj/default/SysTestNode1.o
 .debug_info    0x0001754f      0x6dc obj/default/UTILS/util_packet_handling.o
 .debug_info    0x00017c2b      0x289 c:/altera/13.1/nios2eds/bin/gnu/h-i686-mingw32/bin/../lib/gcc/nios2-elf/4.7.3\libgcc.a(lib2-divmod.o)
 .debug_info    0x00017eb4       0x7c c:/altera/13.1/nios2eds/bin/gnu/h-i686-mingw32/bin/../lib/gcc/nios2-elf/4.7.3\libgcc.a(lib2-divtable.o)
 .debug_info    0x00017f30      0x993 c:/altera/13.1/nios2eds/bin/gnu/h-i686-mingw32/bin/../lib/gcc/nios2-elf/4.7.3/../../../../../H-i686-mingw32/nios2-elf/lib\libc.a(lib_a-exit.o)
 .debug_info    0x000188c3      0xad0 c:/altera/13.1/nios2eds/bin/gnu/h-i686-mingw32/bin/../lib/gcc/nios2-elf/4.7.3/../../../../../H-i686-mingw32/nios2-elf/lib\libc.a(lib_a-fflush.o)
 .debug_info    0x00019393      0xd6f c:/altera/13.1/nios2eds/bin/gnu/h-i686-mingw32/bin/../lib/gcc/nios2-elf/4.7.3/../../../../../H-i686-mingw32/nios2-elf/lib\libc.a(lib_a-findfp.o)
 .debug_info    0x0001a102      0xa4b c:/altera/13.1/nios2eds/bin/gnu/h-i686-mingw32/bin/../lib/gcc/nios2-elf/4.7.3/../../../../../H-i686-mingw32/nios2-elf/lib\libc.a(lib_a-fprintf.o)
 .debug_info    0x0001ab4d      0xb72 c:/altera/13.1/nios2eds/bin/gnu/h-i686-mingw32/bin/../lib/gcc/nios2-elf/4.7.3/../../../../../H-i686-mingw32/nios2-elf/lib\libc.a(lib_a-fwalk.o)
 .debug_info    0x0001b6bf      0xb10 c:/altera/13.1/nios2eds/bin/gnu/h-i686-mingw32/bin/../lib/gcc/nios2-elf/4.7.3/../../../../../H-i686-mingw32/nios2-elf/lib\libc.a(lib_a-fwrite.o)
 .debug_info    0x0001c1cf      0x938 c:/altera/13.1/nios2eds/bin/gnu/h-i686-mingw32/bin/../lib/gcc/nios2-elf/4.7.3/../../../../../H-i686-mingw32/nios2-elf/lib\libc.a(lib_a-impure.o)
 .debug_info    0x0001cb07      0xe44 c:/altera/13.1/nios2eds/bin/gnu/h-i686-mingw32/bin/../lib/gcc/nios2-elf/4.7.3/../../../../../H-i686-mingw32/nios2-elf/lib\libc.a(lib_a-mallocr.o)
 .debug_info    0x0001d94b      0x10e c:/altera/13.1/nios2eds/bin/gnu/h-i686-mingw32/bin/../lib/gcc/nios2-elf/4.7.3/../../../../../H-i686-mingw32/nios2-elf/lib\libc.a(lib_a-memcpy.o)
 .debug_info    0x0001da59      0x117 c:/altera/13.1/nios2eds/bin/gnu/h-i686-mingw32/bin/../lib/gcc/nios2-elf/4.7.3/../../../../../H-i686-mingw32/nios2-elf/lib\libc.a(lib_a-memset.o)
 .debug_info    0x0001db70      0xa6c c:/altera/13.1/nios2eds/bin/gnu/h-i686-mingw32/bin/../lib/gcc/nios2-elf/4.7.3/../../../../../H-i686-mingw32/nios2-elf/lib\libc.a(lib_a-printf.o)
 .debug_info    0x0001e5dc      0xab7 c:/altera/13.1/nios2eds/bin/gnu/h-i686-mingw32/bin/../lib/gcc/nios2-elf/4.7.3/../../../../../H-i686-mingw32/nios2-elf/lib\libc.a(lib_a-puts.o)
 .debug_info    0x0001f093      0x953 c:/altera/13.1/nios2eds/bin/gnu/h-i686-mingw32/bin/../lib/gcc/nios2-elf/4.7.3/../../../../../H-i686-mingw32/nios2-elf/lib\libc.a(lib_a-rand.o)
 .debug_info    0x0001f9e6      0x9a3 c:/altera/13.1/nios2eds/bin/gnu/h-i686-mingw32/bin/../lib/gcc/nios2-elf/4.7.3/../../../../../H-i686-mingw32/nios2-elf/lib\libc.a(lib_a-sbrkr.o)
 .debug_info    0x00020389      0xbfd c:/altera/13.1/nios2eds/bin/gnu/h-i686-mingw32/bin/../lib/gcc/nios2-elf/4.7.3/../../../../../H-i686-mingw32/nios2-elf/lib\libc.a(lib_a-stdio.o)
 .debug_info    0x00020f86       0xdf c:/altera/13.1/nios2eds/bin/gnu/h-i686-mingw32/bin/../lib/gcc/nios2-elf/4.7.3/../../../../../H-i686-mingw32/nios2-elf/lib\libc.a(lib_a-strlen.o)
 .debug_info    0x00021065     0x195a c:/altera/13.1/nios2eds/bin/gnu/h-i686-mingw32/bin/../lib/gcc/nios2-elf/4.7.3/../../../../../H-i686-mingw32/nios2-elf/lib\libc.a(lib_a-vfprintf.o)
 .debug_info    0x000229bf      0x9d2 c:/altera/13.1/nios2eds/bin/gnu/h-i686-mingw32/bin/../lib/gcc/nios2-elf/4.7.3/../../../../../H-i686-mingw32/nios2-elf/lib\libc.a(lib_a-writer.o)
 .debug_info    0x00023391      0x9d4 c:/altera/13.1/nios2eds/bin/gnu/h-i686-mingw32/bin/../lib/gcc/nios2-elf/4.7.3/../../../../../H-i686-mingw32/nios2-elf/lib\libc.a(lib_a-wsetup.o)
 .debug_info    0x00023d65      0xa07 c:/altera/13.1/nios2eds/bin/gnu/h-i686-mingw32/bin/../lib/gcc/nios2-elf/4.7.3/../../../../../H-i686-mingw32/nios2-elf/lib\libc.a(lib_a-__call_atexit.o)
 .debug_info    0x0002476c      0x97f c:/altera/13.1/nios2eds/bin/gnu/h-i686-mingw32/bin/../lib/gcc/nios2-elf/4.7.3/../../../../../H-i686-mingw32/nios2-elf/lib\libc.a(lib_a-closer.o)
 .debug_info    0x000250eb     0x1408 c:/altera/13.1/nios2eds/bin/gnu/h-i686-mingw32/bin/../lib/gcc/nios2-elf/4.7.3/../../../../../H-i686-mingw32/nios2-elf/lib\libc.a(lib_a-dtoa.o)
 .debug_info    0x000264f3      0xa97 c:/altera/13.1/nios2eds/bin/gnu/h-i686-mingw32/bin/../lib/gcc/nios2-elf/4.7.3/../../../../../H-i686-mingw32/nios2-elf/lib\libc.a(lib_a-fclose.o)
 .debug_info    0x00026f8a      0xcf9 c:/altera/13.1/nios2eds/bin/gnu/h-i686-mingw32/bin/../lib/gcc/nios2-elf/4.7.3/../../../../../H-i686-mingw32/nios2-elf/lib\libc.a(lib_a-freer.o)
 .debug_info    0x00027c83      0xd05 c:/altera/13.1/nios2eds/bin/gnu/h-i686-mingw32/bin/../lib/gcc/nios2-elf/4.7.3/../../../../../H-i686-mingw32/nios2-elf/lib\libc.a(lib_a-fvwrite.o)
 .debug_info    0x00028988       0x84 c:/altera/13.1/nios2eds/bin/gnu/h-i686-mingw32/bin/../lib/gcc/nios2-elf/4.7.3/../../../../../H-i686-mingw32/nios2-elf/lib\libc.a(lib_a-int_errno.o)
 .debug_info    0x00028a0c      0xc10 c:/altera/13.1/nios2eds/bin/gnu/h-i686-mingw32/bin/../lib/gcc/nios2-elf/4.7.3/../../../../../H-i686-mingw32/nios2-elf/lib\libc.a(lib_a-locale.o)
 .debug_info    0x0002961c      0x9cb c:/altera/13.1/nios2eds/bin/gnu/h-i686-mingw32/bin/../lib/gcc/nios2-elf/4.7.3/../../../../../H-i686-mingw32/nios2-elf/lib\libc.a(lib_a-lseekr.o)
 .debug_info    0x00029fe7      0xbc2 c:/altera/13.1/nios2eds/bin/gnu/h-i686-mingw32/bin/../lib/gcc/nios2-elf/4.7.3/../../../../../H-i686-mingw32/nios2-elf/lib\libc.a(lib_a-makebuf.o)
 .debug_info    0x0002aba9      0x13e c:/altera/13.1/nios2eds/bin/gnu/h-i686-mingw32/bin/../lib/gcc/nios2-elf/4.7.3/../../../../../H-i686-mingw32/nios2-elf/lib\libc.a(lib_a-memchr.o)
 .debug_info    0x0002ace7      0x146 c:/altera/13.1/nios2eds/bin/gnu/h-i686-mingw32/bin/../lib/gcc/nios2-elf/4.7.3/../../../../../H-i686-mingw32/nios2-elf/lib\libc.a(lib_a-memmove.o)
 .debug_info    0x0002ae2d     0x172a c:/altera/13.1/nios2eds/bin/gnu/h-i686-mingw32/bin/../lib/gcc/nios2-elf/4.7.3/../../../../../H-i686-mingw32/nios2-elf/lib\libc.a(lib_a-mprec.o)
 .debug_info    0x0002c557      0x9cb c:/altera/13.1/nios2eds/bin/gnu/h-i686-mingw32/bin/../lib/gcc/nios2-elf/4.7.3/../../../../../H-i686-mingw32/nios2-elf/lib\libc.a(lib_a-readr.o)
 .debug_info    0x0002cf22      0xd8e c:/altera/13.1/nios2eds/bin/gnu/h-i686-mingw32/bin/../lib/gcc/nios2-elf/4.7.3/../../../../../H-i686-mingw32/nios2-elf/lib\libc.a(lib_a-reallocr.o)
 .debug_info    0x0002dcb0       0xe8 c:/altera/13.1/nios2eds/bin/gnu/h-i686-mingw32/bin/../lib/gcc/nios2-elf/4.7.3/../../../../../H-i686-mingw32/nios2-elf/lib\libc.a(lib_a-s_isinfd.o)
 .debug_info    0x0002dd98       0xe8 c:/altera/13.1/nios2eds/bin/gnu/h-i686-mingw32/bin/../lib/gcc/nios2-elf/4.7.3/../../../../../H-i686-mingw32/nios2-elf/lib\libc.a(lib_a-s_isnand.o)
 .debug_info    0x0002de80       0xe1 c:/altera/13.1/nios2eds/bin/gnu/h-i686-mingw32/bin/../lib/gcc/nios2-elf/4.7.3/../../../../../H-i686-mingw32/nios2-elf/lib\libc.a(lib_a-strcmp.o)
 .debug_info    0x0002df61      0xa9b c:/altera/13.1/nios2eds/bin/gnu/h-i686-mingw32/bin/../lib/gcc/nios2-elf/4.7.3/../../../../../H-i686-mingw32/nios2-elf/lib\libc.a(lib_a-callocr.o)
 .debug_info    0x0002e9fc      0xb2f c:/altera/13.1/nios2eds/bin/gnu/h-i686-mingw32/bin/../lib/gcc/nios2-elf/4.7.3/../../../../../H-i686-mingw32/nios2-elf/lib\libc.a(lib_a-fstatr.o)
 .debug_info    0x0002f52b      0x97f c:/altera/13.1/nios2eds/bin/gnu/h-i686-mingw32/bin/../lib/gcc/nios2-elf/4.7.3/../../../../../H-i686-mingw32/nios2-elf/lib\libc.a(lib_a-isattyr.o)
 .debug_info    0x0002feaa      0x1ea c:/altera/13.1/nios2eds/bin/gnu/h-i686-mingw32/bin/../lib/gcc/nios2-elf/4.7.3\libgcc.a(_muldi3.o)
 .debug_info    0x00030094      0x718 c:/altera/13.1/nios2eds/bin/gnu/h-i686-mingw32/bin/../lib/gcc/nios2-elf/4.7.3\libgcc.a(_udivdi3.o)
 .debug_info    0x000307ac      0x771 c:/altera/13.1/nios2eds/bin/gnu/h-i686-mingw32/bin/../lib/gcc/nios2-elf/4.7.3\libgcc.a(_umoddi3.o)
 .debug_info    0x00030f1d      0x588 c:/altera/13.1/nios2eds/bin/gnu/h-i686-mingw32/bin/../lib/gcc/nios2-elf/4.7.3\libgcc.a(_addsub_df.o)
 .debug_info    0x000314a5      0x519 c:/altera/13.1/nios2eds/bin/gnu/h-i686-mingw32/bin/../lib/gcc/nios2-elf/4.7.3\libgcc.a(_mul_df.o)
 .debug_info    0x000319be      0x443 c:/altera/13.1/nios2eds/bin/gnu/h-i686-mingw32/bin/../lib/gcc/nios2-elf/4.7.3\libgcc.a(_div_df.o)
 .debug_info    0x00031e01      0x320 c:/altera/13.1/nios2eds/bin/gnu/h-i686-mingw32/bin/../lib/gcc/nios2-elf/4.7.3\libgcc.a(_eq_df.o)
 .debug_info    0x00032121      0x320 c:/altera/13.1/nios2eds/bin/gnu/h-i686-mingw32/bin/../lib/gcc/nios2-elf/4.7.3\libgcc.a(_ne_df.o)
 .debug_info    0x00032441      0x320 c:/altera/13.1/nios2eds/bin/gnu/h-i686-mingw32/bin/../lib/gcc/nios2-elf/4.7.3\libgcc.a(_gt_df.o)
 .debug_info    0x00032761      0x320 c:/altera/13.1/nios2eds/bin/gnu/h-i686-mingw32/bin/../lib/gcc/nios2-elf/4.7.3\libgcc.a(_ge_df.o)
 .debug_info    0x00032a81      0x320 c:/altera/13.1/nios2eds/bin/gnu/h-i686-mingw32/bin/../lib/gcc/nios2-elf/4.7.3\libgcc.a(_lt_df.o)
 .debug_info    0x00032da1      0x261 c:/altera/13.1/nios2eds/bin/gnu/h-i686-mingw32/bin/../lib/gcc/nios2-elf/4.7.3\libgcc.a(_si_to_df.o)
 .debug_info    0x00033002      0x30b c:/altera/13.1/nios2eds/bin/gnu/h-i686-mingw32/bin/../lib/gcc/nios2-elf/4.7.3\libgcc.a(_df_to_si.o)
 .debug_info    0x0003330d      0x155 c:/altera/13.1/nios2eds/bin/gnu/h-i686-mingw32/bin/../lib/gcc/nios2-elf/4.7.3\libgcc.a(_thenan_df.o)
 .debug_info    0x00033462      0x284 c:/altera/13.1/nios2eds/bin/gnu/h-i686-mingw32/bin/../lib/gcc/nios2-elf/4.7.3\libgcc.a(_usi_to_df.o)
 .debug_info    0x000336e6       0xac c:/altera/13.1/nios2eds/bin/gnu/h-i686-mingw32/bin/../lib/gcc/nios2-elf/4.7.3\libgcc.a(_clz.o)
 .debug_info    0x00033792      0x123 c:/altera/13.1/nios2eds/bin/gnu/h-i686-mingw32/bin/../lib/gcc/nios2-elf/4.7.3\libgcc.a(_clzsi2.o)
 .debug_info    0x000338b5      0x2f7 c:/altera/13.1/nios2eds/bin/gnu/h-i686-mingw32/bin/../lib/gcc/nios2-elf/4.7.3\libgcc.a(_pack_df.o)
 .debug_info    0x00033bac      0x265 c:/altera/13.1/nios2eds/bin/gnu/h-i686-mingw32/bin/../lib/gcc/nios2-elf/4.7.3\libgcc.a(_unpack_df.o)
 .debug_info    0x00033e11      0x226 c:/altera/13.1/nios2eds/bin/gnu/h-i686-mingw32/bin/../lib/gcc/nios2-elf/4.7.3\libgcc.a(_fpcmp_parts_df.o)
 .debug_info    0x00034037      0x185 c:/altera/13.1/nios2eds/bin/gnu/h-i686-mingw32/bin/../lib/gcc/nios2-elf/4.7.3\libgcc.a(_lshrdi3.o)
 .debug_info    0x000341bc      0x185 c:/altera/13.1/nios2eds/bin/gnu/h-i686-mingw32/bin/../lib/gcc/nios2-elf/4.7.3\libgcc.a(_ashldi3.o)
 .debug_info    0x00034341      0x3f6 ../UcosiiBSP_for_cpu_s0/\libucosii_bsp.a(alt_close.o)
 .debug_info    0x00034737      0x5f3 ../UcosiiBSP_for_cpu_s0/\libucosii_bsp.a(alt_dev.o)
 .debug_info    0x00034d2a       0xa3 ../UcosiiBSP_for_cpu_s0/\libucosii_bsp.a(alt_errno.o)
 .debug_info    0x00034dcd      0x157 ../UcosiiBSP_for_cpu_s0/\libucosii_bsp.a(alt_exit.o)
 .debug_info    0x00034f24      0x547 ../UcosiiBSP_for_cpu_s0/\libucosii_bsp.a(alt_fstat.o)
 .debug_info    0x0003546b      0x341 ../UcosiiBSP_for_cpu_s0/\libucosii_bsp.a(alt_irq_register.o)
 .debug_info    0x000357ac       0x8a ../UcosiiBSP_for_cpu_s0/\libucosii_bsp.a(alt_irq_vars.o)
 .debug_info    0x00035836      0x560 ../UcosiiBSP_for_cpu_s0/\libucosii_bsp.a(alt_isatty.o)
 .debug_info    0x00035d96      0x1b5 ../UcosiiBSP_for_cpu_s0/\libucosii_bsp.a(alt_load.o)
 .debug_info    0x00035f4b      0x3f8 ../UcosiiBSP_for_cpu_s0/\libucosii_bsp.a(alt_lseek.o)
 .debug_info    0x00036343      0x450 ../UcosiiBSP_for_cpu_s0/\libucosii_bsp.a(alt_main.o)
 .debug_info    0x00036793      0x595 ../UcosiiBSP_for_cpu_s0/\libucosii_bsp.a(alt_read.o)
 .debug_info    0x00036d28      0x33d ../UcosiiBSP_for_cpu_s0/\libucosii_bsp.a(alt_release_fd.o)
 .debug_info    0x00037065      0x1db ../UcosiiBSP_for_cpu_s0/\libucosii_bsp.a(alt_sbrk.o)
 .debug_info    0x00037240      0x1c4 ../UcosiiBSP_for_cpu_s0/\libucosii_bsp.a(alt_usleep.o)
 .debug_info    0x00037404      0x59c ../UcosiiBSP_for_cpu_s0/\libucosii_bsp.a(alt_write.o)
 .debug_info    0x000379a0      0xe47 ../UcosiiBSP_for_cpu_s0/\libucosii_bsp.a(alt_env_lock.o)
 .debug_info    0x000387e7      0xf7d ../UcosiiBSP_for_cpu_s0/\libucosii_bsp.a(alt_malloc_lock.o)
 .debug_info    0x00039764     0x1fee ../UcosiiBSP_for_cpu_s0/\libucosii_bsp.a(os_core.o)
 .debug_info    0x0003b752      0xba9 ../UcosiiBSP_for_cpu_s0/\libucosii_bsp.a(os_dbg.o)
 .debug_info    0x0003c2fb     0x132a ../UcosiiBSP_for_cpu_s0/\libucosii_bsp.a(os_flag.o)
 .debug_info    0x0003d625      0x78b ../UcosiiBSP_for_cpu_s0/\libucosii_bsp.a(os_mem.o)
 .debug_info    0x0003ddb0      0xc95 ../UcosiiBSP_for_cpu_s0/\libucosii_bsp.a(os_mutex.o)
 .debug_info    0x0003ea45     0x1080 ../UcosiiBSP_for_cpu_s0/\libucosii_bsp.a(os_q.o)
 .debug_info    0x0003fac5      0xc17 ../UcosiiBSP_for_cpu_s0/\libucosii_bsp.a(os_sem.o)
 .debug_info    0x000406dc     0x14a6 ../UcosiiBSP_for_cpu_s0/\libucosii_bsp.a(os_task.o)
 .debug_info    0x00041b82      0x9cd ../UcosiiBSP_for_cpu_s0/\libucosii_bsp.a(os_time.o)
 .debug_info    0x0004254f      0x7af ../UcosiiBSP_for_cpu_s0/\libucosii_bsp.a(alt_sys_init.o)
 .debug_info    0x00042cfe      0x7fb ../UcosiiBSP_for_cpu_s0/\libucosii_bsp.a(altera_avalon_jtag_uart_fd.o)
 .debug_info    0x000434f9      0x8a8 ../UcosiiBSP_for_cpu_s0/\libucosii_bsp.a(altera_avalon_jtag_uart_init.o)
 .debug_info    0x00043da1      0x42e ../UcosiiBSP_for_cpu_s0/\libucosii_bsp.a(altera_avalon_jtag_uart_ioctl.o)
 .debug_info    0x000441cf      0x6d2 ../UcosiiBSP_for_cpu_s0/\libucosii_bsp.a(altera_avalon_jtag_uart_read.o)
 .debug_info    0x000448a1      0x6d4 ../UcosiiBSP_for_cpu_s0/\libucosii_bsp.a(altera_avalon_jtag_uart_write.o)
 .debug_info    0x00044f75      0x2d9 ../UcosiiBSP_for_cpu_s0/\libucosii_bsp.a(altera_avalon_timer_sc.o)
 .debug_info    0x0004524e      0x2ee ../UcosiiBSP_for_cpu_s0/\libucosii_bsp.a(alt_alarm_start.o)
 .debug_info    0x0004553c       0xd6 ../UcosiiBSP_for_cpu_s0/\libucosii_bsp.a(alt_busy_sleep.o)
 .debug_info    0x00045612       0x8f ../UcosiiBSP_for_cpu_s0/\libucosii_bsp.a(alt_dcache_flush_all.o)
 .debug_info    0x000456a1      0x1c4 ../UcosiiBSP_for_cpu_s0/\libucosii_bsp.a(alt_dev_llist_insert.o)
 .debug_info    0x00045865       0x8e ../UcosiiBSP_for_cpu_s0/\libucosii_bsp.a(alt_do_ctors.o)
 .debug_info    0x000458f3       0x8e ../UcosiiBSP_for_cpu_s0/\libucosii_bsp.a(alt_do_dtors.o)
 .debug_info    0x00045981       0xcd ../UcosiiBSP_for_cpu_s0/\libucosii_bsp.a(alt_icache_flush_all.o)
 .debug_info    0x00045a4e      0x68b ../UcosiiBSP_for_cpu_s0/\libucosii_bsp.a(alt_io_redirect.o)
 .debug_info    0x000460d9       0x9e ../UcosiiBSP_for_cpu_s0/\libucosii_bsp.a(alt_irq_entry.o)
 .debug_info    0x00046177      0x20e ../UcosiiBSP_for_cpu_s0/\libucosii_bsp.a(alt_irq_handler.o)
 .debug_info    0x00046385      0x525 ../UcosiiBSP_for_cpu_s0/\libucosii_bsp.a(alt_open.o)
 .debug_info    0x000468aa      0x37b ../UcosiiBSP_for_cpu_s0/\libucosii_bsp.a(alt_tick.o)
 .debug_info    0x00046c25       0xb9 ../UcosiiBSP_for_cpu_s0/\libucosii_bsp.a(altera_nios2_qsys_irq.o)
 .debug_info    0x00046cde       0x9d ../UcosiiBSP_for_cpu_s0/\libucosii_bsp.a(os_cpu_a.o)
 .debug_info    0x00046d7b      0xe4e ../UcosiiBSP_for_cpu_s0/\libucosii_bsp.a(os_cpu_c.o)
 .debug_info    0x00047bc9       0xa4 ../UcosiiBSP_for_cpu_s0/\libucosii_bsp.a(alt_exception_entry.o)
 .debug_info    0x00047c6d      0x3d9 ../UcosiiBSP_for_cpu_s0/\libucosii_bsp.a(alt_find_dev.o)
 .debug_info    0x00048046      0x3c2 ../UcosiiBSP_for_cpu_s0/\libucosii_bsp.a(alt_find_file.o)
 .debug_info    0x00048408      0x50c ../UcosiiBSP_for_cpu_s0/\libucosii_bsp.a(alt_get_fd.o)
 .debug_info    0x00048914       0xdb ../UcosiiBSP_for_cpu_s0/\libucosii_bsp.a(alt_icache_flush.o)
 .debug_info    0x000489ef      0x1e6 c:/altera/13.1/nios2eds/bin/gnu/h-i686-mingw32/bin/../lib/gcc/nios2-elf/4.7.3/../../../../../H-i686-mingw32/nios2-elf/lib\libc.a(lib_a-atexit.o)
 .debug_info    0x00048bd5      0x117 c:/altera/13.1/nios2eds/bin/gnu/h-i686-mingw32/bin/../lib/gcc/nios2-elf/4.7.3/../../../../../H-i686-mingw32/nios2-elf/lib\libc.a(lib_a-memcmp.o)
 .debug_info    0x00048cec      0x9f9 c:/altera/13.1/nios2eds/bin/gnu/h-i686-mingw32/bin/../lib/gcc/nios2-elf/4.7.3/../../../../../H-i686-mingw32/nios2-elf/lib\libc.a(lib_a-__atexit.o)
 .debug_info    0x000496e5       0xc5 c:/altera/13.1/nios2eds/bin/gnu/h-i686-mingw32/bin/../lib/gcc/nios2-elf/4.7.3\libgcc.a(_fixunsdfsi.o)

.debug_abbrev   0x00000000     0xd8a1
 *(.debug_abbrev)
 .debug_abbrev  0x00000000       0x12 ../UcosiiBSP_for_cpu_s0//obj/HAL/src/crt0.o
 .debug_abbrev  0x00000012      0x3e9 obj/default/MCAPI_Top/mcapi.o
 .debug_abbrev  0x000003fb      0x594 obj/default/MCAPI_Transport/mcapi_trans_nios.o
 .debug_abbrev  0x0000098f      0x3ac obj/default/NS_Layer/NS_layer.o
 .debug_abbrev  0x00000d3b      0x45a obj/default/PH_FifoDriver_UCOSII/PH_layer.o
 .debug_abbrev  0x00001195      0x474 obj/default/SysTestNode1.o
 .debug_abbrev  0x00001609      0x120 obj/default/UTILS/util_packet_handling.o
 .debug_abbrev  0x00001729      0x112 c:/altera/13.1/nios2eds/bin/gnu/h-i686-mingw32/bin/../lib/gcc/nios2-elf/4.7.3\libgcc.a(lib2-divmod.o)
 .debug_abbrev  0x0000183b       0x56 c:/altera/13.1/nios2eds/bin/gnu/h-i686-mingw32/bin/../lib/gcc/nios2-elf/4.7.3\libgcc.a(lib2-divtable.o)
 .debug_abbrev  0x00001891      0x1c8 c:/altera/13.1/nios2eds/bin/gnu/h-i686-mingw32/bin/../lib/gcc/nios2-elf/4.7.3/../../../../../H-i686-mingw32/nios2-elf/lib\libc.a(lib_a-exit.o)
 .debug_abbrev  0x00001a59      0x259 c:/altera/13.1/nios2eds/bin/gnu/h-i686-mingw32/bin/../lib/gcc/nios2-elf/4.7.3/../../../../../H-i686-mingw32/nios2-elf/lib\libc.a(lib_a-fflush.o)
 .debug_abbrev  0x00001cb2      0x317 c:/altera/13.1/nios2eds/bin/gnu/h-i686-mingw32/bin/../lib/gcc/nios2-elf/4.7.3/../../../../../H-i686-mingw32/nios2-elf/lib\libc.a(lib_a-findfp.o)
 .debug_abbrev  0x00001fc9      0x1e3 c:/altera/13.1/nios2eds/bin/gnu/h-i686-mingw32/bin/../lib/gcc/nios2-elf/4.7.3/../../../../../H-i686-mingw32/nios2-elf/lib\libc.a(lib_a-fprintf.o)
 .debug_abbrev  0x000021ac      0x224 c:/altera/13.1/nios2eds/bin/gnu/h-i686-mingw32/bin/../lib/gcc/nios2-elf/4.7.3/../../../../../H-i686-mingw32/nios2-elf/lib\libc.a(lib_a-fwalk.o)
 .debug_abbrev  0x000023d0      0x234 c:/altera/13.1/nios2eds/bin/gnu/h-i686-mingw32/bin/../lib/gcc/nios2-elf/4.7.3/../../../../../H-i686-mingw32/nios2-elf/lib\libc.a(lib_a-fwrite.o)
 .debug_abbrev  0x00002604      0x162 c:/altera/13.1/nios2eds/bin/gnu/h-i686-mingw32/bin/../lib/gcc/nios2-elf/4.7.3/../../../../../H-i686-mingw32/nios2-elf/lib\libc.a(lib_a-impure.o)
 .debug_abbrev  0x00002766      0x284 c:/altera/13.1/nios2eds/bin/gnu/h-i686-mingw32/bin/../lib/gcc/nios2-elf/4.7.3/../../../../../H-i686-mingw32/nios2-elf/lib\libc.a(lib_a-mallocr.o)
 .debug_abbrev  0x000029ea       0x9c c:/altera/13.1/nios2eds/bin/gnu/h-i686-mingw32/bin/../lib/gcc/nios2-elf/4.7.3/../../../../../H-i686-mingw32/nios2-elf/lib\libc.a(lib_a-memcpy.o)
 .debug_abbrev  0x00002a86       0xac c:/altera/13.1/nios2eds/bin/gnu/h-i686-mingw32/bin/../lib/gcc/nios2-elf/4.7.3/../../../../../H-i686-mingw32/nios2-elf/lib\libc.a(lib_a-memset.o)
 .debug_abbrev  0x00002b32      0x209 c:/altera/13.1/nios2eds/bin/gnu/h-i686-mingw32/bin/../lib/gcc/nios2-elf/4.7.3/../../../../../H-i686-mingw32/nios2-elf/lib\libc.a(lib_a-printf.o)
 .debug_abbrev  0x00002d3b      0x208 c:/altera/13.1/nios2eds/bin/gnu/h-i686-mingw32/bin/../lib/gcc/nios2-elf/4.7.3/../../../../../H-i686-mingw32/nios2-elf/lib\libc.a(lib_a-puts.o)
 .debug_abbrev  0x00002f43      0x19a c:/altera/13.1/nios2eds/bin/gnu/h-i686-mingw32/bin/../lib/gcc/nios2-elf/4.7.3/../../../../../H-i686-mingw32/nios2-elf/lib\libc.a(lib_a-rand.o)
 .debug_abbrev  0x000030dd      0x1df c:/altera/13.1/nios2eds/bin/gnu/h-i686-mingw32/bin/../lib/gcc/nios2-elf/4.7.3/../../../../../H-i686-mingw32/nios2-elf/lib\libc.a(lib_a-sbrkr.o)
 .debug_abbrev  0x000032bc      0x226 c:/altera/13.1/nios2eds/bin/gnu/h-i686-mingw32/bin/../lib/gcc/nios2-elf/4.7.3/../../../../../H-i686-mingw32/nios2-elf/lib\libc.a(lib_a-stdio.o)
 .debug_abbrev  0x000034e2       0x90 c:/altera/13.1/nios2eds/bin/gnu/h-i686-mingw32/bin/../lib/gcc/nios2-elf/4.7.3/../../../../../H-i686-mingw32/nios2-elf/lib\libc.a(lib_a-strlen.o)
 .debug_abbrev  0x00003572      0x3d9 c:/altera/13.1/nios2eds/bin/gnu/h-i686-mingw32/bin/../lib/gcc/nios2-elf/4.7.3/../../../../../H-i686-mingw32/nios2-elf/lib\libc.a(lib_a-vfprintf.o)
 .debug_abbrev  0x0000394b      0x1c0 c:/altera/13.1/nios2eds/bin/gnu/h-i686-mingw32/bin/../lib/gcc/nios2-elf/4.7.3/../../../../../H-i686-mingw32/nios2-elf/lib\libc.a(lib_a-writer.o)
 .debug_abbrev  0x00003b0b      0x1d5 c:/altera/13.1/nios2eds/bin/gnu/h-i686-mingw32/bin/../lib/gcc/nios2-elf/4.7.3/../../../../../H-i686-mingw32/nios2-elf/lib\libc.a(lib_a-wsetup.o)
 .debug_abbrev  0x00003ce0      0x203 c:/altera/13.1/nios2eds/bin/gnu/h-i686-mingw32/bin/../lib/gcc/nios2-elf/4.7.3/../../../../../H-i686-mingw32/nios2-elf/lib\libc.a(lib_a-__call_atexit.o)
 .debug_abbrev  0x00003ee3      0x1bb c:/altera/13.1/nios2eds/bin/gnu/h-i686-mingw32/bin/../lib/gcc/nios2-elf/4.7.3/../../../../../H-i686-mingw32/nios2-elf/lib\libc.a(lib_a-closer.o)
 .debug_abbrev  0x0000409e      0x2ab c:/altera/13.1/nios2eds/bin/gnu/h-i686-mingw32/bin/../lib/gcc/nios2-elf/4.7.3/../../../../../H-i686-mingw32/nios2-elf/lib\libc.a(lib_a-dtoa.o)
 .debug_abbrev  0x00004349      0x24e c:/altera/13.1/nios2eds/bin/gnu/h-i686-mingw32/bin/../lib/gcc/nios2-elf/4.7.3/../../../../../H-i686-mingw32/nios2-elf/lib\libc.a(lib_a-fclose.o)
 .debug_abbrev  0x00004597      0x25d c:/altera/13.1/nios2eds/bin/gnu/h-i686-mingw32/bin/../lib/gcc/nios2-elf/4.7.3/../../../../../H-i686-mingw32/nios2-elf/lib\libc.a(lib_a-freer.o)
 .debug_abbrev  0x000047f4      0x234 c:/altera/13.1/nios2eds/bin/gnu/h-i686-mingw32/bin/../lib/gcc/nios2-elf/4.7.3/../../../../../H-i686-mingw32/nios2-elf/lib\libc.a(lib_a-fvwrite.o)
 .debug_abbrev  0x00004a28       0x37 c:/altera/13.1/nios2eds/bin/gnu/h-i686-mingw32/bin/../lib/gcc/nios2-elf/4.7.3/../../../../../H-i686-mingw32/nios2-elf/lib\libc.a(lib_a-int_errno.o)
 .debug_abbrev  0x00004a5f      0x29f c:/altera/13.1/nios2eds/bin/gnu/h-i686-mingw32/bin/../lib/gcc/nios2-elf/4.7.3/../../../../../H-i686-mingw32/nios2-elf/lib\libc.a(lib_a-locale.o)
 .debug_abbrev  0x00004cfe      0x1ca c:/altera/13.1/nios2eds/bin/gnu/h-i686-mingw32/bin/../lib/gcc/nios2-elf/4.7.3/../../../../../H-i686-mingw32/nios2-elf/lib\libc.a(lib_a-lseekr.o)
 .debug_abbrev  0x00004ec8      0x1e8 c:/altera/13.1/nios2eds/bin/gnu/h-i686-mingw32/bin/../lib/gcc/nios2-elf/4.7.3/../../../../../H-i686-mingw32/nios2-elf/lib\libc.a(lib_a-makebuf.o)
 .debug_abbrev  0x000050b0       0xab c:/altera/13.1/nios2eds/bin/gnu/h-i686-mingw32/bin/../lib/gcc/nios2-elf/4.7.3/../../../../../H-i686-mingw32/nios2-elf/lib\libc.a(lib_a-memchr.o)
 .debug_abbrev  0x0000515b       0x9c c:/altera/13.1/nios2eds/bin/gnu/h-i686-mingw32/bin/../lib/gcc/nios2-elf/4.7.3/../../../../../H-i686-mingw32/nios2-elf/lib\libc.a(lib_a-memmove.o)
 .debug_abbrev  0x000051f7      0x394 c:/altera/13.1/nios2eds/bin/gnu/h-i686-mingw32/bin/../lib/gcc/nios2-elf/4.7.3/../../../../../H-i686-mingw32/nios2-elf/lib\libc.a(lib_a-mprec.o)
 .debug_abbrev  0x0000558b      0x1bb c:/altera/13.1/nios2eds/bin/gnu/h-i686-mingw32/bin/../lib/gcc/nios2-elf/4.7.3/../../../../../H-i686-mingw32/nios2-elf/lib\libc.a(lib_a-readr.o)
 .debug_abbrev  0x00005746      0x242 c:/altera/13.1/nios2eds/bin/gnu/h-i686-mingw32/bin/../lib/gcc/nios2-elf/4.7.3/../../../../../H-i686-mingw32/nios2-elf/lib\libc.a(lib_a-reallocr.o)
 .debug_abbrev  0x00005988       0x6f c:/altera/13.1/nios2eds/bin/gnu/h-i686-mingw32/bin/../lib/gcc/nios2-elf/4.7.3/../../../../../H-i686-mingw32/nios2-elf/lib\libc.a(lib_a-s_isinfd.o)
 .debug_abbrev  0x000059f7       0x6f c:/altera/13.1/nios2eds/bin/gnu/h-i686-mingw32/bin/../lib/gcc/nios2-elf/4.7.3/../../../../../H-i686-mingw32/nios2-elf/lib\libc.a(lib_a-s_isnand.o)
 .debug_abbrev  0x00005a66       0x74 c:/altera/13.1/nios2eds/bin/gnu/h-i686-mingw32/bin/../lib/gcc/nios2-elf/4.7.3/../../../../../H-i686-mingw32/nios2-elf/lib\libc.a(lib_a-strcmp.o)
 .debug_abbrev  0x00005ada      0x1f5 c:/altera/13.1/nios2eds/bin/gnu/h-i686-mingw32/bin/../lib/gcc/nios2-elf/4.7.3/../../../../../H-i686-mingw32/nios2-elf/lib\libc.a(lib_a-callocr.o)
 .debug_abbrev  0x00005ccf      0x1ca c:/altera/13.1/nios2eds/bin/gnu/h-i686-mingw32/bin/../lib/gcc/nios2-elf/4.7.3/../../../../../H-i686-mingw32/nios2-elf/lib\libc.a(lib_a-fstatr.o)
 .debug_abbrev  0x00005e99      0x1bb c:/altera/13.1/nios2eds/bin/gnu/h-i686-mingw32/bin/../lib/gcc/nios2-elf/4.7.3/../../../../../H-i686-mingw32/nios2-elf/lib\libc.a(lib_a-isattyr.o)
 .debug_abbrev  0x00006054       0xe0 c:/altera/13.1/nios2eds/bin/gnu/h-i686-mingw32/bin/../lib/gcc/nios2-elf/4.7.3\libgcc.a(_muldi3.o)
 .debug_abbrev  0x00006134      0x170 c:/altera/13.1/nios2eds/bin/gnu/h-i686-mingw32/bin/../lib/gcc/nios2-elf/4.7.3\libgcc.a(_udivdi3.o)
 .debug_abbrev  0x000062a4      0x193 c:/altera/13.1/nios2eds/bin/gnu/h-i686-mingw32/bin/../lib/gcc/nios2-elf/4.7.3\libgcc.a(_umoddi3.o)
 .debug_abbrev  0x00006437      0x22d c:/altera/13.1/nios2eds/bin/gnu/h-i686-mingw32/bin/../lib/gcc/nios2-elf/4.7.3\libgcc.a(_addsub_df.o)
 .debug_abbrev  0x00006664      0x240 c:/altera/13.1/nios2eds/bin/gnu/h-i686-mingw32/bin/../lib/gcc/nios2-elf/4.7.3\libgcc.a(_mul_df.o)
 .debug_abbrev  0x000068a4      0x245 c:/altera/13.1/nios2eds/bin/gnu/h-i686-mingw32/bin/../lib/gcc/nios2-elf/4.7.3\libgcc.a(_div_df.o)
 .debug_abbrev  0x00006ae9      0x1a5 c:/altera/13.1/nios2eds/bin/gnu/h-i686-mingw32/bin/../lib/gcc/nios2-elf/4.7.3\libgcc.a(_eq_df.o)
 .debug_abbrev  0x00006c8e      0x1a5 c:/altera/13.1/nios2eds/bin/gnu/h-i686-mingw32/bin/../lib/gcc/nios2-elf/4.7.3\libgcc.a(_ne_df.o)
 .debug_abbrev  0x00006e33      0x1a5 c:/altera/13.1/nios2eds/bin/gnu/h-i686-mingw32/bin/../lib/gcc/nios2-elf/4.7.3\libgcc.a(_gt_df.o)
 .debug_abbrev  0x00006fd8      0x1a5 c:/altera/13.1/nios2eds/bin/gnu/h-i686-mingw32/bin/../lib/gcc/nios2-elf/4.7.3\libgcc.a(_ge_df.o)
 .debug_abbrev  0x0000717d      0x1a5 c:/altera/13.1/nios2eds/bin/gnu/h-i686-mingw32/bin/../lib/gcc/nios2-elf/4.7.3\libgcc.a(_lt_df.o)
 .debug_abbrev  0x00007322      0x19c c:/altera/13.1/nios2eds/bin/gnu/h-i686-mingw32/bin/../lib/gcc/nios2-elf/4.7.3\libgcc.a(_si_to_df.o)
 .debug_abbrev  0x000074be      0x1ae c:/altera/13.1/nios2eds/bin/gnu/h-i686-mingw32/bin/../lib/gcc/nios2-elf/4.7.3\libgcc.a(_df_to_si.o)
 .debug_abbrev  0x0000766c       0xb6 c:/altera/13.1/nios2eds/bin/gnu/h-i686-mingw32/bin/../lib/gcc/nios2-elf/4.7.3\libgcc.a(_thenan_df.o)
 .debug_abbrev  0x00007722      0x1bf c:/altera/13.1/nios2eds/bin/gnu/h-i686-mingw32/bin/../lib/gcc/nios2-elf/4.7.3\libgcc.a(_usi_to_df.o)
 .debug_abbrev  0x000078e1       0x5d c:/altera/13.1/nios2eds/bin/gnu/h-i686-mingw32/bin/../lib/gcc/nios2-elf/4.7.3\libgcc.a(_clz.o)
 .debug_abbrev  0x0000793e       0xbe c:/altera/13.1/nios2eds/bin/gnu/h-i686-mingw32/bin/../lib/gcc/nios2-elf/4.7.3\libgcc.a(_clzsi2.o)
 .debug_abbrev  0x000079fc      0x1b6 c:/altera/13.1/nios2eds/bin/gnu/h-i686-mingw32/bin/../lib/gcc/nios2-elf/4.7.3\libgcc.a(_pack_df.o)
 .debug_abbrev  0x00007bb2      0x15d c:/altera/13.1/nios2eds/bin/gnu/h-i686-mingw32/bin/../lib/gcc/nios2-elf/4.7.3\libgcc.a(_unpack_df.o)
 .debug_abbrev  0x00007d0f      0x146 c:/altera/13.1/nios2eds/bin/gnu/h-i686-mingw32/bin/../lib/gcc/nios2-elf/4.7.3\libgcc.a(_fpcmp_parts_df.o)
 .debug_abbrev  0x00007e55       0xf1 c:/altera/13.1/nios2eds/bin/gnu/h-i686-mingw32/bin/../lib/gcc/nios2-elf/4.7.3\libgcc.a(_lshrdi3.o)
 .debug_abbrev  0x00007f46       0xf1 c:/altera/13.1/nios2eds/bin/gnu/h-i686-mingw32/bin/../lib/gcc/nios2-elf/4.7.3\libgcc.a(_ashldi3.o)
 .debug_abbrev  0x00008037      0x17d ../UcosiiBSP_for_cpu_s0/\libucosii_bsp.a(alt_close.o)
 .debug_abbrev  0x000081b4      0x11c ../UcosiiBSP_for_cpu_s0/\libucosii_bsp.a(alt_dev.o)
 .debug_abbrev  0x000082d0       0x5a ../UcosiiBSP_for_cpu_s0/\libucosii_bsp.a(alt_errno.o)
 .debug_abbrev  0x0000832a       0xde ../UcosiiBSP_for_cpu_s0/\libucosii_bsp.a(alt_exit.o)
 .debug_abbrev  0x00008408      0x146 ../UcosiiBSP_for_cpu_s0/\libucosii_bsp.a(alt_fstat.o)
 .debug_abbrev  0x0000854e      0x1a7 ../UcosiiBSP_for_cpu_s0/\libucosii_bsp.a(alt_irq_register.o)
 .debug_abbrev  0x000086f5       0x40 ../UcosiiBSP_for_cpu_s0/\libucosii_bsp.a(alt_irq_vars.o)
 .debug_abbrev  0x00008735      0x158 ../UcosiiBSP_for_cpu_s0/\libucosii_bsp.a(alt_isatty.o)
 .debug_abbrev  0x0000888d       0xd6 ../UcosiiBSP_for_cpu_s0/\libucosii_bsp.a(alt_load.o)
 .debug_abbrev  0x00008963      0x143 ../UcosiiBSP_for_cpu_s0/\libucosii_bsp.a(alt_lseek.o)
 .debug_abbrev  0x00008aa6      0x1fb ../UcosiiBSP_for_cpu_s0/\libucosii_bsp.a(alt_main.o)
 .debug_abbrev  0x00008ca1      0x161 ../UcosiiBSP_for_cpu_s0/\libucosii_bsp.a(alt_read.o)
 .debug_abbrev  0x00008e02       0xe5 ../UcosiiBSP_for_cpu_s0/\libucosii_bsp.a(alt_release_fd.o)
 .debug_abbrev  0x00008ee7      0x131 ../UcosiiBSP_for_cpu_s0/\libucosii_bsp.a(alt_sbrk.o)
 .debug_abbrev  0x00009018      0x128 ../UcosiiBSP_for_cpu_s0/\libucosii_bsp.a(alt_usleep.o)
 .debug_abbrev  0x00009140      0x166 ../UcosiiBSP_for_cpu_s0/\libucosii_bsp.a(alt_write.o)
 .debug_abbrev  0x000092a6      0x24c ../UcosiiBSP_for_cpu_s0/\libucosii_bsp.a(alt_env_lock.o)
 .debug_abbrev  0x000094f2      0x2df ../UcosiiBSP_for_cpu_s0/\libucosii_bsp.a(alt_malloc_lock.o)
 .debug_abbrev  0x000097d1      0x48d ../UcosiiBSP_for_cpu_s0/\libucosii_bsp.a(os_core.o)
 .debug_abbrev  0x00009c5e       0xf5 ../UcosiiBSP_for_cpu_s0/\libucosii_bsp.a(os_dbg.o)
 .debug_abbrev  0x00009d53      0x35f ../UcosiiBSP_for_cpu_s0/\libucosii_bsp.a(os_flag.o)
 .debug_abbrev  0x0000a0b2      0x2a4 ../UcosiiBSP_for_cpu_s0/\libucosii_bsp.a(os_mem.o)
 .debug_abbrev  0x0000a356      0x328 ../UcosiiBSP_for_cpu_s0/\libucosii_bsp.a(os_mutex.o)
 .debug_abbrev  0x0000a67e      0x310 ../UcosiiBSP_for_cpu_s0/\libucosii_bsp.a(os_q.o)
 .debug_abbrev  0x0000a98e      0x348 ../UcosiiBSP_for_cpu_s0/\libucosii_bsp.a(os_sem.o)
 .debug_abbrev  0x0000acd6      0x30f ../UcosiiBSP_for_cpu_s0/\libucosii_bsp.a(os_task.o)
 .debug_abbrev  0x0000afe5      0x2b3 ../UcosiiBSP_for_cpu_s0/\libucosii_bsp.a(os_time.o)
 .debug_abbrev  0x0000b298      0x23a ../UcosiiBSP_for_cpu_s0/\libucosii_bsp.a(alt_sys_init.o)
 .debug_abbrev  0x0000b4d2      0x1ad ../UcosiiBSP_for_cpu_s0/\libucosii_bsp.a(altera_avalon_jtag_uart_fd.o)
 .debug_abbrev  0x0000b67f      0x29e ../UcosiiBSP_for_cpu_s0/\libucosii_bsp.a(altera_avalon_jtag_uart_init.o)
 .debug_abbrev  0x0000b91d      0x156 ../UcosiiBSP_for_cpu_s0/\libucosii_bsp.a(altera_avalon_jtag_uart_ioctl.o)
 .debug_abbrev  0x0000ba73      0x279 ../UcosiiBSP_for_cpu_s0/\libucosii_bsp.a(altera_avalon_jtag_uart_read.o)
 .debug_abbrev  0x0000bcec      0x284 ../UcosiiBSP_for_cpu_s0/\libucosii_bsp.a(altera_avalon_jtag_uart_write.o)
 .debug_abbrev  0x0000bf70      0x1b0 ../UcosiiBSP_for_cpu_s0/\libucosii_bsp.a(altera_avalon_timer_sc.o)
 .debug_abbrev  0x0000c120      0x187 ../UcosiiBSP_for_cpu_s0/\libucosii_bsp.a(alt_alarm_start.o)
 .debug_abbrev  0x0000c2a7       0x8d ../UcosiiBSP_for_cpu_s0/\libucosii_bsp.a(alt_busy_sleep.o)
 .debug_abbrev  0x0000c334       0x42 ../UcosiiBSP_for_cpu_s0/\libucosii_bsp.a(alt_dcache_flush_all.o)
 .debug_abbrev  0x0000c376      0x11e ../UcosiiBSP_for_cpu_s0/\libucosii_bsp.a(alt_dev_llist_insert.o)
 .debug_abbrev  0x0000c494       0x79 ../UcosiiBSP_for_cpu_s0/\libucosii_bsp.a(alt_do_ctors.o)
 .debug_abbrev  0x0000c50d       0x79 ../UcosiiBSP_for_cpu_s0/\libucosii_bsp.a(alt_do_dtors.o)
 .debug_abbrev  0x0000c586       0x8a ../UcosiiBSP_for_cpu_s0/\libucosii_bsp.a(alt_icache_flush_all.o)
 .debug_abbrev  0x0000c610      0x1e6 ../UcosiiBSP_for_cpu_s0/\libucosii_bsp.a(alt_io_redirect.o)
 .debug_abbrev  0x0000c7f6       0x12 ../UcosiiBSP_for_cpu_s0/\libucosii_bsp.a(alt_irq_entry.o)
 .debug_abbrev  0x0000c808      0x157 ../UcosiiBSP_for_cpu_s0/\libucosii_bsp.a(alt_irq_handler.o)
 .debug_abbrev  0x0000c95f      0x1f1 ../UcosiiBSP_for_cpu_s0/\libucosii_bsp.a(alt_open.o)
 .debug_abbrev  0x0000cb50      0x19e ../UcosiiBSP_for_cpu_s0/\libucosii_bsp.a(alt_tick.o)
 .debug_abbrev  0x0000ccee       0x67 ../UcosiiBSP_for_cpu_s0/\libucosii_bsp.a(altera_nios2_qsys_irq.o)
 .debug_abbrev  0x0000cd55       0x14 ../UcosiiBSP_for_cpu_s0/\libucosii_bsp.a(os_cpu_a.o)
 .debug_abbrev  0x0000cd69      0x22e ../UcosiiBSP_for_cpu_s0/\libucosii_bsp.a(os_cpu_c.o)
 .debug_abbrev  0x0000cf97       0x12 ../UcosiiBSP_for_cpu_s0/\libucosii_bsp.a(alt_exception_entry.o)
 .debug_abbrev  0x0000cfa9      0x135 ../UcosiiBSP_for_cpu_s0/\libucosii_bsp.a(alt_find_dev.o)
 .debug_abbrev  0x0000d0de      0x146 ../UcosiiBSP_for_cpu_s0/\libucosii_bsp.a(alt_find_file.o)
 .debug_abbrev  0x0000d224      0x1ec ../UcosiiBSP_for_cpu_s0/\libucosii_bsp.a(alt_get_fd.o)
 .debug_abbrev  0x0000d410       0x9b ../UcosiiBSP_for_cpu_s0/\libucosii_bsp.a(alt_icache_flush.o)
 .debug_abbrev  0x0000d4ab      0x106 c:/altera/13.1/nios2eds/bin/gnu/h-i686-mingw32/bin/../lib/gcc/nios2-elf/4.7.3/../../../../../H-i686-mingw32/nios2-elf/lib\libc.a(lib_a-atexit.o)
 .debug_abbrev  0x0000d5b1       0x7f c:/altera/13.1/nios2eds/bin/gnu/h-i686-mingw32/bin/../lib/gcc/nios2-elf/4.7.3/../../../../../H-i686-mingw32/nios2-elf/lib\libc.a(lib_a-memcmp.o)
 .debug_abbrev  0x0000d630      0x211 c:/altera/13.1/nios2eds/bin/gnu/h-i686-mingw32/bin/../lib/gcc/nios2-elf/4.7.3/../../../../../H-i686-mingw32/nios2-elf/lib\libc.a(lib_a-__atexit.o)
 .debug_abbrev  0x0000d841       0x60 c:/altera/13.1/nios2eds/bin/gnu/h-i686-mingw32/bin/../lib/gcc/nios2-elf/4.7.3\libgcc.a(_fixunsdfsi.o)

.debug_line     0x00000000    0x11e40
 *(.debug_line)
 .debug_line    0x00000000       0x6c ../UcosiiBSP_for_cpu_s0//obj/HAL/src/crt0.o
 .debug_line    0x0000006c      0x6a1 obj/default/MCAPI_Top/mcapi.o
 .debug_line    0x0000070d     0x2aca obj/default/MCAPI_Transport/mcapi_trans_nios.o
 .debug_line    0x000031d7      0x6fd obj/default/NS_Layer/NS_layer.o
 .debug_line    0x000038d4      0x569 obj/default/PH_FifoDriver_UCOSII/PH_layer.o
 .debug_line    0x00003e3d      0x4e7 obj/default/SysTestNode1.o
 .debug_line    0x00004324      0x194 obj/default/UTILS/util_packet_handling.o
 .debug_line    0x000044b8       0xd3 c:/altera/13.1/nios2eds/bin/gnu/h-i686-mingw32/bin/../lib/gcc/nios2-elf/4.7.3\libgcc.a(lib2-divmod.o)
 .debug_line    0x0000458b       0x69 c:/altera/13.1/nios2eds/bin/gnu/h-i686-mingw32/bin/../lib/gcc/nios2-elf/4.7.3\libgcc.a(lib2-divtable.o)
 .debug_line    0x000045f4      0x219 c:/altera/13.1/nios2eds/bin/gnu/h-i686-mingw32/bin/../lib/gcc/nios2-elf/4.7.3/../../../../../H-i686-mingw32/nios2-elf/lib\libc.a(lib_a-exit.o)
 .debug_line    0x0000480d      0x29c c:/altera/13.1/nios2eds/bin/gnu/h-i686-mingw32/bin/../lib/gcc/nios2-elf/4.7.3/../../../../../H-i686-mingw32/nios2-elf/lib\libc.a(lib_a-fflush.o)
 .debug_line    0x00004aa9      0x2e6 c:/altera/13.1/nios2eds/bin/gnu/h-i686-mingw32/bin/../lib/gcc/nios2-elf/4.7.3/../../../../../H-i686-mingw32/nios2-elf/lib\libc.a(lib_a-findfp.o)
 .debug_line    0x00004d8f      0x218 c:/altera/13.1/nios2eds/bin/gnu/h-i686-mingw32/bin/../lib/gcc/nios2-elf/4.7.3/../../../../../H-i686-mingw32/nios2-elf/lib\libc.a(lib_a-fprintf.o)
 .debug_line    0x00004fa7      0x259 c:/altera/13.1/nios2eds/bin/gnu/h-i686-mingw32/bin/../lib/gcc/nios2-elf/4.7.3/../../../../../H-i686-mingw32/nios2-elf/lib\libc.a(lib_a-fwalk.o)
 .debug_line    0x00005200      0x240 c:/altera/13.1/nios2eds/bin/gnu/h-i686-mingw32/bin/../lib/gcc/nios2-elf/4.7.3/../../../../../H-i686-mingw32/nios2-elf/lib\libc.a(lib_a-fwrite.o)
 .debug_line    0x00005440      0x173 c:/altera/13.1/nios2eds/bin/gnu/h-i686-mingw32/bin/../lib/gcc/nios2-elf/4.7.3/../../../../../H-i686-mingw32/nios2-elf/lib\libc.a(lib_a-impure.o)
 .debug_line    0x000055b3      0x421 c:/altera/13.1/nios2eds/bin/gnu/h-i686-mingw32/bin/../lib/gcc/nios2-elf/4.7.3/../../../../../H-i686-mingw32/nios2-elf/lib\libc.a(lib_a-mallocr.o)
 .debug_line    0x000059d4      0x13d c:/altera/13.1/nios2eds/bin/gnu/h-i686-mingw32/bin/../lib/gcc/nios2-elf/4.7.3/../../../../../H-i686-mingw32/nios2-elf/lib\libc.a(lib_a-memcpy.o)
 .debug_line    0x00005b11      0x1f1 c:/altera/13.1/nios2eds/bin/gnu/h-i686-mingw32/bin/../lib/gcc/nios2-elf/4.7.3/../../../../../H-i686-mingw32/nios2-elf/lib\libc.a(lib_a-memset.o)
 .debug_line    0x00005d02      0x218 c:/altera/13.1/nios2eds/bin/gnu/h-i686-mingw32/bin/../lib/gcc/nios2-elf/4.7.3/../../../../../H-i686-mingw32/nios2-elf/lib\libc.a(lib_a-printf.o)
 .debug_line    0x00005f1a      0x235 c:/altera/13.1/nios2eds/bin/gnu/h-i686-mingw32/bin/../lib/gcc/nios2-elf/4.7.3/../../../../../H-i686-mingw32/nios2-elf/lib\libc.a(lib_a-puts.o)
 .debug_line    0x0000614f      0x20b c:/altera/13.1/nios2eds/bin/gnu/h-i686-mingw32/bin/../lib/gcc/nios2-elf/4.7.3/../../../../../H-i686-mingw32/nios2-elf/lib\libc.a(lib_a-rand.o)
 .debug_line    0x0000635a      0x212 c:/altera/13.1/nios2eds/bin/gnu/h-i686-mingw32/bin/../lib/gcc/nios2-elf/4.7.3/../../../../../H-i686-mingw32/nios2-elf/lib\libc.a(lib_a-sbrkr.o)
 .debug_line    0x0000656c      0x245 c:/altera/13.1/nios2eds/bin/gnu/h-i686-mingw32/bin/../lib/gcc/nios2-elf/4.7.3/../../../../../H-i686-mingw32/nios2-elf/lib\libc.a(lib_a-stdio.o)
 .debug_line    0x000067b1      0x182 c:/altera/13.1/nios2eds/bin/gnu/h-i686-mingw32/bin/../lib/gcc/nios2-elf/4.7.3/../../../../../H-i686-mingw32/nios2-elf/lib\libc.a(lib_a-strlen.o)
 .debug_line    0x00006933      0xaf9 c:/altera/13.1/nios2eds/bin/gnu/h-i686-mingw32/bin/../lib/gcc/nios2-elf/4.7.3/../../../../../H-i686-mingw32/nios2-elf/lib\libc.a(lib_a-vfprintf.o)
 .debug_line    0x0000742c      0x213 c:/altera/13.1/nios2eds/bin/gnu/h-i686-mingw32/bin/../lib/gcc/nios2-elf/4.7.3/../../../../../H-i686-mingw32/nios2-elf/lib\libc.a(lib_a-writer.o)
 .debug_line    0x0000763f      0x26b c:/altera/13.1/nios2eds/bin/gnu/h-i686-mingw32/bin/../lib/gcc/nios2-elf/4.7.3/../../../../../H-i686-mingw32/nios2-elf/lib\libc.a(lib_a-wsetup.o)
 .debug_line    0x000078aa      0x264 c:/altera/13.1/nios2eds/bin/gnu/h-i686-mingw32/bin/../lib/gcc/nios2-elf/4.7.3/../../../../../H-i686-mingw32/nios2-elf/lib\libc.a(lib_a-__call_atexit.o)
 .debug_line    0x00007b0e      0x213 c:/altera/13.1/nios2eds/bin/gnu/h-i686-mingw32/bin/../lib/gcc/nios2-elf/4.7.3/../../../../../H-i686-mingw32/nios2-elf/lib\libc.a(lib_a-closer.o)
 .debug_line    0x00007d21      0x876 c:/altera/13.1/nios2eds/bin/gnu/h-i686-mingw32/bin/../lib/gcc/nios2-elf/4.7.3/../../../../../H-i686-mingw32/nios2-elf/lib\libc.a(lib_a-dtoa.o)
 .debug_line    0x00008597      0x266 c:/altera/13.1/nios2eds/bin/gnu/h-i686-mingw32/bin/../lib/gcc/nios2-elf/4.7.3/../../../../../H-i686-mingw32/nios2-elf/lib\libc.a(lib_a-fclose.o)
 .debug_line    0x000087fd      0x311 c:/altera/13.1/nios2eds/bin/gnu/h-i686-mingw32/bin/../lib/gcc/nios2-elf/4.7.3/../../../../../H-i686-mingw32/nios2-elf/lib\libc.a(lib_a-freer.o)
 .debug_line    0x00008b0e      0x360 c:/altera/13.1/nios2eds/bin/gnu/h-i686-mingw32/bin/../lib/gcc/nios2-elf/4.7.3/../../../../../H-i686-mingw32/nios2-elf/lib\libc.a(lib_a-fvwrite.o)
 .debug_line    0x00008e6e       0x5d c:/altera/13.1/nios2eds/bin/gnu/h-i686-mingw32/bin/../lib/gcc/nios2-elf/4.7.3/../../../../../H-i686-mingw32/nios2-elf/lib\libc.a(lib_a-int_errno.o)
 .debug_line    0x00008ecb      0x231 c:/altera/13.1/nios2eds/bin/gnu/h-i686-mingw32/bin/../lib/gcc/nios2-elf/4.7.3/../../../../../H-i686-mingw32/nios2-elf/lib\libc.a(lib_a-locale.o)
 .debug_line    0x000090fc      0x21e c:/altera/13.1/nios2eds/bin/gnu/h-i686-mingw32/bin/../lib/gcc/nios2-elf/4.7.3/../../../../../H-i686-mingw32/nios2-elf/lib\libc.a(lib_a-lseekr.o)
 .debug_line    0x0000931a      0x293 c:/altera/13.1/nios2eds/bin/gnu/h-i686-mingw32/bin/../lib/gcc/nios2-elf/4.7.3/../../../../../H-i686-mingw32/nios2-elf/lib\libc.a(lib_a-makebuf.o)
 .debug_line    0x000095ad      0x1f1 c:/altera/13.1/nios2eds/bin/gnu/h-i686-mingw32/bin/../lib/gcc/nios2-elf/4.7.3/../../../../../H-i686-mingw32/nios2-elf/lib\libc.a(lib_a-memchr.o)
 .debug_line    0x0000979e      0x1ed c:/altera/13.1/nios2eds/bin/gnu/h-i686-mingw32/bin/../lib/gcc/nios2-elf/4.7.3/../../../../../H-i686-mingw32/nios2-elf/lib\libc.a(lib_a-memmove.o)
 .debug_line    0x0000998b      0x725 c:/altera/13.1/nios2eds/bin/gnu/h-i686-mingw32/bin/../lib/gcc/nios2-elf/4.7.3/../../../../../H-i686-mingw32/nios2-elf/lib\libc.a(lib_a-mprec.o)
 .debug_line    0x0000a0b0      0x212 c:/altera/13.1/nios2eds/bin/gnu/h-i686-mingw32/bin/../lib/gcc/nios2-elf/4.7.3/../../../../../H-i686-mingw32/nios2-elf/lib\libc.a(lib_a-readr.o)
 .debug_line    0x0000a2c2      0x330 c:/altera/13.1/nios2eds/bin/gnu/h-i686-mingw32/bin/../lib/gcc/nios2-elf/4.7.3/../../../../../H-i686-mingw32/nios2-elf/lib\libc.a(lib_a-reallocr.o)
 .debug_line    0x0000a5f2      0x170 c:/altera/13.1/nios2eds/bin/gnu/h-i686-mingw32/bin/../lib/gcc/nios2-elf/4.7.3/../../../../../H-i686-mingw32/nios2-elf/lib\libc.a(lib_a-s_isinfd.o)
 .debug_line    0x0000a762      0x170 c:/altera/13.1/nios2eds/bin/gnu/h-i686-mingw32/bin/../lib/gcc/nios2-elf/4.7.3/../../../../../H-i686-mingw32/nios2-elf/lib\libc.a(lib_a-s_isnand.o)
 .debug_line    0x0000a8d2      0x110 c:/altera/13.1/nios2eds/bin/gnu/h-i686-mingw32/bin/../lib/gcc/nios2-elf/4.7.3/../../../../../H-i686-mingw32/nios2-elf/lib\libc.a(lib_a-strcmp.o)
 .debug_line    0x0000a9e2      0x1c9 c:/altera/13.1/nios2eds/bin/gnu/h-i686-mingw32/bin/../lib/gcc/nios2-elf/4.7.3/../../../../../H-i686-mingw32/nios2-elf/lib\libc.a(lib_a-callocr.o)
 .debug_line    0x0000abab      0x21c c:/altera/13.1/nios2eds/bin/gnu/h-i686-mingw32/bin/../lib/gcc/nios2-elf/4.7.3/../../../../../H-i686-mingw32/nios2-elf/lib\libc.a(lib_a-fstatr.o)
 .debug_line    0x0000adc7      0x214 c:/altera/13.1/nios2eds/bin/gnu/h-i686-mingw32/bin/../lib/gcc/nios2-elf/4.7.3/../../../../../H-i686-mingw32/nios2-elf/lib\libc.a(lib_a-isattyr.o)
 .debug_line    0x0000afdb       0x8b c:/altera/13.1/nios2eds/bin/gnu/h-i686-mingw32/bin/../lib/gcc/nios2-elf/4.7.3\libgcc.a(_muldi3.o)
 .debug_line    0x0000b066      0x119 c:/altera/13.1/nios2eds/bin/gnu/h-i686-mingw32/bin/../lib/gcc/nios2-elf/4.7.3\libgcc.a(_udivdi3.o)
 .debug_line    0x0000b17f      0x121 c:/altera/13.1/nios2eds/bin/gnu/h-i686-mingw32/bin/../lib/gcc/nios2-elf/4.7.3\libgcc.a(_umoddi3.o)
 .debug_line    0x0000b2a0      0x131 c:/altera/13.1/nios2eds/bin/gnu/h-i686-mingw32/bin/../lib/gcc/nios2-elf/4.7.3\libgcc.a(_addsub_df.o)
 .debug_line    0x0000b3d1      0x114 c:/altera/13.1/nios2eds/bin/gnu/h-i686-mingw32/bin/../lib/gcc/nios2-elf/4.7.3\libgcc.a(_mul_df.o)
 .debug_line    0x0000b4e5       0xce c:/altera/13.1/nios2eds/bin/gnu/h-i686-mingw32/bin/../lib/gcc/nios2-elf/4.7.3\libgcc.a(_div_df.o)
 .debug_line    0x0000b5b3       0x6d c:/altera/13.1/nios2eds/bin/gnu/h-i686-mingw32/bin/../lib/gcc/nios2-elf/4.7.3\libgcc.a(_eq_df.o)
 .debug_line    0x0000b620       0x6d c:/altera/13.1/nios2eds/bin/gnu/h-i686-mingw32/bin/../lib/gcc/nios2-elf/4.7.3\libgcc.a(_ne_df.o)
 .debug_line    0x0000b68d       0x6e c:/altera/13.1/nios2eds/bin/gnu/h-i686-mingw32/bin/../lib/gcc/nios2-elf/4.7.3\libgcc.a(_gt_df.o)
 .debug_line    0x0000b6fb       0x6e c:/altera/13.1/nios2eds/bin/gnu/h-i686-mingw32/bin/../lib/gcc/nios2-elf/4.7.3\libgcc.a(_ge_df.o)
 .debug_line    0x0000b769       0x6d c:/altera/13.1/nios2eds/bin/gnu/h-i686-mingw32/bin/../lib/gcc/nios2-elf/4.7.3\libgcc.a(_lt_df.o)
 .debug_line    0x0000b7d6       0x94 c:/altera/13.1/nios2eds/bin/gnu/h-i686-mingw32/bin/../lib/gcc/nios2-elf/4.7.3\libgcc.a(_si_to_df.o)
 .debug_line    0x0000b86a       0x8d c:/altera/13.1/nios2eds/bin/gnu/h-i686-mingw32/bin/../lib/gcc/nios2-elf/4.7.3\libgcc.a(_df_to_si.o)
 .debug_line    0x0000b8f7       0x51 c:/altera/13.1/nios2eds/bin/gnu/h-i686-mingw32/bin/../lib/gcc/nios2-elf/4.7.3\libgcc.a(_thenan_df.o)
 .debug_line    0x0000b948       0x9e c:/altera/13.1/nios2eds/bin/gnu/h-i686-mingw32/bin/../lib/gcc/nios2-elf/4.7.3\libgcc.a(_usi_to_df.o)
 .debug_line    0x0000b9e6       0x53 c:/altera/13.1/nios2eds/bin/gnu/h-i686-mingw32/bin/../lib/gcc/nios2-elf/4.7.3\libgcc.a(_clz.o)
 .debug_line    0x0000ba39       0x8c c:/altera/13.1/nios2eds/bin/gnu/h-i686-mingw32/bin/../lib/gcc/nios2-elf/4.7.3\libgcc.a(_clzsi2.o)
 .debug_line    0x0000bac5       0xc7 c:/altera/13.1/nios2eds/bin/gnu/h-i686-mingw32/bin/../lib/gcc/nios2-elf/4.7.3\libgcc.a(_pack_df.o)
 .debug_line    0x0000bb8c       0xa2 c:/altera/13.1/nios2eds/bin/gnu/h-i686-mingw32/bin/../lib/gcc/nios2-elf/4.7.3\libgcc.a(_unpack_df.o)
 .debug_line    0x0000bc2e       0x96 c:/altera/13.1/nios2eds/bin/gnu/h-i686-mingw32/bin/../lib/gcc/nios2-elf/4.7.3\libgcc.a(_fpcmp_parts_df.o)
 .debug_line    0x0000bcc4       0x77 c:/altera/13.1/nios2eds/bin/gnu/h-i686-mingw32/bin/../lib/gcc/nios2-elf/4.7.3\libgcc.a(_lshrdi3.o)
 .debug_line    0x0000bd3b       0x75 c:/altera/13.1/nios2eds/bin/gnu/h-i686-mingw32/bin/../lib/gcc/nios2-elf/4.7.3\libgcc.a(_ashldi3.o)
 .debug_line    0x0000bdb0      0x1a5 ../UcosiiBSP_for_cpu_s0/\libucosii_bsp.a(alt_close.o)
 .debug_line    0x0000bf55      0x16f ../UcosiiBSP_for_cpu_s0/\libucosii_bsp.a(alt_dev.o)
 .debug_line    0x0000c0c4       0x51 ../UcosiiBSP_for_cpu_s0/\libucosii_bsp.a(alt_errno.o)
 .debug_line    0x0000c115       0xd6 ../UcosiiBSP_for_cpu_s0/\libucosii_bsp.a(alt_exit.o)
 .debug_line    0x0000c1eb      0x18d ../UcosiiBSP_for_cpu_s0/\libucosii_bsp.a(alt_fstat.o)
 .debug_line    0x0000c378      0x107 ../UcosiiBSP_for_cpu_s0/\libucosii_bsp.a(alt_irq_register.o)
 .debug_line    0x0000c47f       0x50 ../UcosiiBSP_for_cpu_s0/\libucosii_bsp.a(alt_irq_vars.o)
 .debug_line    0x0000c4cf      0x197 ../UcosiiBSP_for_cpu_s0/\libucosii_bsp.a(alt_isatty.o)
 .debug_line    0x0000c666       0xdc ../UcosiiBSP_for_cpu_s0/\libucosii_bsp.a(alt_load.o)
 .debug_line    0x0000c742      0x194 ../UcosiiBSP_for_cpu_s0/\libucosii_bsp.a(alt_lseek.o)
 .debug_line    0x0000c8d6      0x264 ../UcosiiBSP_for_cpu_s0/\libucosii_bsp.a(alt_main.o)
 .debug_line    0x0000cb3a      0x21d ../UcosiiBSP_for_cpu_s0/\libucosii_bsp.a(alt_read.o)
 .debug_line    0x0000cd57       0xcf ../UcosiiBSP_for_cpu_s0/\libucosii_bsp.a(alt_release_fd.o)
 .debug_line    0x0000ce26      0x149 ../UcosiiBSP_for_cpu_s0/\libucosii_bsp.a(alt_sbrk.o)
 .debug_line    0x0000cf6f      0x193 ../UcosiiBSP_for_cpu_s0/\libucosii_bsp.a(alt_usleep.o)
 .debug_line    0x0000d102      0x215 ../UcosiiBSP_for_cpu_s0/\libucosii_bsp.a(alt_write.o)
 .debug_line    0x0000d317      0x1d9 ../UcosiiBSP_for_cpu_s0/\libucosii_bsp.a(alt_env_lock.o)
 .debug_line    0x0000d4f0      0x22c ../UcosiiBSP_for_cpu_s0/\libucosii_bsp.a(alt_malloc_lock.o)
 .debug_line    0x0000d71c      0x7c3 ../UcosiiBSP_for_cpu_s0/\libucosii_bsp.a(os_core.o)
 .debug_line    0x0000dedf       0xb5 ../UcosiiBSP_for_cpu_s0/\libucosii_bsp.a(os_dbg.o)
 .debug_line    0x0000df94      0x54c ../UcosiiBSP_for_cpu_s0/\libucosii_bsp.a(os_flag.o)
 .debug_line    0x0000e4e0      0x271 ../UcosiiBSP_for_cpu_s0/\libucosii_bsp.a(os_mem.o)
 .debug_line    0x0000e751      0x3a1 ../UcosiiBSP_for_cpu_s0/\libucosii_bsp.a(os_mutex.o)
 .debug_line    0x0000eaf2      0x45b ../UcosiiBSP_for_cpu_s0/\libucosii_bsp.a(os_q.o)
 .debug_line    0x0000ef4d      0x308 ../UcosiiBSP_for_cpu_s0/\libucosii_bsp.a(os_sem.o)
 .debug_line    0x0000f255      0x57a ../UcosiiBSP_for_cpu_s0/\libucosii_bsp.a(os_task.o)
 .debug_line    0x0000f7cf      0x221 ../UcosiiBSP_for_cpu_s0/\libucosii_bsp.a(os_time.o)
 .debug_line    0x0000f9f0      0x1aa ../UcosiiBSP_for_cpu_s0/\libucosii_bsp.a(alt_sys_init.o)
 .debug_line    0x0000fb9a      0x15c ../UcosiiBSP_for_cpu_s0/\libucosii_bsp.a(altera_avalon_jtag_uart_fd.o)
 .debug_line    0x0000fcf6      0x280 ../UcosiiBSP_for_cpu_s0/\libucosii_bsp.a(altera_avalon_jtag_uart_init.o)
 .debug_line    0x0000ff76      0x14a ../UcosiiBSP_for_cpu_s0/\libucosii_bsp.a(altera_avalon_jtag_uart_ioctl.o)
 .debug_line    0x000100c0      0x209 ../UcosiiBSP_for_cpu_s0/\libucosii_bsp.a(altera_avalon_jtag_uart_read.o)
 .debug_line    0x000102c9      0x224 ../UcosiiBSP_for_cpu_s0/\libucosii_bsp.a(altera_avalon_jtag_uart_write.o)
 .debug_line    0x000104ed      0x113 ../UcosiiBSP_for_cpu_s0/\libucosii_bsp.a(altera_avalon_timer_sc.o)
 .debug_line    0x00010600       0xff ../UcosiiBSP_for_cpu_s0/\libucosii_bsp.a(alt_alarm_start.o)
 .debug_line    0x000106ff       0x9f ../UcosiiBSP_for_cpu_s0/\libucosii_bsp.a(alt_busy_sleep.o)
 .debug_line    0x0001079e       0x4e ../UcosiiBSP_for_cpu_s0/\libucosii_bsp.a(alt_dcache_flush_all.o)
 .debug_line    0x000107ec       0xcd ../UcosiiBSP_for_cpu_s0/\libucosii_bsp.a(alt_dev_llist_insert.o)
 .debug_line    0x000108b9       0x5f ../UcosiiBSP_for_cpu_s0/\libucosii_bsp.a(alt_do_ctors.o)
 .debug_line    0x00010918       0x5f ../UcosiiBSP_for_cpu_s0/\libucosii_bsp.a(alt_do_dtors.o)
 .debug_line    0x00010977       0x87 ../UcosiiBSP_for_cpu_s0/\libucosii_bsp.a(alt_icache_flush_all.o)
 .debug_line    0x000109fe      0x1a8 ../UcosiiBSP_for_cpu_s0/\libucosii_bsp.a(alt_io_redirect.o)
 .debug_line    0x00010ba6       0x6b ../UcosiiBSP_for_cpu_s0/\libucosii_bsp.a(alt_irq_entry.o)
 .debug_line    0x00010c11       0xfb ../UcosiiBSP_for_cpu_s0/\libucosii_bsp.a(alt_irq_handler.o)
 .debug_line    0x00010d0c      0x135 ../UcosiiBSP_for_cpu_s0/\libucosii_bsp.a(alt_open.o)
 .debug_line    0x00010e41      0x159 ../UcosiiBSP_for_cpu_s0/\libucosii_bsp.a(alt_tick.o)
 .debug_line    0x00010f9a       0x8c ../UcosiiBSP_for_cpu_s0/\libucosii_bsp.a(altera_nios2_qsys_irq.o)
 .debug_line    0x00011026       0x86 ../UcosiiBSP_for_cpu_s0/\libucosii_bsp.a(os_cpu_a.o)
 .debug_line    0x000110ac      0x1e0 ../UcosiiBSP_for_cpu_s0/\libucosii_bsp.a(os_cpu_c.o)
 .debug_line    0x0001128c       0xab ../UcosiiBSP_for_cpu_s0/\libucosii_bsp.a(alt_exception_entry.o)
 .debug_line    0x00011337      0x1b6 ../UcosiiBSP_for_cpu_s0/\libucosii_bsp.a(alt_find_dev.o)
 .debug_line    0x000114ed      0x1d0 ../UcosiiBSP_for_cpu_s0/\libucosii_bsp.a(alt_find_file.o)
 .debug_line    0x000116bd      0x151 ../UcosiiBSP_for_cpu_s0/\libucosii_bsp.a(alt_get_fd.o)
 .debug_line    0x0001180e       0x7a ../UcosiiBSP_for_cpu_s0/\libucosii_bsp.a(alt_icache_flush.o)
 .debug_line    0x00011888      0x16d c:/altera/13.1/nios2eds/bin/gnu/h-i686-mingw32/bin/../lib/gcc/nios2-elf/4.7.3/../../../../../H-i686-mingw32/nios2-elf/lib\libc.a(lib_a-atexit.o)
 .debug_line    0x000119f5      0x18d c:/altera/13.1/nios2eds/bin/gnu/h-i686-mingw32/bin/../lib/gcc/nios2-elf/4.7.3/../../../../../H-i686-mingw32/nios2-elf/lib\libc.a(lib_a-memcmp.o)
 .debug_line    0x00011b82      0x250 c:/altera/13.1/nios2eds/bin/gnu/h-i686-mingw32/bin/../lib/gcc/nios2-elf/4.7.3/../../../../../H-i686-mingw32/nios2-elf/lib\libc.a(lib_a-__atexit.o)
 .debug_line    0x00011dd2       0x6e c:/altera/13.1/nios2eds/bin/gnu/h-i686-mingw32/bin/../lib/gcc/nios2-elf/4.7.3\libgcc.a(_fixunsdfsi.o)

.debug_frame    0x00000000     0x3768
 *(.debug_frame)
 .debug_frame   0x00000000      0x590 obj/default/MCAPI_Top/mcapi.o
 .debug_frame   0x00000590      0xd44 obj/default/MCAPI_Transport/mcapi_trans_nios.o
 .debug_frame   0x000012d4      0x1d0 obj/default/NS_Layer/NS_layer.o
 .debug_frame   0x000014a4       0xe0 obj/default/PH_FifoDriver_UCOSII/PH_layer.o
 .debug_frame   0x00001584      0x120 obj/default/SysTestNode1.o
 .debug_frame   0x000016a4      0x170 obj/default/UTILS/util_packet_handling.o
 .debug_frame   0x00001814       0x70 c:/altera/13.1/nios2eds/bin/gnu/h-i686-mingw32/bin/../lib/gcc/nios2-elf/4.7.3\libgcc.a(lib2-divmod.o)
 .debug_frame   0x00001884       0x28 c:/altera/13.1/nios2eds/bin/gnu/h-i686-mingw32/bin/../lib/gcc/nios2-elf/4.7.3/../../../../../H-i686-mingw32/nios2-elf/lib\libc.a(lib_a-exit.o)
 .debug_frame   0x000018ac       0x40 c:/altera/13.1/nios2eds/bin/gnu/h-i686-mingw32/bin/../lib/gcc/nios2-elf/4.7.3/../../../../../H-i686-mingw32/nios2-elf/lib\libc.a(lib_a-fflush.o)
 .debug_frame   0x000018ec      0x100 c:/altera/13.1/nios2eds/bin/gnu/h-i686-mingw32/bin/../lib/gcc/nios2-elf/4.7.3/../../../../../H-i686-mingw32/nios2-elf/lib\libc.a(lib_a-findfp.o)
 .debug_frame   0x000019ec       0x40 c:/altera/13.1/nios2eds/bin/gnu/h-i686-mingw32/bin/../lib/gcc/nios2-elf/4.7.3/../../../../../H-i686-mingw32/nios2-elf/lib\libc.a(lib_a-fprintf.o)
 .debug_frame   0x00001a2c       0x5c c:/altera/13.1/nios2eds/bin/gnu/h-i686-mingw32/bin/../lib/gcc/nios2-elf/4.7.3/../../../../../H-i686-mingw32/nios2-elf/lib\libc.a(lib_a-fwalk.o)
 .debug_frame   0x00001a88       0x48 c:/altera/13.1/nios2eds/bin/gnu/h-i686-mingw32/bin/../lib/gcc/nios2-elf/4.7.3/../../../../../H-i686-mingw32/nios2-elf/lib\libc.a(lib_a-fwrite.o)
 .debug_frame   0x00001ad0       0x38 c:/altera/13.1/nios2eds/bin/gnu/h-i686-mingw32/bin/../lib/gcc/nios2-elf/4.7.3/../../../../../H-i686-mingw32/nios2-elf/lib\libc.a(lib_a-mallocr.o)
 .debug_frame   0x00001b08       0x20 c:/altera/13.1/nios2eds/bin/gnu/h-i686-mingw32/bin/../lib/gcc/nios2-elf/4.7.3/../../../../../H-i686-mingw32/nios2-elf/lib\libc.a(lib_a-memcpy.o)
 .debug_frame   0x00001b28       0x20 c:/altera/13.1/nios2eds/bin/gnu/h-i686-mingw32/bin/../lib/gcc/nios2-elf/4.7.3/../../../../../H-i686-mingw32/nios2-elf/lib\libc.a(lib_a-memset.o)
 .debug_frame   0x00001b48       0x40 c:/altera/13.1/nios2eds/bin/gnu/h-i686-mingw32/bin/../lib/gcc/nios2-elf/4.7.3/../../../../../H-i686-mingw32/nios2-elf/lib\libc.a(lib_a-printf.o)
 .debug_frame   0x00001b88       0x3c c:/altera/13.1/nios2eds/bin/gnu/h-i686-mingw32/bin/../lib/gcc/nios2-elf/4.7.3/../../../../../H-i686-mingw32/nios2-elf/lib\libc.a(lib_a-puts.o)
 .debug_frame   0x00001bc4       0x3c c:/altera/13.1/nios2eds/bin/gnu/h-i686-mingw32/bin/../lib/gcc/nios2-elf/4.7.3/../../../../../H-i686-mingw32/nios2-elf/lib\libc.a(lib_a-rand.o)
 .debug_frame   0x00001c00       0x2c c:/altera/13.1/nios2eds/bin/gnu/h-i686-mingw32/bin/../lib/gcc/nios2-elf/4.7.3/../../../../../H-i686-mingw32/nios2-elf/lib\libc.a(lib_a-sbrkr.o)
 .debug_frame   0x00001c2c       0x78 c:/altera/13.1/nios2eds/bin/gnu/h-i686-mingw32/bin/../lib/gcc/nios2-elf/4.7.3/../../../../../H-i686-mingw32/nios2-elf/lib\libc.a(lib_a-stdio.o)
 .debug_frame   0x00001ca4       0x20 c:/altera/13.1/nios2eds/bin/gnu/h-i686-mingw32/bin/../lib/gcc/nios2-elf/4.7.3/../../../../../H-i686-mingw32/nios2-elf/lib\libc.a(lib_a-strlen.o)
 .debug_frame   0x00001cc4       0x64 c:/altera/13.1/nios2eds/bin/gnu/h-i686-mingw32/bin/../lib/gcc/nios2-elf/4.7.3/../../../../../H-i686-mingw32/nios2-elf/lib\libc.a(lib_a-vfprintf.o)
 .debug_frame   0x00001d28       0x2c c:/altera/13.1/nios2eds/bin/gnu/h-i686-mingw32/bin/../lib/gcc/nios2-elf/4.7.3/../../../../../H-i686-mingw32/nios2-elf/lib\libc.a(lib_a-writer.o)
 .debug_frame   0x00001d54       0x2c c:/altera/13.1/nios2eds/bin/gnu/h-i686-mingw32/bin/../lib/gcc/nios2-elf/4.7.3/../../../../../H-i686-mingw32/nios2-elf/lib\libc.a(lib_a-wsetup.o)
 .debug_frame   0x00001d80       0x38 c:/altera/13.1/nios2eds/bin/gnu/h-i686-mingw32/bin/../lib/gcc/nios2-elf/4.7.3/../../../../../H-i686-mingw32/nios2-elf/lib\libc.a(lib_a-__call_atexit.o)
 .debug_frame   0x00001db8       0x2c c:/altera/13.1/nios2eds/bin/gnu/h-i686-mingw32/bin/../lib/gcc/nios2-elf/4.7.3/../../../../../H-i686-mingw32/nios2-elf/lib\libc.a(lib_a-closer.o)
 .debug_frame   0x00001de4       0x64 c:/altera/13.1/nios2eds/bin/gnu/h-i686-mingw32/bin/../lib/gcc/nios2-elf/4.7.3/../../../../../H-i686-mingw32/nios2-elf/lib\libc.a(lib_a-dtoa.o)
 .debug_frame   0x00001e48       0x3c c:/altera/13.1/nios2eds/bin/gnu/h-i686-mingw32/bin/../lib/gcc/nios2-elf/4.7.3/../../../../../H-i686-mingw32/nios2-elf/lib\libc.a(lib_a-fclose.o)
 .debug_frame   0x00001e84       0x4c c:/altera/13.1/nios2eds/bin/gnu/h-i686-mingw32/bin/../lib/gcc/nios2-elf/4.7.3/../../../../../H-i686-mingw32/nios2-elf/lib\libc.a(lib_a-freer.o)
 .debug_frame   0x00001ed0       0x38 c:/altera/13.1/nios2eds/bin/gnu/h-i686-mingw32/bin/../lib/gcc/nios2-elf/4.7.3/../../../../../H-i686-mingw32/nios2-elf/lib\libc.a(lib_a-fvwrite.o)
 .debug_frame   0x00001f08       0x6c c:/altera/13.1/nios2eds/bin/gnu/h-i686-mingw32/bin/../lib/gcc/nios2-elf/4.7.3/../../../../../H-i686-mingw32/nios2-elf/lib\libc.a(lib_a-locale.o)
 .debug_frame   0x00001f74       0x2c c:/altera/13.1/nios2eds/bin/gnu/h-i686-mingw32/bin/../lib/gcc/nios2-elf/4.7.3/../../../../../H-i686-mingw32/nios2-elf/lib\libc.a(lib_a-lseekr.o)
 .debug_frame   0x00001fa0       0x2c c:/altera/13.1/nios2eds/bin/gnu/h-i686-mingw32/bin/../lib/gcc/nios2-elf/4.7.3/../../../../../H-i686-mingw32/nios2-elf/lib\libc.a(lib_a-makebuf.o)
 .debug_frame   0x00001fcc       0x20 c:/altera/13.1/nios2eds/bin/gnu/h-i686-mingw32/bin/../lib/gcc/nios2-elf/4.7.3/../../../../../H-i686-mingw32/nios2-elf/lib\libc.a(lib_a-memchr.o)
 .debug_frame   0x00001fec       0x20 c:/altera/13.1/nios2eds/bin/gnu/h-i686-mingw32/bin/../lib/gcc/nios2-elf/4.7.3/../../../../../H-i686-mingw32/nios2-elf/lib\libc.a(lib_a-memmove.o)
 .debug_frame   0x0000200c      0x204 c:/altera/13.1/nios2eds/bin/gnu/h-i686-mingw32/bin/../lib/gcc/nios2-elf/4.7.3/../../../../../H-i686-mingw32/nios2-elf/lib\libc.a(lib_a-mprec.o)
 .debug_frame   0x00002210       0x2c c:/altera/13.1/nios2eds/bin/gnu/h-i686-mingw32/bin/../lib/gcc/nios2-elf/4.7.3/../../../../../H-i686-mingw32/nios2-elf/lib\libc.a(lib_a-readr.o)
 .debug_frame   0x0000223c       0x38 c:/altera/13.1/nios2eds/bin/gnu/h-i686-mingw32/bin/../lib/gcc/nios2-elf/4.7.3/../../../../../H-i686-mingw32/nios2-elf/lib\libc.a(lib_a-reallocr.o)
 .debug_frame   0x00002274       0x20 c:/altera/13.1/nios2eds/bin/gnu/h-i686-mingw32/bin/../lib/gcc/nios2-elf/4.7.3/../../../../../H-i686-mingw32/nios2-elf/lib\libc.a(lib_a-s_isinfd.o)
 .debug_frame   0x00002294       0x20 c:/altera/13.1/nios2eds/bin/gnu/h-i686-mingw32/bin/../lib/gcc/nios2-elf/4.7.3/../../../../../H-i686-mingw32/nios2-elf/lib\libc.a(lib_a-s_isnand.o)
 .debug_frame   0x000022b4       0x20 c:/altera/13.1/nios2eds/bin/gnu/h-i686-mingw32/bin/../lib/gcc/nios2-elf/4.7.3/../../../../../H-i686-mingw32/nios2-elf/lib\libc.a(lib_a-strcmp.o)
 .debug_frame   0x000022d4       0x28 c:/altera/13.1/nios2eds/bin/gnu/h-i686-mingw32/bin/../lib/gcc/nios2-elf/4.7.3/../../../../../H-i686-mingw32/nios2-elf/lib\libc.a(lib_a-callocr.o)
 .debug_frame   0x000022fc       0x2c c:/altera/13.1/nios2eds/bin/gnu/h-i686-mingw32/bin/../lib/gcc/nios2-elf/4.7.3/../../../../../H-i686-mingw32/nios2-elf/lib\libc.a(lib_a-fstatr.o)
 .debug_frame   0x00002328       0x2c c:/altera/13.1/nios2eds/bin/gnu/h-i686-mingw32/bin/../lib/gcc/nios2-elf/4.7.3/../../../../../H-i686-mingw32/nios2-elf/lib\libc.a(lib_a-isattyr.o)
 .debug_frame   0x00002354       0x20 c:/altera/13.1/nios2eds/bin/gnu/h-i686-mingw32/bin/../lib/gcc/nios2-elf/4.7.3\libgcc.a(_muldi3.o)
 .debug_frame   0x00002374       0x38 c:/altera/13.1/nios2eds/bin/gnu/h-i686-mingw32/bin/../lib/gcc/nios2-elf/4.7.3\libgcc.a(_udivdi3.o)
 .debug_frame   0x000023ac       0x38 c:/altera/13.1/nios2eds/bin/gnu/h-i686-mingw32/bin/../lib/gcc/nios2-elf/4.7.3\libgcc.a(_umoddi3.o)
 .debug_frame   0x000023e4       0x50 c:/altera/13.1/nios2eds/bin/gnu/h-i686-mingw32/bin/../lib/gcc/nios2-elf/4.7.3\libgcc.a(_addsub_df.o)
 .debug_frame   0x00002434       0x38 c:/altera/13.1/nios2eds/bin/gnu/h-i686-mingw32/bin/../lib/gcc/nios2-elf/4.7.3\libgcc.a(_mul_df.o)
 .debug_frame   0x0000246c       0x28 c:/altera/13.1/nios2eds/bin/gnu/h-i686-mingw32/bin/../lib/gcc/nios2-elf/4.7.3\libgcc.a(_div_df.o)
 .debug_frame   0x00002494       0x28 c:/altera/13.1/nios2eds/bin/gnu/h-i686-mingw32/bin/../lib/gcc/nios2-elf/4.7.3\libgcc.a(_eq_df.o)
 .debug_frame   0x000024bc       0x28 c:/altera/13.1/nios2eds/bin/gnu/h-i686-mingw32/bin/../lib/gcc/nios2-elf/4.7.3\libgcc.a(_ne_df.o)
 .debug_frame   0x000024e4       0x28 c:/altera/13.1/nios2eds/bin/gnu/h-i686-mingw32/bin/../lib/gcc/nios2-elf/4.7.3\libgcc.a(_gt_df.o)
 .debug_frame   0x0000250c       0x28 c:/altera/13.1/nios2eds/bin/gnu/h-i686-mingw32/bin/../lib/gcc/nios2-elf/4.7.3\libgcc.a(_ge_df.o)
 .debug_frame   0x00002534       0x28 c:/altera/13.1/nios2eds/bin/gnu/h-i686-mingw32/bin/../lib/gcc/nios2-elf/4.7.3\libgcc.a(_lt_df.o)
 .debug_frame   0x0000255c       0x28 c:/altera/13.1/nios2eds/bin/gnu/h-i686-mingw32/bin/../lib/gcc/nios2-elf/4.7.3\libgcc.a(_si_to_df.o)
 .debug_frame   0x00002584       0x28 c:/altera/13.1/nios2eds/bin/gnu/h-i686-mingw32/bin/../lib/gcc/nios2-elf/4.7.3\libgcc.a(_df_to_si.o)
 .debug_frame   0x000025ac       0x28 c:/altera/13.1/nios2eds/bin/gnu/h-i686-mingw32/bin/../lib/gcc/nios2-elf/4.7.3\libgcc.a(_usi_to_df.o)
 .debug_frame   0x000025d4       0x20 c:/altera/13.1/nios2eds/bin/gnu/h-i686-mingw32/bin/../lib/gcc/nios2-elf/4.7.3\libgcc.a(_clzsi2.o)
 .debug_frame   0x000025f4       0x34 c:/altera/13.1/nios2eds/bin/gnu/h-i686-mingw32/bin/../lib/gcc/nios2-elf/4.7.3\libgcc.a(_pack_df.o)
 .debug_frame   0x00002628       0x20 c:/altera/13.1/nios2eds/bin/gnu/h-i686-mingw32/bin/../lib/gcc/nios2-elf/4.7.3\libgcc.a(_unpack_df.o)
 .debug_frame   0x00002648       0x20 c:/altera/13.1/nios2eds/bin/gnu/h-i686-mingw32/bin/../lib/gcc/nios2-elf/4.7.3\libgcc.a(_fpcmp_parts_df.o)
 .debug_frame   0x00002668       0x20 c:/altera/13.1/nios2eds/bin/gnu/h-i686-mingw32/bin/../lib/gcc/nios2-elf/4.7.3\libgcc.a(_lshrdi3.o)
 .debug_frame   0x00002688       0x20 c:/altera/13.1/nios2eds/bin/gnu/h-i686-mingw32/bin/../lib/gcc/nios2-elf/4.7.3\libgcc.a(_ashldi3.o)
 .debug_frame   0x000026a8       0x2c ../UcosiiBSP_for_cpu_s0/\libucosii_bsp.a(alt_close.o)
 .debug_frame   0x000026d4       0x20 ../UcosiiBSP_for_cpu_s0/\libucosii_bsp.a(alt_dev.o)
 .debug_frame   0x000026f4       0x20 ../UcosiiBSP_for_cpu_s0/\libucosii_bsp.a(alt_exit.o)
 .debug_frame   0x00002714       0x28 ../UcosiiBSP_for_cpu_s0/\libucosii_bsp.a(alt_fstat.o)
 .debug_frame   0x0000273c       0x20 ../UcosiiBSP_for_cpu_s0/\libucosii_bsp.a(alt_irq_register.o)
 .debug_frame   0x0000275c       0x28 ../UcosiiBSP_for_cpu_s0/\libucosii_bsp.a(alt_isatty.o)
 .debug_frame   0x00002784       0x28 ../UcosiiBSP_for_cpu_s0/\libucosii_bsp.a(alt_load.o)
 .debug_frame   0x000027ac       0x28 ../UcosiiBSP_for_cpu_s0/\libucosii_bsp.a(alt_lseek.o)
 .debug_frame   0x000027d4       0x2c ../UcosiiBSP_for_cpu_s0/\libucosii_bsp.a(alt_main.o)
 .debug_frame   0x00002800       0x28 ../UcosiiBSP_for_cpu_s0/\libucosii_bsp.a(alt_read.o)
 .debug_frame   0x00002828       0x20 ../UcosiiBSP_for_cpu_s0/\libucosii_bsp.a(alt_release_fd.o)
 .debug_frame   0x00002848       0x20 ../UcosiiBSP_for_cpu_s0/\libucosii_bsp.a(alt_sbrk.o)
 .debug_frame   0x00002868       0x30 ../UcosiiBSP_for_cpu_s0/\libucosii_bsp.a(alt_usleep.o)
 .debug_frame   0x00002898       0x28 ../UcosiiBSP_for_cpu_s0/\libucosii_bsp.a(alt_write.o)
 .debug_frame   0x000028c0       0x3c ../UcosiiBSP_for_cpu_s0/\libucosii_bsp.a(alt_env_lock.o)
 .debug_frame   0x000028fc       0x3c ../UcosiiBSP_for_cpu_s0/\libucosii_bsp.a(alt_malloc_lock.o)
 .debug_frame   0x00002938      0x250 ../UcosiiBSP_for_cpu_s0/\libucosii_bsp.a(os_core.o)
 .debug_frame   0x00002b88       0x20 ../UcosiiBSP_for_cpu_s0/\libucosii_bsp.a(os_dbg.o)
 .debug_frame   0x00002ba8      0x100 ../UcosiiBSP_for_cpu_s0/\libucosii_bsp.a(os_flag.o)
 .debug_frame   0x00002ca8       0x9c ../UcosiiBSP_for_cpu_s0/\libucosii_bsp.a(os_mem.o)
 .debug_frame   0x00002d44       0xa0 ../UcosiiBSP_for_cpu_s0/\libucosii_bsp.a(os_mutex.o)
 .debug_frame   0x00002de4      0x120 ../UcosiiBSP_for_cpu_s0/\libucosii_bsp.a(os_q.o)
 .debug_frame   0x00002f04       0xd0 ../UcosiiBSP_for_cpu_s0/\libucosii_bsp.a(os_sem.o)
 .debug_frame   0x00002fd4      0x13c ../UcosiiBSP_for_cpu_s0/\libucosii_bsp.a(os_task.o)
 .debug_frame   0x00003110       0x80 ../UcosiiBSP_for_cpu_s0/\libucosii_bsp.a(os_time.o)
 .debug_frame   0x00003190       0x40 ../UcosiiBSP_for_cpu_s0/\libucosii_bsp.a(alt_sys_init.o)
 .debug_frame   0x000031d0       0x50 ../UcosiiBSP_for_cpu_s0/\libucosii_bsp.a(altera_avalon_jtag_uart_fd.o)
 .debug_frame   0x00003220       0x80 ../UcosiiBSP_for_cpu_s0/\libucosii_bsp.a(altera_avalon_jtag_uart_init.o)
 .debug_frame   0x000032a0       0x20 ../UcosiiBSP_for_cpu_s0/\libucosii_bsp.a(altera_avalon_jtag_uart_ioctl.o)
 .debug_frame   0x000032c0       0x3c ../UcosiiBSP_for_cpu_s0/\libucosii_bsp.a(altera_avalon_jtag_uart_read.o)
 .debug_frame   0x000032fc       0x3c ../UcosiiBSP_for_cpu_s0/\libucosii_bsp.a(altera_avalon_jtag_uart_write.o)
 .debug_frame   0x00003338       0x38 ../UcosiiBSP_for_cpu_s0/\libucosii_bsp.a(altera_avalon_timer_sc.o)
 .debug_frame   0x00003370       0x20 ../UcosiiBSP_for_cpu_s0/\libucosii_bsp.a(alt_alarm_start.o)
 .debug_frame   0x00003390       0x28 ../UcosiiBSP_for_cpu_s0/\libucosii_bsp.a(alt_busy_sleep.o)
 .debug_frame   0x000033b8       0x20 ../UcosiiBSP_for_cpu_s0/\libucosii_bsp.a(alt_dcache_flush_all.o)
 .debug_frame   0x000033d8       0x28 ../UcosiiBSP_for_cpu_s0/\libucosii_bsp.a(alt_dev_llist_insert.o)
 .debug_frame   0x00003400       0x2c ../UcosiiBSP_for_cpu_s0/\libucosii_bsp.a(alt_do_ctors.o)
 .debug_frame   0x0000342c       0x2c ../UcosiiBSP_for_cpu_s0/\libucosii_bsp.a(alt_do_dtors.o)
 .debug_frame   0x00003458       0x20 ../UcosiiBSP_for_cpu_s0/\libucosii_bsp.a(alt_icache_flush_all.o)
 .debug_frame   0x00003478       0x2c ../UcosiiBSP_for_cpu_s0/\libucosii_bsp.a(alt_io_redirect.o)
 .debug_frame   0x000034a4       0x28 ../UcosiiBSP_for_cpu_s0/\libucosii_bsp.a(alt_irq_handler.o)
 .debug_frame   0x000034cc       0x34 ../UcosiiBSP_for_cpu_s0/\libucosii_bsp.a(alt_open.o)
 .debug_frame   0x00003500       0x44 ../UcosiiBSP_for_cpu_s0/\libucosii_bsp.a(alt_tick.o)
 .debug_frame   0x00003544       0x20 ../UcosiiBSP_for_cpu_s0/\libucosii_bsp.a(altera_nios2_qsys_irq.o)
 .debug_frame   0x00003564       0xbc ../UcosiiBSP_for_cpu_s0/\libucosii_bsp.a(os_cpu_c.o)
 .debug_frame   0x00003620       0x30 ../UcosiiBSP_for_cpu_s0/\libucosii_bsp.a(alt_find_dev.o)
 .debug_frame   0x00003650       0x34 ../UcosiiBSP_for_cpu_s0/\libucosii_bsp.a(alt_find_file.o)
 .debug_frame   0x00003684       0x2c ../UcosiiBSP_for_cpu_s0/\libucosii_bsp.a(alt_get_fd.o)
 .debug_frame   0x000036b0       0x20 ../UcosiiBSP_for_cpu_s0/\libucosii_bsp.a(alt_icache_flush.o)
 .debug_frame   0x000036d0       0x20 c:/altera/13.1/nios2eds/bin/gnu/h-i686-mingw32/bin/../lib/gcc/nios2-elf/4.7.3/../../../../../H-i686-mingw32/nios2-elf/lib\libc.a(lib_a-atexit.o)
 .debug_frame   0x000036f0       0x20 c:/altera/13.1/nios2eds/bin/gnu/h-i686-mingw32/bin/../lib/gcc/nios2-elf/4.7.3/../../../../../H-i686-mingw32/nios2-elf/lib\libc.a(lib_a-memcmp.o)
 .debug_frame   0x00003710       0x2c c:/altera/13.1/nios2eds/bin/gnu/h-i686-mingw32/bin/../lib/gcc/nios2-elf/4.7.3/../../../../../H-i686-mingw32/nios2-elf/lib\libc.a(lib_a-__atexit.o)
 .debug_frame   0x0000373c       0x2c c:/altera/13.1/nios2eds/bin/gnu/h-i686-mingw32/bin/../lib/gcc/nios2-elf/4.7.3\libgcc.a(_fixunsdfsi.o)

.debug_str      0x00000000     0x66fc
 *(.debug_str)
 .debug_str     0x00000000     0x17ad obj/default/MCAPI_Top/mcapi.o
                               0x192c (size before relaxing)
 .debug_str     0x000017ad      0xc89 obj/default/MCAPI_Transport/mcapi_trans_nios.o
                               0x21f0 (size before relaxing)
 .debug_str     0x00002436      0x2d7 obj/default/NS_Layer/NS_layer.o
                                0x711 (size before relaxing)
 .debug_str     0x0000270d      0x220 obj/default/PH_FifoDriver_UCOSII/PH_layer.o
                                0x8d6 (size before relaxing)
 .debug_str     0x0000292d      0x351 obj/default/SysTestNode1.o
                               0x102d (size before relaxing)
 .debug_str     0x00002c7e       0xd7 obj/default/UTILS/util_packet_handling.o
                                0x272 (size before relaxing)
 .debug_str     0x00002d55      0x104 c:/altera/13.1/nios2eds/bin/gnu/h-i686-mingw32/bin/../lib/gcc/nios2-elf/4.7.3\libgcc.a(lib2-divmod.o)
                                0x15b (size before relaxing)
 .debug_str     0x00002e59       0x50 c:/altera/13.1/nios2eds/bin/gnu/h-i686-mingw32/bin/../lib/gcc/nios2-elf/4.7.3\libgcc.a(lib2-divtable.o)
                                0x129 (size before relaxing)
 .debug_str     0x00002ea9       0xec c:/altera/13.1/nios2eds/bin/gnu/h-i686-mingw32/bin/../lib/gcc/nios2-elf/4.7.3/../../../../../H-i686-mingw32/nios2-elf/lib\libc.a(lib_a-exit.o)
                                0x52f (size before relaxing)
 .debug_str     0x00002f95       0xe1 c:/altera/13.1/nios2eds/bin/gnu/h-i686-mingw32/bin/../lib/gcc/nios2-elf/4.7.3/../../../../../H-i686-mingw32/nios2-elf/lib\libc.a(lib_a-fflush.o)
                                0x553 (size before relaxing)
 .debug_str     0x00003076      0x104 c:/altera/13.1/nios2eds/bin/gnu/h-i686-mingw32/bin/../lib/gcc/nios2-elf/4.7.3/../../../../../H-i686-mingw32/nios2-elf/lib\libc.a(lib_a-findfp.o)
                                0x61f (size before relaxing)
 .debug_str     0x0000317a       0x7b c:/altera/13.1/nios2eds/bin/gnu/h-i686-mingw32/bin/../lib/gcc/nios2-elf/4.7.3/../../../../../H-i686-mingw32/nios2-elf/lib\libc.a(lib_a-fprintf.o)
                                0x551 (size before relaxing)
 .debug_str     0x000031f5       0x5e c:/altera/13.1/nios2eds/bin/gnu/h-i686-mingw32/bin/../lib/gcc/nios2-elf/4.7.3/../../../../../H-i686-mingw32/nios2-elf/lib\libc.a(lib_a-fwalk.o)
                                0x567 (size before relaxing)
 .debug_str     0x00003253       0x8d c:/altera/13.1/nios2eds/bin/gnu/h-i686-mingw32/bin/../lib/gcc/nios2-elf/4.7.3/../../../../../H-i686-mingw32/nios2-elf/lib\libc.a(lib_a-fwrite.o)
                                0x580 (size before relaxing)
 .debug_str     0x000032e0       0xd4 c:/altera/13.1/nios2eds/bin/gnu/h-i686-mingw32/bin/../lib/gcc/nios2-elf/4.7.3/../../../../../H-i686-mingw32/nios2-elf/lib\libc.a(lib_a-impure.o)
                                0x526 (size before relaxing)
 .debug_str     0x000033b4      0x236 c:/altera/13.1/nios2eds/bin/gnu/h-i686-mingw32/bin/../lib/gcc/nios2-elf/4.7.3/../../../../../H-i686-mingw32/nios2-elf/lib\libc.a(lib_a-mallocr.o)
                                0x735 (size before relaxing)
 .debug_str     0x000035ea       0xf1 c:/altera/13.1/nios2eds/bin/gnu/h-i686-mingw32/bin/../lib/gcc/nios2-elf/4.7.3/../../../../../H-i686-mingw32/nios2-elf/lib\libc.a(lib_a-memcpy.o)
                                0x126 (size before relaxing)
 .debug_str     0x000036db       0x48 c:/altera/13.1/nios2eds/bin/gnu/h-i686-mingw32/bin/../lib/gcc/nios2-elf/4.7.3/../../../../../H-i686-mingw32/nios2-elf/lib\libc.a(lib_a-memset.o)
                                0x18a (size before relaxing)
 .debug_str     0x00003723       0x5b c:/altera/13.1/nios2eds/bin/gnu/h-i686-mingw32/bin/../lib/gcc/nios2-elf/4.7.3/../../../../../H-i686-mingw32/nios2-elf/lib\libc.a(lib_a-printf.o)
                                0x571 (size before relaxing)
 .debug_str     0x0000377e       0x47 c:/altera/13.1/nios2eds/bin/gnu/h-i686-mingw32/bin/../lib/gcc/nios2-elf/4.7.3/../../../../../H-i686-mingw32/nios2-elf/lib\libc.a(lib_a-puts.o)
                                0x56e (size before relaxing)
 .debug_str     0x000037c5       0x3f c:/altera/13.1/nios2eds/bin/gnu/h-i686-mingw32/bin/../lib/gcc/nios2-elf/4.7.3/../../../../../H-i686-mingw32/nios2-elf/lib\libc.a(lib_a-rand.o)
                                0x517 (size before relaxing)
 .debug_str     0x00003804       0x43 c:/altera/13.1/nios2eds/bin/gnu/h-i686-mingw32/bin/../lib/gcc/nios2-elf/4.7.3/../../../../../H-i686-mingw32/nios2-elf/lib\libc.a(lib_a-sbrkr.o)
                                0x51c (size before relaxing)
 .debug_str     0x00003847       0x95 c:/altera/13.1/nios2eds/bin/gnu/h-i686-mingw32/bin/../lib/gcc/nios2-elf/4.7.3/../../../../../H-i686-mingw32/nios2-elf/lib\libc.a(lib_a-stdio.o)
                                0x570 (size before relaxing)
 .debug_str     0x000038dc       0x3b c:/altera/13.1/nios2eds/bin/gnu/h-i686-mingw32/bin/../lib/gcc/nios2-elf/4.7.3/../../../../../H-i686-mingw32/nios2-elf/lib\libc.a(lib_a-strlen.o)
                                0x189 (size before relaxing)
 .debug_str     0x00003917      0x275 c:/altera/13.1/nios2eds/bin/gnu/h-i686-mingw32/bin/../lib/gcc/nios2-elf/4.7.3/../../../../../H-i686-mingw32/nios2-elf/lib\libc.a(lib_a-vfprintf.o)
                                0x888 (size before relaxing)
 .debug_str     0x00003b8c       0x3a c:/altera/13.1/nios2eds/bin/gnu/h-i686-mingw32/bin/../lib/gcc/nios2-elf/4.7.3/../../../../../H-i686-mingw32/nios2-elf/lib\libc.a(lib_a-writer.o)
                                0x520 (size before relaxing)
 .debug_str     0x00003bc6       0x47 c:/altera/13.1/nios2eds/bin/gnu/h-i686-mingw32/bin/../lib/gcc/nios2-elf/4.7.3/../../../../../H-i686-mingw32/nios2-elf/lib\libc.a(lib_a-wsetup.o)
                                0x535 (size before relaxing)
 .debug_str     0x00003c0d       0x5c c:/altera/13.1/nios2eds/bin/gnu/h-i686-mingw32/bin/../lib/gcc/nios2-elf/4.7.3/../../../../../H-i686-mingw32/nios2-elf/lib\libc.a(lib_a-__call_atexit.o)
                                0x551 (size before relaxing)
 .debug_str     0x00003c69       0x3a c:/altera/13.1/nios2eds/bin/gnu/h-i686-mingw32/bin/../lib/gcc/nios2-elf/4.7.3/../../../../../H-i686-mingw32/nios2-elf/lib\libc.a(lib_a-closer.o)
                                0x510 (size before relaxing)
 .debug_str     0x00003ca3      0x157 c:/altera/13.1/nios2eds/bin/gnu/h-i686-mingw32/bin/../lib/gcc/nios2-elf/4.7.3/../../../../../H-i686-mingw32/nios2-elf/lib\libc.a(lib_a-dtoa.o)
                                0x678 (size before relaxing)
 .debug_str     0x00003dfa       0x4b c:/altera/13.1/nios2eds/bin/gnu/h-i686-mingw32/bin/../lib/gcc/nios2-elf/4.7.3/../../../../../H-i686-mingw32/nios2-elf/lib\libc.a(lib_a-fclose.o)
                                0x562 (size before relaxing)
 .debug_str     0x00003e45       0x34 c:/altera/13.1/nios2eds/bin/gnu/h-i686-mingw32/bin/../lib/gcc/nios2-elf/4.7.3/../../../../../H-i686-mingw32/nios2-elf/lib\libc.a(lib_a-freer.o)
                                0x67f (size before relaxing)
 .debug_str     0x00003e79       0x6c c:/altera/13.1/nios2eds/bin/gnu/h-i686-mingw32/bin/../lib/gcc/nios2-elf/4.7.3/../../../../../H-i686-mingw32/nios2-elf/lib\libc.a(lib_a-fvwrite.o)
                                0x5b8 (size before relaxing)
 .debug_str     0x00003ee5       0x3d c:/altera/13.1/nios2eds/bin/gnu/h-i686-mingw32/bin/../lib/gcc/nios2-elf/4.7.3/../../../../../H-i686-mingw32/nios2-elf/lib\libc.a(lib_a-int_errno.o)
                                0x16f (size before relaxing)
 .debug_str     0x00003f22      0x14c c:/altera/13.1/nios2eds/bin/gnu/h-i686-mingw32/bin/../lib/gcc/nios2-elf/4.7.3/../../../../../H-i686-mingw32/nios2-elf/lib\libc.a(lib_a-locale.o)
                                0x6bc (size before relaxing)
 .debug_str     0x0000406e       0x40 c:/altera/13.1/nios2eds/bin/gnu/h-i686-mingw32/bin/../lib/gcc/nios2-elf/4.7.3/../../../../../H-i686-mingw32/nios2-elf/lib\libc.a(lib_a-lseekr.o)
                                0x524 (size before relaxing)
 .debug_str     0x000040ae      0x122 c:/altera/13.1/nios2eds/bin/gnu/h-i686-mingw32/bin/../lib/gcc/nios2-elf/4.7.3/../../../../../H-i686-mingw32/nios2-elf/lib\libc.a(lib_a-makebuf.o)
                                0x62f (size before relaxing)
 .debug_str     0x000041d0       0x49 c:/altera/13.1/nios2eds/bin/gnu/h-i686-mingw32/bin/../lib/gcc/nios2-elf/4.7.3/../../../../../H-i686-mingw32/nios2-elf/lib\libc.a(lib_a-memchr.o)
                                0x197 (size before relaxing)
 .debug_str     0x00004219       0x45 c:/altera/13.1/nios2eds/bin/gnu/h-i686-mingw32/bin/../lib/gcc/nios2-elf/4.7.3/../../../../../H-i686-mingw32/nios2-elf/lib\libc.a(lib_a-memmove.o)
                                0x1a9 (size before relaxing)
 .debug_str     0x0000425e       0xa5 c:/altera/13.1/nios2eds/bin/gnu/h-i686-mingw32/bin/../lib/gcc/nios2-elf/4.7.3/../../../../../H-i686-mingw32/nios2-elf/lib\libc.a(lib_a-mprec.o)
                                0x632 (size before relaxing)
 .debug_str     0x00004303       0x39 c:/altera/13.1/nios2eds/bin/gnu/h-i686-mingw32/bin/../lib/gcc/nios2-elf/4.7.3/../../../../../H-i686-mingw32/nios2-elf/lib\libc.a(lib_a-readr.o)
                                0x51d (size before relaxing)
 .debug_str     0x0000433c       0x49 c:/altera/13.1/nios2eds/bin/gnu/h-i686-mingw32/bin/../lib/gcc/nios2-elf/4.7.3/../../../../../H-i686-mingw32/nios2-elf/lib\libc.a(lib_a-reallocr.o)
                                0x607 (size before relaxing)
 .debug_str     0x00004385       0xd6 c:/altera/13.1/nios2eds/bin/gnu/h-i686-mingw32/bin/../lib/gcc/nios2-elf/4.7.3/../../../../../H-i686-mingw32/nios2-elf/lib\libc.a(lib_a-s_isinfd.o)
                                0x1a1 (size before relaxing)
 .debug_str     0x0000445b       0x3d c:/altera/13.1/nios2eds/bin/gnu/h-i686-mingw32/bin/../lib/gcc/nios2-elf/4.7.3/../../../../../H-i686-mingw32/nios2-elf/lib\libc.a(lib_a-s_isnand.o)
                                0x1a1 (size before relaxing)
 .debug_str     0x00004498       0x3b c:/altera/13.1/nios2eds/bin/gnu/h-i686-mingw32/bin/../lib/gcc/nios2-elf/4.7.3/../../../../../H-i686-mingw32/nios2-elf/lib\libc.a(lib_a-strcmp.o)
                                0x16f (size before relaxing)
 .debug_str     0x000044d3        0xf c:/altera/13.1/nios2eds/bin/gnu/h-i686-mingw32/bin/../lib/gcc/nios2-elf/4.7.3/../../../../../H-i686-mingw32/nios2-elf/lib\libc.a(lib_a-callocr.o)
                                0x55f (size before relaxing)
 .debug_str     0x000044e2       0x46 c:/altera/13.1/nios2eds/bin/gnu/h-i686-mingw32/bin/../lib/gcc/nios2-elf/4.7.3/../../../../../H-i686-mingw32/nios2-elf/lib\libc.a(lib_a-fstatr.o)
                                0x603 (size before relaxing)
 .debug_str     0x00004528       0x42 c:/altera/13.1/nios2eds/bin/gnu/h-i686-mingw32/bin/../lib/gcc/nios2-elf/4.7.3/../../../../../H-i686-mingw32/nios2-elf/lib\libc.a(lib_a-isattyr.o)
                                0x513 (size before relaxing)
 .debug_str     0x0000456a       0x8a c:/altera/13.1/nios2eds/bin/gnu/h-i686-mingw32/bin/../lib/gcc/nios2-elf/4.7.3\libgcc.a(_muldi3.o)
                                0x1a2 (size before relaxing)
 .debug_str     0x000045f4       0x4c c:/altera/13.1/nios2eds/bin/gnu/h-i686-mingw32/bin/../lib/gcc/nios2-elf/4.7.3\libgcc.a(_udivdi3.o)
                                0x1f6 (size before relaxing)
 .debug_str     0x00004640        0xa c:/altera/13.1/nios2eds/bin/gnu/h-i686-mingw32/bin/../lib/gcc/nios2-elf/4.7.3\libgcc.a(_umoddi3.o)
                                0x1f6 (size before relaxing)
 .debug_str     0x0000464a      0x16f c:/altera/13.1/nios2eds/bin/gnu/h-i686-mingw32/bin/../lib/gcc/nios2-elf/4.7.3\libgcc.a(_addsub_df.o)
                                0x2a9 (size before relaxing)
 .debug_str     0x000047b9       0x40 c:/altera/13.1/nios2eds/bin/gnu/h-i686-mingw32/bin/../lib/gcc/nios2-elf/4.7.3\libgcc.a(_mul_df.o)
                                0x27b (size before relaxing)
 .debug_str     0x000047f9       0x35 c:/altera/13.1/nios2eds/bin/gnu/h-i686-mingw32/bin/../lib/gcc/nios2-elf/4.7.3\libgcc.a(_div_df.o)
                                0x26b (size before relaxing)
 .debug_str     0x0000482e       0x20 c:/altera/13.1/nios2eds/bin/gnu/h-i686-mingw32/bin/../lib/gcc/nios2-elf/4.7.3\libgcc.a(_eq_df.o)
                                0x238 (size before relaxing)
 .debug_str     0x0000484e        0x8 c:/altera/13.1/nios2eds/bin/gnu/h-i686-mingw32/bin/../lib/gcc/nios2-elf/4.7.3\libgcc.a(_ne_df.o)
                                0x238 (size before relaxing)
 .debug_str     0x00004856        0x8 c:/altera/13.1/nios2eds/bin/gnu/h-i686-mingw32/bin/../lib/gcc/nios2-elf/4.7.3\libgcc.a(_gt_df.o)
                                0x238 (size before relaxing)
 .debug_str     0x0000485e        0x8 c:/altera/13.1/nios2eds/bin/gnu/h-i686-mingw32/bin/../lib/gcc/nios2-elf/4.7.3\libgcc.a(_ge_df.o)
                                0x238 (size before relaxing)
 .debug_str     0x00004866        0x8 c:/altera/13.1/nios2eds/bin/gnu/h-i686-mingw32/bin/../lib/gcc/nios2-elf/4.7.3\libgcc.a(_lt_df.o)
                                0x238 (size before relaxing)
 .debug_str     0x0000486e       0x21 c:/altera/13.1/nios2eds/bin/gnu/h-i686-mingw32/bin/../lib/gcc/nios2-elf/4.7.3\libgcc.a(_si_to_df.o)
                                0x20e (size before relaxing)
 .debug_str     0x0000488f        0xa c:/altera/13.1/nios2eds/bin/gnu/h-i686-mingw32/bin/../lib/gcc/nios2-elf/4.7.3\libgcc.a(_df_to_si.o)
                                0x230 (size before relaxing)
 .debug_str     0x00000000      0x1c1 c:/altera/13.1/nios2eds/bin/gnu/h-i686-mingw32/bin/../lib/gcc/nios2-elf/4.7.3\libgcc.a(_thenan_df.o)
 .debug_str     0x00004899       0x14 c:/altera/13.1/nios2eds/bin/gnu/h-i686-mingw32/bin/../lib/gcc/nios2-elf/4.7.3\libgcc.a(_usi_to_df.o)
                                0x20a (size before relaxing)
 .debug_str     0x00000000      0x160 c:/altera/13.1/nios2eds/bin/gnu/h-i686-mingw32/bin/../lib/gcc/nios2-elf/4.7.3\libgcc.a(_clz.o)
 .debug_str     0x00000000      0x17d c:/altera/13.1/nios2eds/bin/gnu/h-i686-mingw32/bin/../lib/gcc/nios2-elf/4.7.3\libgcc.a(_clzsi2.o)
 .debug_str     0x000048ad        0x7 c:/altera/13.1/nios2eds/bin/gnu/h-i686-mingw32/bin/../lib/gcc/nios2-elf/4.7.3\libgcc.a(_pack_df.o)
                                0x224 (size before relaxing)
 .debug_str     0x00000000      0x206 c:/altera/13.1/nios2eds/bin/gnu/h-i686-mingw32/bin/../lib/gcc/nios2-elf/4.7.3\libgcc.a(_unpack_df.o)
 .debug_str     0x00000000      0x1e4 c:/altera/13.1/nios2eds/bin/gnu/h-i686-mingw32/bin/../lib/gcc/nios2-elf/4.7.3\libgcc.a(_fpcmp_parts_df.o)
 .debug_str     0x000048b4       0x23 c:/altera/13.1/nios2eds/bin/gnu/h-i686-mingw32/bin/../lib/gcc/nios2-elf/4.7.3\libgcc.a(_lshrdi3.o)
                                0x194 (size before relaxing)
 .debug_str     0x000048d7        0xa c:/altera/13.1/nios2eds/bin/gnu/h-i686-mingw32/bin/../lib/gcc/nios2-elf/4.7.3\libgcc.a(_ashldi3.o)
                                0x194 (size before relaxing)
 .debug_str     0x000048e1      0x110 ../UcosiiBSP_for_cpu_s0/\libucosii_bsp.a(alt_close.o)
                                0x249 (size before relaxing)
 .debug_str     0x000049f1       0x61 ../UcosiiBSP_for_cpu_s0/\libucosii_bsp.a(alt_dev.o)
                                0x3a8 (size before relaxing)
 .debug_str     0x00004a52       0x14 ../UcosiiBSP_for_cpu_s0/\libucosii_bsp.a(alt_errno.o)
                                0x123 (size before relaxing)
 .debug_str     0x00004a66       0x3c ../UcosiiBSP_for_cpu_s0/\libucosii_bsp.a(alt_exit.o)
                                0x192 (size before relaxing)
 .debug_str     0x00004aa2       0x14 ../UcosiiBSP_for_cpu_s0/\libucosii_bsp.a(alt_fstat.o)
                                0x31b (size before relaxing)
 .debug_str     0x00004ab6       0x43 ../UcosiiBSP_for_cpu_s0/\libucosii_bsp.a(alt_irq_register.o)
                                0x20e (size before relaxing)
 .debug_str     0x00004af9       0x17 ../UcosiiBSP_for_cpu_s0/\libucosii_bsp.a(alt_irq_vars.o)
                                0x124 (size before relaxing)
 .debug_str     0x00004b10       0x15 ../UcosiiBSP_for_cpu_s0/\libucosii_bsp.a(alt_isatty.o)
                                0x323 (size before relaxing)
 .debug_str     0x00004b25      0x113 ../UcosiiBSP_for_cpu_s0/\libucosii_bsp.a(alt_load.o)
                                0x21a (size before relaxing)
 .debug_str     0x00004c38       0x14 ../UcosiiBSP_for_cpu_s0/\libucosii_bsp.a(alt_lseek.o)
                                0x240 (size before relaxing)
 .debug_str     0x00004c4c       0x98 ../UcosiiBSP_for_cpu_s0/\libucosii_bsp.a(alt_main.o)
                                0x2bd (size before relaxing)
 .debug_str     0x00004ce4       0x13 ../UcosiiBSP_for_cpu_s0/\libucosii_bsp.a(alt_read.o)
                                0x326 (size before relaxing)
 .debug_str     0x00004cf7       0x19 ../UcosiiBSP_for_cpu_s0/\libucosii_bsp.a(alt_release_fd.o)
                                0x224 (size before relaxing)
 .debug_str     0x00004d10       0x61 ../UcosiiBSP_for_cpu_s0/\libucosii_bsp.a(alt_sbrk.o)
                                0x1db (size before relaxing)
 .debug_str     0x00004d71       0x44 ../UcosiiBSP_for_cpu_s0/\libucosii_bsp.a(alt_usleep.o)
                                0x1ce (size before relaxing)
 .debug_str     0x00004db5       0x14 ../UcosiiBSP_for_cpu_s0/\libucosii_bsp.a(alt_write.o)
                                0x327 (size before relaxing)
 .debug_str     0x00004dc9      0x256 ../UcosiiBSP_for_cpu_s0/\libucosii_bsp.a(alt_env_lock.o)
                                0x7d1 (size before relaxing)
 .debug_str     0x0000501f       0x24 ../UcosiiBSP_for_cpu_s0/\libucosii_bsp.a(alt_malloc_lock.o)
                                0x833 (size before relaxing)
 .debug_str     0x00005043      0x5fa ../UcosiiBSP_for_cpu_s0/\libucosii_bsp.a(os_core.o)
                                0xa50 (size before relaxing)
 .debug_str     0x0000563d      0x2d9 ../UcosiiBSP_for_cpu_s0/\libucosii_bsp.a(os_dbg.o)
                                0x8c4 (size before relaxing)
 .debug_str     0x00005916      0x12a ../UcosiiBSP_for_cpu_s0/\libucosii_bsp.a(os_flag.o)
                                0x619 (size before relaxing)
 .debug_str     0x00005a40       0xc4 ../UcosiiBSP_for_cpu_s0/\libucosii_bsp.a(os_mem.o)
                                0x319 (size before relaxing)
 .debug_str     0x00005b04       0xaa ../UcosiiBSP_for_cpu_s0/\libucosii_bsp.a(os_mutex.o)
                                0x5a3 (size before relaxing)
 .debug_str     0x00005bae       0xa9 ../UcosiiBSP_for_cpu_s0/\libucosii_bsp.a(os_q.o)
                                0x5d0 (size before relaxing)
 .debug_str     0x00005c57       0x4c ../UcosiiBSP_for_cpu_s0/\libucosii_bsp.a(os_sem.o)
                                0x54f (size before relaxing)
 .debug_str     0x00005ca3       0xea ../UcosiiBSP_for_cpu_s0/\libucosii_bsp.a(os_task.o)
                                0x692 (size before relaxing)
 .debug_str     0x00005d8d       0x5d ../UcosiiBSP_for_cpu_s0/\libucosii_bsp.a(os_time.o)
                                0x4a9 (size before relaxing)
 .debug_str     0x00005dea      0x1d8 ../UcosiiBSP_for_cpu_s0/\libucosii_bsp.a(alt_sys_init.o)
                                0x4ea (size before relaxing)
 .debug_str     0x00005fc2      0x123 ../UcosiiBSP_for_cpu_s0/\libucosii_bsp.a(altera_avalon_jtag_uart_fd.o)
                                0x50a (size before relaxing)
 .debug_str     0x000060e5       0xb6 ../UcosiiBSP_for_cpu_s0/\libucosii_bsp.a(altera_avalon_jtag_uart_init.o)
                                0x4ac (size before relaxing)
 .debug_str     0x0000619b       0x2c ../UcosiiBSP_for_cpu_s0/\libucosii_bsp.a(altera_avalon_jtag_uart_ioctl.o)
                                0x382 (size before relaxing)
 .debug_str     0x000061c7       0x46 ../UcosiiBSP_for_cpu_s0/\libucosii_bsp.a(altera_avalon_jtag_uart_read.o)
                                0x41b (size before relaxing)
 .debug_str     0x0000620d       0x2c ../UcosiiBSP_for_cpu_s0/\libucosii_bsp.a(altera_avalon_jtag_uart_write.o)
                                0x41c (size before relaxing)
 .debug_str     0x00006239       0x56 ../UcosiiBSP_for_cpu_s0/\libucosii_bsp.a(altera_avalon_timer_sc.o)
                                0x271 (size before relaxing)
 .debug_str     0x0000628f       0x49 ../UcosiiBSP_for_cpu_s0/\libucosii_bsp.a(alt_alarm_start.o)
                                0x27d (size before relaxing)
 .debug_str     0x000062d8       0x33 ../UcosiiBSP_for_cpu_s0/\libucosii_bsp.a(alt_busy_sleep.o)
                                0x149 (size before relaxing)
 .debug_str     0x0000630b       0x1f ../UcosiiBSP_for_cpu_s0/\libucosii_bsp.a(alt_dcache_flush_all.o)
                                0x133 (size before relaxing)
 .debug_str     0x0000632a       0x1f ../UcosiiBSP_for_cpu_s0/\libucosii_bsp.a(alt_dev_llist_insert.o)
                                0x1aa (size before relaxing)
 .debug_str     0x00006349       0x3e ../UcosiiBSP_for_cpu_s0/\libucosii_bsp.a(alt_do_ctors.o)
                                 0xba (size before relaxing)
 .debug_str     0x00006387       0x4c ../UcosiiBSP_for_cpu_s0/\libucosii_bsp.a(alt_do_dtors.o)
                                 0xb9 (size before relaxing)
 .debug_str     0x000063d3       0x30 ../UcosiiBSP_for_cpu_s0/\libucosii_bsp.a(alt_icache_flush_all.o)
                                0x14c (size before relaxing)
 .debug_str     0x00006403       0x46 ../UcosiiBSP_for_cpu_s0/\libucosii_bsp.a(alt_io_redirect.o)
                                0x354 (size before relaxing)
 .debug_str     0x00006449       0x3a ../UcosiiBSP_for_cpu_s0/\libucosii_bsp.a(alt_irq_handler.o)
                                0x1d3 (size before relaxing)
 .debug_str     0x00006483       0x4f ../UcosiiBSP_for_cpu_s0/\libucosii_bsp.a(alt_open.o)
                                0x2a7 (size before relaxing)
 .debug_str     0x000064d2       0x41 ../UcosiiBSP_for_cpu_s0/\libucosii_bsp.a(alt_tick.o)
                                0x269 (size before relaxing)
 .debug_str     0x00006513       0x20 ../UcosiiBSP_for_cpu_s0/\libucosii_bsp.a(altera_nios2_qsys_irq.o)
                                0x163 (size before relaxing)
 .debug_str     0x00006533       0x4f ../UcosiiBSP_for_cpu_s0/\libucosii_bsp.a(os_cpu_c.o)
                                0x822 (size before relaxing)
 .debug_str     0x00006582       0x1e ../UcosiiBSP_for_cpu_s0/\libucosii_bsp.a(alt_find_dev.o)
                                0x230 (size before relaxing)
 .debug_str     0x000065a0       0x18 ../UcosiiBSP_for_cpu_s0/\libucosii_bsp.a(alt_find_file.o)
                                0x23e (size before relaxing)
 .debug_str     0x000065b8       0x25 ../UcosiiBSP_for_cpu_s0/\libucosii_bsp.a(alt_get_fd.o)
                                0x2db (size before relaxing)
 .debug_str     0x000065dd       0x1b ../UcosiiBSP_for_cpu_s0/\libucosii_bsp.a(alt_icache_flush.o)
                                0x139 (size before relaxing)
 .debug_str     0x000065f8       0x7f c:/altera/13.1/nios2eds/bin/gnu/h-i686-mingw32/bin/../lib/gcc/nios2-elf/4.7.3/../../../../../H-i686-mingw32/nios2-elf/lib\libc.a(lib_a-atexit.o)
                                0x20f (size before relaxing)
 .debug_str     0x00006677       0x3b c:/altera/13.1/nios2eds/bin/gnu/h-i686-mingw32/bin/../lib/gcc/nios2-elf/4.7.3/../../../../../H-i686-mingw32/nios2-elf/lib\libc.a(lib_a-memcmp.o)
                                0x176 (size before relaxing)
 .debug_str     0x000066b2       0x3d c:/altera/13.1/nios2eds/bin/gnu/h-i686-mingw32/bin/../lib/gcc/nios2-elf/4.7.3/../../../../../H-i686-mingw32/nios2-elf/lib\libc.a(lib_a-__atexit.o)
                                0x573 (size before relaxing)
 .debug_str     0x000066ef        0xd c:/altera/13.1/nios2eds/bin/gnu/h-i686-mingw32/bin/../lib/gcc/nios2-elf/4.7.3\libgcc.a(_fixunsdfsi.o)
                                0x168 (size before relaxing)

.debug_loc      0x00000000    0x30be5
 *(.debug_loc)
 .debug_loc     0x00000000     0x323f obj/default/MCAPI_Top/mcapi.o
 .debug_loc     0x0000323f    0x11abb obj/default/MCAPI_Transport/mcapi_trans_nios.o
 .debug_loc     0x00014cfa     0x13ab obj/default/NS_Layer/NS_layer.o
 .debug_loc     0x000160a5      0xb47 obj/default/PH_FifoDriver_UCOSII/PH_layer.o
 .debug_loc     0x00016bec      0x56f obj/default/SysTestNode1.o
 .debug_loc     0x0001715b      0x5a8 obj/default/UTILS/util_packet_handling.o
 .debug_loc     0x00017703      0x338 c:/altera/13.1/nios2eds/bin/gnu/h-i686-mingw32/bin/../lib/gcc/nios2-elf/4.7.3\libgcc.a(lib2-divmod.o)
 .debug_loc     0x00017a3b       0x3e c:/altera/13.1/nios2eds/bin/gnu/h-i686-mingw32/bin/../lib/gcc/nios2-elf/4.7.3/../../../../../H-i686-mingw32/nios2-elf/lib\libc.a(lib_a-exit.o)
 .debug_loc     0x00017a79      0x259 c:/altera/13.1/nios2eds/bin/gnu/h-i686-mingw32/bin/../lib/gcc/nios2-elf/4.7.3/../../../../../H-i686-mingw32/nios2-elf/lib\libc.a(lib_a-fflush.o)
 .debug_loc     0x00017cd2      0x29c c:/altera/13.1/nios2eds/bin/gnu/h-i686-mingw32/bin/../lib/gcc/nios2-elf/4.7.3/../../../../../H-i686-mingw32/nios2-elf/lib\libc.a(lib_a-findfp.o)
 .debug_loc     0x00017f6e      0x155 c:/altera/13.1/nios2eds/bin/gnu/h-i686-mingw32/bin/../lib/gcc/nios2-elf/4.7.3/../../../../../H-i686-mingw32/nios2-elf/lib\libc.a(lib_a-fprintf.o)
 .debug_loc     0x000180c3      0x2ae c:/altera/13.1/nios2eds/bin/gnu/h-i686-mingw32/bin/../lib/gcc/nios2-elf/4.7.3/../../../../../H-i686-mingw32/nios2-elf/lib\libc.a(lib_a-fwalk.o)
 .debug_loc     0x00018371      0x221 c:/altera/13.1/nios2eds/bin/gnu/h-i686-mingw32/bin/../lib/gcc/nios2-elf/4.7.3/../../../../../H-i686-mingw32/nios2-elf/lib\libc.a(lib_a-fwrite.o)
 .debug_loc     0x00018592      0xb50 c:/altera/13.1/nios2eds/bin/gnu/h-i686-mingw32/bin/../lib/gcc/nios2-elf/4.7.3/../../../../../H-i686-mingw32/nios2-elf/lib\libc.a(lib_a-mallocr.o)
 .debug_loc     0x000190e2      0x1f2 c:/altera/13.1/nios2eds/bin/gnu/h-i686-mingw32/bin/../lib/gcc/nios2-elf/4.7.3/../../../../../H-i686-mingw32/nios2-elf/lib\libc.a(lib_a-memcpy.o)
 .debug_loc     0x000192d4      0x1b7 c:/altera/13.1/nios2eds/bin/gnu/h-i686-mingw32/bin/../lib/gcc/nios2-elf/4.7.3/../../../../../H-i686-mingw32/nios2-elf/lib\libc.a(lib_a-memset.o)
 .debug_loc     0x0001948b      0x132 c:/altera/13.1/nios2eds/bin/gnu/h-i686-mingw32/bin/../lib/gcc/nios2-elf/4.7.3/../../../../../H-i686-mingw32/nios2-elf/lib\libc.a(lib_a-printf.o)
 .debug_loc     0x000195bd       0xd9 c:/altera/13.1/nios2eds/bin/gnu/h-i686-mingw32/bin/../lib/gcc/nios2-elf/4.7.3/../../../../../H-i686-mingw32/nios2-elf/lib\libc.a(lib_a-puts.o)
 .debug_loc     0x00019696       0x20 c:/altera/13.1/nios2eds/bin/gnu/h-i686-mingw32/bin/../lib/gcc/nios2-elf/4.7.3/../../../../../H-i686-mingw32/nios2-elf/lib\libc.a(lib_a-rand.o)
 .debug_loc     0x000196b6       0x86 c:/altera/13.1/nios2eds/bin/gnu/h-i686-mingw32/bin/../lib/gcc/nios2-elf/4.7.3/../../../../../H-i686-mingw32/nios2-elf/lib\libc.a(lib_a-sbrkr.o)
 .debug_loc     0x0001973c      0x379 c:/altera/13.1/nios2eds/bin/gnu/h-i686-mingw32/bin/../lib/gcc/nios2-elf/4.7.3/../../../../../H-i686-mingw32/nios2-elf/lib\libc.a(lib_a-stdio.o)
 .debug_loc     0x00019ab5       0x52 c:/altera/13.1/nios2eds/bin/gnu/h-i686-mingw32/bin/../lib/gcc/nios2-elf/4.7.3/../../../../../H-i686-mingw32/nios2-elf/lib\libc.a(lib_a-strlen.o)
 .debug_loc     0x00019b07     0x2b6b c:/altera/13.1/nios2eds/bin/gnu/h-i686-mingw32/bin/../lib/gcc/nios2-elf/4.7.3/../../../../../H-i686-mingw32/nios2-elf/lib\libc.a(lib_a-vfprintf.o)
 .debug_loc     0x0001c672       0xde c:/altera/13.1/nios2eds/bin/gnu/h-i686-mingw32/bin/../lib/gcc/nios2-elf/4.7.3/../../../../../H-i686-mingw32/nios2-elf/lib\libc.a(lib_a-writer.o)
 .debug_loc     0x0001c750       0xba c:/altera/13.1/nios2eds/bin/gnu/h-i686-mingw32/bin/../lib/gcc/nios2-elf/4.7.3/../../../../../H-i686-mingw32/nios2-elf/lib\libc.a(lib_a-wsetup.o)
 .debug_loc     0x0001c80a      0x1e1 c:/altera/13.1/nios2eds/bin/gnu/h-i686-mingw32/bin/../lib/gcc/nios2-elf/4.7.3/../../../../../H-i686-mingw32/nios2-elf/lib\libc.a(lib_a-__call_atexit.o)
 .debug_loc     0x0001c9eb       0x86 c:/altera/13.1/nios2eds/bin/gnu/h-i686-mingw32/bin/../lib/gcc/nios2-elf/4.7.3/../../../../../H-i686-mingw32/nios2-elf/lib\libc.a(lib_a-closer.o)
 .debug_loc     0x0001ca71     0x2286 c:/altera/13.1/nios2eds/bin/gnu/h-i686-mingw32/bin/../lib/gcc/nios2-elf/4.7.3/../../../../../H-i686-mingw32/nios2-elf/lib\libc.a(lib_a-dtoa.o)
 .debug_loc     0x0001ecf7      0x136 c:/altera/13.1/nios2eds/bin/gnu/h-i686-mingw32/bin/../lib/gcc/nios2-elf/4.7.3/../../../../../H-i686-mingw32/nios2-elf/lib\libc.a(lib_a-fclose.o)
 .debug_loc     0x0001ee2d      0x668 c:/altera/13.1/nios2eds/bin/gnu/h-i686-mingw32/bin/../lib/gcc/nios2-elf/4.7.3/../../../../../H-i686-mingw32/nios2-elf/lib\libc.a(lib_a-freer.o)
 .debug_loc     0x0001f495      0x50c c:/altera/13.1/nios2eds/bin/gnu/h-i686-mingw32/bin/../lib/gcc/nios2-elf/4.7.3/../../../../../H-i686-mingw32/nios2-elf/lib\libc.a(lib_a-fvwrite.o)
 .debug_loc     0x0001f9a1      0x13e c:/altera/13.1/nios2eds/bin/gnu/h-i686-mingw32/bin/../lib/gcc/nios2-elf/4.7.3/../../../../../H-i686-mingw32/nios2-elf/lib\libc.a(lib_a-locale.o)
 .debug_loc     0x0001fadf       0xde c:/altera/13.1/nios2eds/bin/gnu/h-i686-mingw32/bin/../lib/gcc/nios2-elf/4.7.3/../../../../../H-i686-mingw32/nios2-elf/lib\libc.a(lib_a-lseekr.o)
 .debug_loc     0x0001fbbd      0x16a c:/altera/13.1/nios2eds/bin/gnu/h-i686-mingw32/bin/../lib/gcc/nios2-elf/4.7.3/../../../../../H-i686-mingw32/nios2-elf/lib\libc.a(lib_a-makebuf.o)
 .debug_loc     0x0001fd27      0x239 c:/altera/13.1/nios2eds/bin/gnu/h-i686-mingw32/bin/../lib/gcc/nios2-elf/4.7.3/../../../../../H-i686-mingw32/nios2-elf/lib\libc.a(lib_a-memchr.o)
 .debug_loc     0x0001ff60      0x240 c:/altera/13.1/nios2eds/bin/gnu/h-i686-mingw32/bin/../lib/gcc/nios2-elf/4.7.3/../../../../../H-i686-mingw32/nios2-elf/lib\libc.a(lib_a-memmove.o)
 .debug_loc     0x000201a0     0x1b23 c:/altera/13.1/nios2eds/bin/gnu/h-i686-mingw32/bin/../lib/gcc/nios2-elf/4.7.3/../../../../../H-i686-mingw32/nios2-elf/lib\libc.a(lib_a-mprec.o)
 .debug_loc     0x00021cc3       0xde c:/altera/13.1/nios2eds/bin/gnu/h-i686-mingw32/bin/../lib/gcc/nios2-elf/4.7.3/../../../../../H-i686-mingw32/nios2-elf/lib\libc.a(lib_a-readr.o)
 .debug_loc     0x00021da1     0x1136 c:/altera/13.1/nios2eds/bin/gnu/h-i686-mingw32/bin/../lib/gcc/nios2-elf/4.7.3/../../../../../H-i686-mingw32/nios2-elf/lib\libc.a(lib_a-reallocr.o)
 .debug_loc     0x00022ed7       0x88 c:/altera/13.1/nios2eds/bin/gnu/h-i686-mingw32/bin/../lib/gcc/nios2-elf/4.7.3/../../../../../H-i686-mingw32/nios2-elf/lib\libc.a(lib_a-s_isinfd.o)
 .debug_loc     0x00022f5f       0xa5 c:/altera/13.1/nios2eds/bin/gnu/h-i686-mingw32/bin/../lib/gcc/nios2-elf/4.7.3/../../../../../H-i686-mingw32/nios2-elf/lib\libc.a(lib_a-s_isnand.o)
 .debug_loc     0x00023004       0xb0 c:/altera/13.1/nios2eds/bin/gnu/h-i686-mingw32/bin/../lib/gcc/nios2-elf/4.7.3/../../../../../H-i686-mingw32/nios2-elf/lib\libc.a(lib_a-strcmp.o)
 .debug_loc     0x000230b4      0x283 c:/altera/13.1/nios2eds/bin/gnu/h-i686-mingw32/bin/../lib/gcc/nios2-elf/4.7.3/../../../../../H-i686-mingw32/nios2-elf/lib\libc.a(lib_a-callocr.o)
 .debug_loc     0x00023337       0xb2 c:/altera/13.1/nios2eds/bin/gnu/h-i686-mingw32/bin/../lib/gcc/nios2-elf/4.7.3/../../../../../H-i686-mingw32/nios2-elf/lib\libc.a(lib_a-fstatr.o)
 .debug_loc     0x000233e9       0x86 c:/altera/13.1/nios2eds/bin/gnu/h-i686-mingw32/bin/../lib/gcc/nios2-elf/4.7.3/../../../../../H-i686-mingw32/nios2-elf/lib\libc.a(lib_a-isattyr.o)
 .debug_loc     0x0002346f      0x15d c:/altera/13.1/nios2eds/bin/gnu/h-i686-mingw32/bin/../lib/gcc/nios2-elf/4.7.3\libgcc.a(_muldi3.o)
 .debug_loc     0x000235cc     0x10da c:/altera/13.1/nios2eds/bin/gnu/h-i686-mingw32/bin/../lib/gcc/nios2-elf/4.7.3\libgcc.a(_udivdi3.o)
 .debug_loc     0x000246a6     0x104d c:/altera/13.1/nios2eds/bin/gnu/h-i686-mingw32/bin/../lib/gcc/nios2-elf/4.7.3\libgcc.a(_umoddi3.o)
 .debug_loc     0x000256f3      0x7a1 c:/altera/13.1/nios2eds/bin/gnu/h-i686-mingw32/bin/../lib/gcc/nios2-elf/4.7.3\libgcc.a(_addsub_df.o)
 .debug_loc     0x00025e94      0x3ba c:/altera/13.1/nios2eds/bin/gnu/h-i686-mingw32/bin/../lib/gcc/nios2-elf/4.7.3\libgcc.a(_mul_df.o)
 .debug_loc     0x0002624e      0x25e c:/altera/13.1/nios2eds/bin/gnu/h-i686-mingw32/bin/../lib/gcc/nios2-elf/4.7.3\libgcc.a(_div_df.o)
 .debug_loc     0x000264ac       0x70 c:/altera/13.1/nios2eds/bin/gnu/h-i686-mingw32/bin/../lib/gcc/nios2-elf/4.7.3\libgcc.a(_eq_df.o)
 .debug_loc     0x0002651c       0x70 c:/altera/13.1/nios2eds/bin/gnu/h-i686-mingw32/bin/../lib/gcc/nios2-elf/4.7.3\libgcc.a(_ne_df.o)
 .debug_loc     0x0002658c       0x70 c:/altera/13.1/nios2eds/bin/gnu/h-i686-mingw32/bin/../lib/gcc/nios2-elf/4.7.3\libgcc.a(_gt_df.o)
 .debug_loc     0x000265fc       0x70 c:/altera/13.1/nios2eds/bin/gnu/h-i686-mingw32/bin/../lib/gcc/nios2-elf/4.7.3\libgcc.a(_ge_df.o)
 .debug_loc     0x0002666c       0x70 c:/altera/13.1/nios2eds/bin/gnu/h-i686-mingw32/bin/../lib/gcc/nios2-elf/4.7.3\libgcc.a(_lt_df.o)
 .debug_loc     0x000266dc       0xd3 c:/altera/13.1/nios2eds/bin/gnu/h-i686-mingw32/bin/../lib/gcc/nios2-elf/4.7.3\libgcc.a(_si_to_df.o)
 .debug_loc     0x000267af       0xce c:/altera/13.1/nios2eds/bin/gnu/h-i686-mingw32/bin/../lib/gcc/nios2-elf/4.7.3\libgcc.a(_df_to_si.o)
 .debug_loc     0x0002687d      0x168 c:/altera/13.1/nios2eds/bin/gnu/h-i686-mingw32/bin/../lib/gcc/nios2-elf/4.7.3\libgcc.a(_usi_to_df.o)
 .debug_loc     0x000269e5      0x19a c:/altera/13.1/nios2eds/bin/gnu/h-i686-mingw32/bin/../lib/gcc/nios2-elf/4.7.3\libgcc.a(_clzsi2.o)
 .debug_loc     0x00026b7f      0x2ae c:/altera/13.1/nios2eds/bin/gnu/h-i686-mingw32/bin/../lib/gcc/nios2-elf/4.7.3\libgcc.a(_pack_df.o)
 .debug_loc     0x00026e2d      0x179 c:/altera/13.1/nios2eds/bin/gnu/h-i686-mingw32/bin/../lib/gcc/nios2-elf/4.7.3\libgcc.a(_unpack_df.o)
 .debug_loc     0x00026fa6       0x7c c:/altera/13.1/nios2eds/bin/gnu/h-i686-mingw32/bin/../lib/gcc/nios2-elf/4.7.3\libgcc.a(_fpcmp_parts_df.o)
 .debug_loc     0x00027022       0xc4 c:/altera/13.1/nios2eds/bin/gnu/h-i686-mingw32/bin/../lib/gcc/nios2-elf/4.7.3\libgcc.a(_lshrdi3.o)
 .debug_loc     0x000270e6       0xc4 c:/altera/13.1/nios2eds/bin/gnu/h-i686-mingw32/bin/../lib/gcc/nios2-elf/4.7.3\libgcc.a(_ashldi3.o)
 .debug_loc     0x000271aa      0x151 ../UcosiiBSP_for_cpu_s0/\libucosii_bsp.a(alt_close.o)
 .debug_loc     0x000272fb      0x119 ../UcosiiBSP_for_cpu_s0/\libucosii_bsp.a(alt_fstat.o)
 .debug_loc     0x00027414      0x236 ../UcosiiBSP_for_cpu_s0/\libucosii_bsp.a(alt_irq_register.o)
 .debug_loc     0x0002764a       0xce ../UcosiiBSP_for_cpu_s0/\libucosii_bsp.a(alt_isatty.o)
 .debug_loc     0x00027718       0x20 ../UcosiiBSP_for_cpu_s0/\libucosii_bsp.a(alt_load.o)
 .debug_loc     0x00027738      0x198 ../UcosiiBSP_for_cpu_s0/\libucosii_bsp.a(alt_lseek.o)
 .debug_loc     0x000278d0       0x3e ../UcosiiBSP_for_cpu_s0/\libucosii_bsp.a(alt_main.o)
 .debug_loc     0x0002790e      0x233 ../UcosiiBSP_for_cpu_s0/\libucosii_bsp.a(alt_read.o)
 .debug_loc     0x00027b41       0x21 ../UcosiiBSP_for_cpu_s0/\libucosii_bsp.a(alt_release_fd.o)
 .debug_loc     0x00027b62       0x47 ../UcosiiBSP_for_cpu_s0/\libucosii_bsp.a(alt_sbrk.o)
 .debug_loc     0x00027ba9       0x83 ../UcosiiBSP_for_cpu_s0/\libucosii_bsp.a(alt_usleep.o)
 .debug_loc     0x00027c2c      0x233 ../UcosiiBSP_for_cpu_s0/\libucosii_bsp.a(alt_write.o)
 .debug_loc     0x00027e5f       0xae ../UcosiiBSP_for_cpu_s0/\libucosii_bsp.a(alt_env_lock.o)
 .debug_loc     0x00027f0d      0x143 ../UcosiiBSP_for_cpu_s0/\libucosii_bsp.a(alt_malloc_lock.o)
 .debug_loc     0x00028050     0x187a ../UcosiiBSP_for_cpu_s0/\libucosii_bsp.a(os_core.o)
 .debug_loc     0x000298ca     0x16d0 ../UcosiiBSP_for_cpu_s0/\libucosii_bsp.a(os_flag.o)
 .debug_loc     0x0002af9a      0x518 ../UcosiiBSP_for_cpu_s0/\libucosii_bsp.a(os_mem.o)
 .debug_loc     0x0002b4b2      0xa35 ../UcosiiBSP_for_cpu_s0/\libucosii_bsp.a(os_mutex.o)
 .debug_loc     0x0002bee7     0x10f4 ../UcosiiBSP_for_cpu_s0/\libucosii_bsp.a(os_q.o)
 .debug_loc     0x0002cfdb      0x907 ../UcosiiBSP_for_cpu_s0/\libucosii_bsp.a(os_sem.o)
 .debug_loc     0x0002d8e2     0x124e ../UcosiiBSP_for_cpu_s0/\libucosii_bsp.a(os_task.o)
 .debug_loc     0x0002eb30      0x446 ../UcosiiBSP_for_cpu_s0/\libucosii_bsp.a(os_time.o)
 .debug_loc     0x0002ef76       0x61 ../UcosiiBSP_for_cpu_s0/\libucosii_bsp.a(alt_sys_init.o)
 .debug_loc     0x0002efd7      0x1d3 ../UcosiiBSP_for_cpu_s0/\libucosii_bsp.a(altera_avalon_jtag_uart_fd.o)
 .debug_loc     0x0002f1aa      0x44d ../UcosiiBSP_for_cpu_s0/\libucosii_bsp.a(altera_avalon_jtag_uart_init.o)
 .debug_loc     0x0002f5f7       0xb3 ../UcosiiBSP_for_cpu_s0/\libucosii_bsp.a(altera_avalon_jtag_uart_ioctl.o)
 .debug_loc     0x0002f6aa      0x23d ../UcosiiBSP_for_cpu_s0/\libucosii_bsp.a(altera_avalon_jtag_uart_read.o)
 .debug_loc     0x0002f8e7      0x252 ../UcosiiBSP_for_cpu_s0/\libucosii_bsp.a(altera_avalon_jtag_uart_write.o)
 .debug_loc     0x0002fb39      0x143 ../UcosiiBSP_for_cpu_s0/\libucosii_bsp.a(altera_avalon_timer_sc.o)
 .debug_loc     0x0002fc7c       0xaf ../UcosiiBSP_for_cpu_s0/\libucosii_bsp.a(alt_alarm_start.o)
 .debug_loc     0x0002fd2b       0x88 ../UcosiiBSP_for_cpu_s0/\libucosii_bsp.a(alt_busy_sleep.o)
 .debug_loc     0x0002fdb3       0xd0 ../UcosiiBSP_for_cpu_s0/\libucosii_bsp.a(alt_dev_llist_insert.o)
 .debug_loc     0x0002fe83       0x33 ../UcosiiBSP_for_cpu_s0/\libucosii_bsp.a(alt_do_ctors.o)
 .debug_loc     0x0002feb6       0x33 ../UcosiiBSP_for_cpu_s0/\libucosii_bsp.a(alt_do_dtors.o)
 .debug_loc     0x0002fee9      0x1a4 ../UcosiiBSP_for_cpu_s0/\libucosii_bsp.a(alt_io_redirect.o)
 .debug_loc     0x0003008d       0x97 ../UcosiiBSP_for_cpu_s0/\libucosii_bsp.a(alt_irq_handler.o)
 .debug_loc     0x00030124      0x2a6 ../UcosiiBSP_for_cpu_s0/\libucosii_bsp.a(alt_open.o)
 .debug_loc     0x000303ca       0xb1 ../UcosiiBSP_for_cpu_s0/\libucosii_bsp.a(alt_tick.o)
 .debug_loc     0x0003047b      0x12e ../UcosiiBSP_for_cpu_s0/\libucosii_bsp.a(os_cpu_c.o)
 .debug_loc     0x000305a9       0xf1 ../UcosiiBSP_for_cpu_s0/\libucosii_bsp.a(alt_find_dev.o)
 .debug_loc     0x0003069a       0x9e ../UcosiiBSP_for_cpu_s0/\libucosii_bsp.a(alt_find_file.o)
 .debug_loc     0x00030738      0x150 ../UcosiiBSP_for_cpu_s0/\libucosii_bsp.a(alt_get_fd.o)
 .debug_loc     0x00030888       0x52 ../UcosiiBSP_for_cpu_s0/\libucosii_bsp.a(alt_icache_flush.o)
 .debug_loc     0x000308da       0x2c c:/altera/13.1/nios2eds/bin/gnu/h-i686-mingw32/bin/../lib/gcc/nios2-elf/4.7.3/../../../../../H-i686-mingw32/nios2-elf/lib\libc.a(lib_a-atexit.o)
 .debug_loc     0x00030906      0x103 c:/altera/13.1/nios2eds/bin/gnu/h-i686-mingw32/bin/../lib/gcc/nios2-elf/4.7.3/../../../../../H-i686-mingw32/nios2-elf/lib\libc.a(lib_a-memcmp.o)
 .debug_loc     0x00030a09      0x194 c:/altera/13.1/nios2eds/bin/gnu/h-i686-mingw32/bin/../lib/gcc/nios2-elf/4.7.3/../../../../../H-i686-mingw32/nios2-elf/lib\libc.a(lib_a-__atexit.o)
 .debug_loc     0x00030b9d       0x48 c:/altera/13.1/nios2eds/bin/gnu/h-i686-mingw32/bin/../lib/gcc/nios2-elf/4.7.3\libgcc.a(_fixunsdfsi.o)

.debug_macinfo
 *(.debug_macinfo)

.debug_weaknames
 *(.debug_weaknames)

.debug_funcnames
 *(.debug_funcnames)

.debug_typenames
 *(.debug_typenames)

.debug_varnames
 *(.debug_varnames)

.debug_alt_sim_info
                0x00000000       0x50
 *(.debug_alt_sim_info)
 .debug_alt_sim_info
                0x00000000       0x20 ../UcosiiBSP_for_cpu_s0//obj/HAL/src/crt0.o
 .debug_alt_sim_info
                0x00000020       0x30 ../UcosiiBSP_for_cpu_s0/\libucosii_bsp.a(alt_busy_sleep.o)
                0x04000000                __alt_data_end = 0x4000000
                0x04000000                PROVIDE (__alt_stack_pointer, __alt_data_end)
                0x0004b93c                PROVIDE (__alt_stack_limit, __alt_stack_base)
                0x0004b93c                PROVIDE (__alt_heap_start, end)
                0x04000000                PROVIDE (__alt_heap_limit, 0x4000000)
OUTPUT(MCAPI_SystemTest_node1_cpu_s0.elf elf32-littlenios2)

.debug_ranges   0x00000000     0x5138
 .debug_ranges  0x00000000       0x20 ../UcosiiBSP_for_cpu_s0//obj/HAL/src/crt0.o
 .debug_ranges  0x00000020       0x30 obj/default/MCAPI_Top/mcapi.o
 .debug_ranges  0x00000050     0x3730 obj/default/MCAPI_Transport/mcapi_trans_nios.o
 .debug_ranges  0x00003780       0xf0 obj/default/NS_Layer/NS_layer.o
 .debug_ranges  0x00003870      0x210 obj/default/PH_FifoDriver_UCOSII/PH_layer.o
 .debug_ranges  0x00003a80       0x58 obj/default/SysTestNode1.o
 .debug_ranges  0x00003ad8       0x20 c:/altera/13.1/nios2eds/bin/gnu/h-i686-mingw32/bin/../lib/gcc/nios2-elf/4.7.3/../../../../../H-i686-mingw32/nios2-elf/lib\libc.a(lib_a-fflush.o)
 .debug_ranges  0x00003af8       0x80 c:/altera/13.1/nios2eds/bin/gnu/h-i686-mingw32/bin/../lib/gcc/nios2-elf/4.7.3/../../../../../H-i686-mingw32/nios2-elf/lib\libc.a(lib_a-fwalk.o)
 .debug_ranges  0x00003b78       0x70 c:/altera/13.1/nios2eds/bin/gnu/h-i686-mingw32/bin/../lib/gcc/nios2-elf/4.7.3/../../../../../H-i686-mingw32/nios2-elf/lib\libc.a(lib_a-mallocr.o)
 .debug_ranges  0x00003be8      0x150 c:/altera/13.1/nios2eds/bin/gnu/h-i686-mingw32/bin/../lib/gcc/nios2-elf/4.7.3/../../../../../H-i686-mingw32/nios2-elf/lib\libc.a(lib_a-vfprintf.o)
 .debug_ranges  0x00003d38       0x18 c:/altera/13.1/nios2eds/bin/gnu/h-i686-mingw32/bin/../lib/gcc/nios2-elf/4.7.3/../../../../../H-i686-mingw32/nios2-elf/lib\libc.a(lib_a-__call_atexit.o)
 .debug_ranges  0x00003d50       0x18 c:/altera/13.1/nios2eds/bin/gnu/h-i686-mingw32/bin/../lib/gcc/nios2-elf/4.7.3/../../../../../H-i686-mingw32/nios2-elf/lib\libc.a(lib_a-fvwrite.o)
 .debug_ranges  0x00003d68       0x40 c:/altera/13.1/nios2eds/bin/gnu/h-i686-mingw32/bin/../lib/gcc/nios2-elf/4.7.3/../../../../../H-i686-mingw32/nios2-elf/lib\libc.a(lib_a-mprec.o)
 .debug_ranges  0x00003da8      0x158 c:/altera/13.1/nios2eds/bin/gnu/h-i686-mingw32/bin/../lib/gcc/nios2-elf/4.7.3/../../../../../H-i686-mingw32/nios2-elf/lib\libc.a(lib_a-reallocr.o)
 .debug_ranges  0x00003f00       0x48 c:/altera/13.1/nios2eds/bin/gnu/h-i686-mingw32/bin/../lib/gcc/nios2-elf/4.7.3/../../../../../H-i686-mingw32/nios2-elf/lib\libc.a(lib_a-callocr.o)
 .debug_ranges  0x00003f48       0x30 c:/altera/13.1/nios2eds/bin/gnu/h-i686-mingw32/bin/../lib/gcc/nios2-elf/4.7.3\libgcc.a(_muldi3.o)
 .debug_ranges  0x00003f78      0x1a0 c:/altera/13.1/nios2eds/bin/gnu/h-i686-mingw32/bin/../lib/gcc/nios2-elf/4.7.3\libgcc.a(_udivdi3.o)
 .debug_ranges  0x00004118      0x160 c:/altera/13.1/nios2eds/bin/gnu/h-i686-mingw32/bin/../lib/gcc/nios2-elf/4.7.3\libgcc.a(_umoddi3.o)
 .debug_ranges  0x00004278       0x38 c:/altera/13.1/nios2eds/bin/gnu/h-i686-mingw32/bin/../lib/gcc/nios2-elf/4.7.3\libgcc.a(_addsub_df.o)
 .debug_ranges  0x000042b0       0x78 c:/altera/13.1/nios2eds/bin/gnu/h-i686-mingw32/bin/../lib/gcc/nios2-elf/4.7.3\libgcc.a(_mul_df.o)
 .debug_ranges  0x00004328       0x50 c:/altera/13.1/nios2eds/bin/gnu/h-i686-mingw32/bin/../lib/gcc/nios2-elf/4.7.3\libgcc.a(_div_df.o)
 .debug_ranges  0x00004378       0x30 c:/altera/13.1/nios2eds/bin/gnu/h-i686-mingw32/bin/../lib/gcc/nios2-elf/4.7.3\libgcc.a(_si_to_df.o)
 .debug_ranges  0x000043a8       0x48 c:/altera/13.1/nios2eds/bin/gnu/h-i686-mingw32/bin/../lib/gcc/nios2-elf/4.7.3\libgcc.a(_usi_to_df.o)
 .debug_ranges  0x000043f0       0x28 c:/altera/13.1/nios2eds/bin/gnu/h-i686-mingw32/bin/../lib/gcc/nios2-elf/4.7.3\libgcc.a(_clzsi2.o)
 .debug_ranges  0x00004418       0x18 c:/altera/13.1/nios2eds/bin/gnu/h-i686-mingw32/bin/../lib/gcc/nios2-elf/4.7.3\libgcc.a(_pack_df.o)
 .debug_ranges  0x00004430       0x18 ../UcosiiBSP_for_cpu_s0/\libucosii_bsp.a(alt_close.o)
 .debug_ranges  0x00004448       0x48 ../UcosiiBSP_for_cpu_s0/\libucosii_bsp.a(alt_irq_register.o)
 .debug_ranges  0x00004490       0x18 ../UcosiiBSP_for_cpu_s0/\libucosii_bsp.a(alt_isatty.o)
 .debug_ranges  0x000044a8       0x48 ../UcosiiBSP_for_cpu_s0/\libucosii_bsp.a(alt_load.o)
 .debug_ranges  0x000044f0       0x18 ../UcosiiBSP_for_cpu_s0/\libucosii_bsp.a(alt_lseek.o)
 .debug_ranges  0x00004508       0x18 ../UcosiiBSP_for_cpu_s0/\libucosii_bsp.a(alt_main.o)
 .debug_ranges  0x00004520       0x30 ../UcosiiBSP_for_cpu_s0/\libucosii_bsp.a(alt_read.o)
 .debug_ranges  0x00004550       0x30 ../UcosiiBSP_for_cpu_s0/\libucosii_bsp.a(alt_write.o)
 .debug_ranges  0x00004580      0x2a0 ../UcosiiBSP_for_cpu_s0/\libucosii_bsp.a(os_core.o)
 .debug_ranges  0x00004820      0x1f8 ../UcosiiBSP_for_cpu_s0/\libucosii_bsp.a(os_flag.o)
 .debug_ranges  0x00004a18       0x18 ../UcosiiBSP_for_cpu_s0/\libucosii_bsp.a(os_mem.o)
 .debug_ranges  0x00004a30       0x60 ../UcosiiBSP_for_cpu_s0/\libucosii_bsp.a(os_q.o)
 .debug_ranges  0x00004a90       0x60 ../UcosiiBSP_for_cpu_s0/\libucosii_bsp.a(os_sem.o)
 .debug_ranges  0x00004af0       0x60 ../UcosiiBSP_for_cpu_s0/\libucosii_bsp.a(os_task.o)
 .debug_ranges  0x00004b50      0x160 ../UcosiiBSP_for_cpu_s0/\libucosii_bsp.a(os_time.o)
 .debug_ranges  0x00004cb0       0x30 ../UcosiiBSP_for_cpu_s0/\libucosii_bsp.a(alt_sys_init.o)
 .debug_ranges  0x00004ce0      0x190 ../UcosiiBSP_for_cpu_s0/\libucosii_bsp.a(altera_avalon_jtag_uart_init.o)
 .debug_ranges  0x00004e70       0x68 ../UcosiiBSP_for_cpu_s0/\libucosii_bsp.a(altera_avalon_jtag_uart_read.o)
 .debug_ranges  0x00004ed8       0x98 ../UcosiiBSP_for_cpu_s0/\libucosii_bsp.a(altera_avalon_jtag_uart_write.o)
 .debug_ranges  0x00004f70       0x18 ../UcosiiBSP_for_cpu_s0/\libucosii_bsp.a(altera_avalon_timer_sc.o)
 .debug_ranges  0x00004f88       0x30 ../UcosiiBSP_for_cpu_s0/\libucosii_bsp.a(alt_dev_llist_insert.o)
 .debug_ranges  0x00004fb8       0x60 ../UcosiiBSP_for_cpu_s0/\libucosii_bsp.a(alt_io_redirect.o)
 .debug_ranges  0x00005018       0x28 ../UcosiiBSP_for_cpu_s0/\libucosii_bsp.a(alt_irq_entry.o)
 .debug_ranges  0x00005040       0x10 ../UcosiiBSP_for_cpu_s0/\libucosii_bsp.a(alt_irq_handler.o)
 .debug_ranges  0x00005050       0x18 ../UcosiiBSP_for_cpu_s0/\libucosii_bsp.a(alt_open.o)
 .debug_ranges  0x00005068       0x60 ../UcosiiBSP_for_cpu_s0/\libucosii_bsp.a(alt_tick.o)
 .debug_ranges  0x000050c8       0x30 ../UcosiiBSP_for_cpu_s0/\libucosii_bsp.a(alt_exception_entry.o)
 .debug_ranges  0x000050f8       0x40 ../UcosiiBSP_for_cpu_s0/\libucosii_bsp.a(alt_get_fd.o)
